 Ctpdatarecorder

 Timestamp is 599ef1df (Thu Aug 24 23:33:51 2017)

 Preferred load address is 00400000

 Start         Length     Name                   Class
 0001:00000000 00000098H .text$di                CODE
 0001:000000a0 00041958H .text$mn                CODE
 0001:00041a00 00004034H .text$x                 CODE
 0001:00045a40 00000165H .text$yd                CODE
 0002:00000000 000003c4H .idata$5                DATA
 0002:000003c4 00000004H .CRT$XCA                DATA
 0002:000003c8 00000004H .CRT$XCAA               DATA
 0002:000003cc 00000004H .CRT$XCL                DATA
 0002:000003d0 0000000cH .CRT$XCU                DATA
 0002:000003dc 00000004H .CRT$XCZ                DATA
 0002:000003e0 00000004H .CRT$XIA                DATA
 0002:000003e4 00000004H .CRT$XIAA               DATA
 0002:000003e8 00000004H .CRT$XIC                DATA
 0002:000003ec 00000004H .CRT$XIY                DATA
 0002:000003f0 00000004H .CRT$XIZ                DATA
 0002:00000400 00002968H .rdata                  DATA
 0002:00002d68 00000058H .rdata$debug            DATA
 0002:00002dc0 00001d04H .rdata$r                DATA
 0002:00004ad0 000003d4H .rdata$sxdata           DATA
 0002:00004ea4 00000004H .rtc$IAA                DATA
 0002:00004ea8 00000004H .rtc$IZZ                DATA
 0002:00004eac 00000004H .rtc$TAA                DATA
 0002:00004eb0 00000004H .rtc$TZZ                DATA
 0002:00004eb8 000044b4H .xdata$x                DATA
 0002:0000936c 00000000H .edata                  DATA
 0002:0000936c 0000008cH .idata$2                DATA
 0002:000093f8 00000014H .idata$3                DATA
 0002:0000940c 000003c4H .idata$4                DATA
 0002:000097d0 00001a72H .idata$6                DATA
 0003:00000000 000000fcH .data                   DATA
 0003:00000100 00001584H .data$r                 DATA
 0003:00001688 000007fcH .bss                    DATA
 0004:00000000 000000e8H .rsrc$01                DATA
 0004:000000f0 000289a0H .rsrc$02                DATA

  Address         Publics by Value              Rva+Base       Lib:Object

 0000:00000000       ___guard_fids_count        00000000     <absolute>
 0000:00000000       ___guard_fids_table        00000000     <absolute>
 0000:00000000       __except_list              00000000     <absolute>
 0000:00000000       ___guard_flags             00000000     <absolute>
 0000:000000f5       ___safe_se_handler_count   000000f5     <absolute>
 0000:00009876       __fltused                  00009876     <absolute>
 0000:00009876       __ldused                   00009876     <absolute>
 0000:00000000       ___ImageBase               00400000     <linker-defined>
 0001:000000a0       ??$?0$$$V@?$_Ref_count_obj@VEvent_Log@@@std@@QAE@XZ 004010a0 f i ctpmd.obj
 0001:00000110       ??$?0$$$V@?$_Ref_count_obj@VEvent_Tick@@@std@@QAE@XZ 00401110 f i ctpmd.obj
 0001:00000180       ??$?0$$QAV?$basic_string@DU?$char_traits@D@std@@V?$allocator@D@2@@std@@$$$V@?$pair@$$CBV?$basic_string@DU?$char_traits@D@std@@V?$allocator@D@2@@std@@N@std@@QAE@Upiecewise_construct_t@1@V?$tuple@$$QAV?$basic_string@DU?$char_traits@D@std@@V?$allocator@D@2@@std@@@1@V?$tuple@$$$V@1@@Z 00401180 f i ctpmd.obj
 0001:000001f0       ??$?0$$QAV?$basic_string@DU?$char_traits@D@std@@V?$allocator@D@2@@std@@$$$V@?$pair@$$CBV?$basic_string@DU?$char_traits@D@std@@V?$allocator@D@2@@std@@V12@@std@@QAE@Upiecewise_construct_t@1@V?$tuple@$$QAV?$basic_string@DU?$char_traits@D@std@@V?$allocator@D@2@@std@@@1@V?$tuple@$$$V@1@@Z 004011f0 f i ctpmd.obj
 0001:00000220       ??$?0$$QAV?$basic_string@DU?$char_traits@D@std@@V?$allocator@D@2@@std@@PAPAX@?$tuple@$$QAV?$basic_string@DU?$char_traits@D@std@@V?$allocator@D@2@@std@@@std@@QAE@$$QAV01@@Z 00401220 f i ctpmd.obj
 0001:00000230       ??$?0AAV?$_Tree_const_iterator@V?$_Tree_val@U?$_Tree_simple_types@V?$basic_string@DU?$char_traits@D@std@@V?$allocator@D@2@@std@@@std@@@std@@@std@@_NX@?$pair@V?$_Tree_const_iterator@V?$_Tree_val@U?$_Tree_simple_types@V?$basic_string@DU?$char_traits@D@std@@V?$allocator@D@2@@std@@@std@@@std@@@std@@_N@std@@QAE@AAV?$_Tree_const_iterator@V?$_Tree_val@U?$_Tree_simple_types@V?$basic_string@DU?$char_traits@D@std@@V?$allocator@D@2@@std@@@std@@@std@@@1@$$QA_N@Z 00401230 f i ctpmd.obj
 0001:00000250       ??$?0AAV?$_Tree_iterator@V?$_Tree_val@U?$_Tree_simple_types@U?$pair@$$CBV?$basic_string@DU?$char_traits@D@std@@V?$allocator@D@2@@std@@N@std@@@std@@@std@@@std@@_NX@?$pair@V?$_Tree_iterator@V?$_Tree_val@U?$_Tree_simple_types@U?$pair@$$CBV?$basic_string@DU?$char_traits@D@std@@V?$allocator@D@2@@std@@N@std@@@std@@@std@@@std@@_N@std@@QAE@AAV?$_Tree_iterator@V?$_Tree_val@U?$_Tree_simple_types@U?$pair@$$CBV?$basic_string@DU?$char_traits@D@std@@V?$allocator@D@2@@std@@N@std@@@std@@@std@@@1@$$QA_N@Z 00401250 f i ctpmd.obj
 0001:00000270       ??$?0AAV?$_Tree_iterator@V?$_Tree_val@U?$_Tree_simple_types@U?$pair@$$CBV?$basic_string@DU?$char_traits@D@std@@V?$allocator@D@2@@std@@V12@@std@@@std@@@std@@@std@@_NX@?$pair@V?$_Tree_iterator@V?$_Tree_val@U?$_Tree_simple_types@U?$pair@$$CBV?$basic_string@DU?$char_traits@D@std@@V?$allocator@D@2@@std@@V12@@std@@@std@@@std@@@std@@_N@std@@QAE@AAV?$_Tree_iterator@V?$_Tree_val@U?$_Tree_simple_types@U?$pair@$$CBV?$basic_string@DU?$char_traits@D@std@@V?$allocator@D@2@@std@@V12@@std@@@std@@@std@@@1@$$QA_N@Z 00401270 f i ctpmd.obj
 0001:00000290       ??$?0I@?$allocator@_N@std@@QAE@ABV?$allocator@I@1@@Z 00401290 f i ctpmd.obj
 0001:000002a0       ??$?0PADX@?$vector@DV?$allocator@D@std@@@std@@QAE@PAD0@Z 004012a0 f i ctpmd.obj
 0001:000002d0       ??$?0PBDX@?$vector@DV?$allocator@D@std@@@std@@QAE@PBD0@Z 004012d0 f i ctpmd.obj
 0001:00000300       ??$?0V?$_String_iterator@V?$_String_val@U?$_Simple_types@D@std@@@std@@@std@@X@?$vector@DV?$allocator@D@std@@@std@@QAE@V?$_String_iterator@V?$_String_val@U?$_Simple_types@D@std@@@std@@@1@0@Z 00401300 f i ctpmd.obj
 0001:00000330       ??$?0V?$_Tree_const_iterator@V?$_Tree_val@U?$_Tree_simple_types@V?$basic_string@DU?$char_traits@D@std@@V?$allocator@D@2@@std@@@std@@@std@@@std@@_NX@?$pair@V?$_Tree_const_iterator@V?$_Tree_val@U?$_Tree_simple_types@V?$basic_string@DU?$char_traits@D@std@@V?$allocator@D@2@@std@@@std@@@std@@@std@@_N@std@@QAE@$$QAV?$_Tree_const_iterator@V?$_Tree_val@U?$_Tree_simple_types@V?$basic_string@DU?$char_traits@D@std@@V?$allocator@D@2@@std@@@std@@@std@@@1@$$QA_N@Z 00401330 f i ctpmd.obj
 0001:00000350       ??$?0V?$_Tree_iterator@V?$_Tree_val@U?$_Tree_simple_types@U?$pair@$$CBV?$basic_string@DU?$char_traits@D@std@@V?$allocator@D@2@@std@@N@std@@@std@@@std@@@std@@_NX@?$pair@V?$_Tree_iterator@V?$_Tree_val@U?$_Tree_simple_types@U?$pair@$$CBV?$basic_string@DU?$char_traits@D@std@@V?$allocator@D@2@@std@@N@std@@@std@@@std@@@std@@_N@std@@QAE@$$QAV?$_Tree_iterator@V?$_Tree_val@U?$_Tree_simple_types@U?$pair@$$CBV?$basic_string@DU?$char_traits@D@std@@V?$allocator@D@2@@std@@N@std@@@std@@@std@@@1@$$QA_N@Z 00401350 f i ctpmd.obj
 0001:00000370       ??$?0V?$_Tree_iterator@V?$_Tree_val@U?$_Tree_simple_types@U?$pair@$$CBV?$basic_string@DU?$char_traits@D@std@@V?$allocator@D@2@@std@@V12@@std@@@std@@@std@@@std@@_NX@?$pair@V?$_Tree_iterator@V?$_Tree_val@U?$_Tree_simple_types@U?$pair@$$CBV?$basic_string@DU?$char_traits@D@std@@V?$allocator@D@2@@std@@V12@@std@@@std@@@std@@@std@@_N@std@@QAE@$$QAV?$_Tree_iterator@V?$_Tree_val@U?$_Tree_simple_types@U?$pair@$$CBV?$basic_string@DU?$char_traits@D@std@@V?$allocator@D@2@@std@@V12@@std@@@std@@@std@@@1@$$QA_N@Z 00401370 f i ctpmd.obj
 0001:00000390       ??$?0V?$basic_string@DU?$char_traits@D@std@@V?$allocator@D@2@@std@@$$$VPAPAX@?$tuple@$$QAV?$basic_string@DU?$char_traits@D@std@@V?$allocator@D@2@@std@@@std@@QAE@$$QAV?$basic_string@DU?$char_traits@D@std@@V?$allocator@D@2@@1@@Z 00401390 f i ctpmd.obj
 0001:000003a0       ??$?0V?$basic_string@DU?$char_traits@D@std@@V?$allocator@D@2@@std@@@?$_Tuple_val@$$QAV?$basic_string@DU?$char_traits@D@std@@V?$allocator@D@2@@std@@@std@@QAE@$$QAV?$basic_string@DU?$char_traits@D@std@@V?$allocator@D@2@@1@@Z 004013a0 f i ctpmd.obj
 0001:000003b0       ??$?0V?$tuple@$$QAV?$basic_string@DU?$char_traits@D@std@@V?$allocator@D@2@@std@@@std@@V?$tuple@$$$V@1@$0A@$S@?$pair@$$CBV?$basic_string@DU?$char_traits@D@std@@V?$allocator@D@2@@std@@N@std@@QAE@AAV?$tuple@$$QAV?$basic_string@DU?$char_traits@D@std@@V?$allocator@D@2@@std@@@1@AAV?$tuple@$$$V@1@U?$_Arg_idx@$0A@@1@U?$_Arg_idx@$S@1@@Z 004013b0 f i ctpmd.obj
 0001:00000420       ??$?0V?$tuple@$$QAV?$basic_string@DU?$char_traits@D@std@@V?$allocator@D@2@@std@@@std@@V?$tuple@$$$V@1@$0A@$S@?$pair@$$CBV?$basic_string@DU?$char_traits@D@std@@V?$allocator@D@2@@std@@V12@@std@@QAE@AAV?$tuple@$$QAV?$basic_string@DU?$char_traits@D@std@@V?$allocator@D@2@@std@@@1@AAV?$tuple@$$$V@1@U?$_Arg_idx@$0A@@1@U?$_Arg_idx@$S@1@@Z 00401420 f i ctpmd.obj
 0001:000004a0       ??$?0VEvent_Log@@X@?$shared_ptr@VEvent@@@std@@QAE@ABV?$shared_ptr@VEvent_Log@@@1@@Z 004014a0 f i ctpmd.obj
 0001:000004d0       ??$?0VEvent_Tick@@X@?$shared_ptr@VEvent@@@std@@QAE@ABV?$shared_ptr@VEvent_Tick@@@1@@Z 004014d0 f i ctpmd.obj
 0001:00000500       ??$?0_JX@?$duration@_JU?$ratio@$00$0DOI@@std@@@chrono@std@@QAE@AB_J@Z 00401500 f i ctpmd.obj
 0001:00000520       ??$?0_JX@?$duration@_JU?$ratio@$00$0JIJGIA@@std@@@chrono@std@@QAE@AB_J@Z 00401520 f i ctpmd.obj
 0001:00000540       ??$?8DD@std@@YA_NABV?$allocator@D@0@0@Z 00401540 f i ctpmd.obj
 0001:00000550       ??$?8DU?$char_traits@D@std@@V?$allocator@D@1@@std@@YA_NABV?$basic_string@DU?$char_traits@D@std@@V?$allocator@D@2@@0@0@Z 00401550 f i ctpmd.obj
 0001:00000580       ??$?8II@std@@YA_NABV?$allocator@I@0@0@Z 00401580 f i ctpmd.obj
 0001:00000590       ??$?8U_Grp_t@?$_Tgt_state_t@PBD@std@@U012@@std@@YA_NABV?$allocator@U_Grp_t@?$_Tgt_state_t@PBD@std@@@0@0@Z 00401590 f i ctpmd.obj
 0001:000005a0       ??$?8V?$allocator@D@std@@V01@@std@@YA_NABU?$_Wrap_alloc@V?$allocator@D@std@@@0@0@Z 004015a0 f i ctpmd.obj
 0001:000005b0       ??$?8V?$allocator@I@std@@V01@@std@@YA_NABU?$_Wrap_alloc@V?$allocator@I@std@@@0@0@Z 004015b0 f i ctpmd.obj
 0001:000005c0       ??$?8V?$allocator@U_Grp_t@?$_Tgt_state_t@PBD@std@@@std@@V01@@std@@YA_NABU?$_Wrap_alloc@V?$allocator@U_Grp_t@?$_Tgt_state_t@PBD@std@@@std@@@0@0@Z 004015c0 f i ctpmd.obj
 0001:000005d0       ??$?9V?$allocator@D@std@@V01@@std@@YA_NABU?$_Wrap_alloc@V?$allocator@D@std@@@0@0@Z 004015d0 f i ctpmd.obj
 0001:000005e0       ??$?9V?$allocator@I@std@@V01@@std@@YA_NABU?$_Wrap_alloc@V?$allocator@I@std@@@0@0@Z 004015e0 f i ctpmd.obj
 0001:000005f0       ??$?9V?$allocator@U_Grp_t@?$_Tgt_state_t@PBD@std@@@std@@V01@@std@@YA_NABU?$_Wrap_alloc@V?$allocator@U_Grp_t@?$_Tgt_state_t@PBD@std@@@std@@@0@0@Z 004015f0 f i ctpmd.obj
 0001:00000600       ??$?HDU?$char_traits@D@std@@V?$allocator@D@1@@std@@YA?AV?$basic_string@DU?$char_traits@D@std@@V?$allocator@D@2@@0@$$QAV10@0@Z 00401600 f i ctpmd.obj
 0001:00000670       ??$?HDU?$char_traits@D@std@@V?$allocator@D@1@@std@@YA?AV?$basic_string@DU?$char_traits@D@std@@V?$allocator@D@2@@0@$$QAV10@ABV10@@Z 00401670 f i ctpmd.obj
 0001:000006f0       ??$?HDU?$char_traits@D@std@@V?$allocator@D@1@@std@@YA?AV?$basic_string@DU?$char_traits@D@std@@V?$allocator@D@2@@0@$$QAV10@PBD@Z 004016f0 f i ctpmd.obj
 0001:00000790       ??$?HDU?$char_traits@D@std@@V?$allocator@D@1@@std@@YA?AV?$basic_string@DU?$char_traits@D@std@@V?$allocator@D@2@@0@ABV10@PBD@Z 00401790 f i ctpmd.obj
 0001:00000880       ??$?HDU?$char_traits@D@std@@V?$allocator@D@1@@std@@YA?AV?$basic_string@DU?$char_traits@D@std@@V?$allocator@D@2@@0@PBD$$QAV10@@Z 00401880 f i ctpmd.obj
 0001:00000920       ??$?HDU?$char_traits@D@std@@V?$allocator@D@1@@std@@YA?AV?$basic_string@DU?$char_traits@D@std@@V?$allocator@D@2@@0@PBDABV10@@Z 00401920 f i ctpmd.obj
 0001:00000a10       ??$?MDU?$char_traits@D@std@@V?$allocator@D@1@@std@@YA_NABV?$basic_string@DU?$char_traits@D@std@@V?$allocator@D@2@@0@0@Z 00401a10 f i ctpmd.obj
 0001:00000a40       ??$?RD@NoThousandsSep@internal@fmt@@QAEXPAD@Z 00401a40 f i ctpmd.obj
 0001:00000a50       ??$_Advance@PAV?$basic_string@DU?$char_traits@D@std@@V?$allocator@D@2@@std@@H@std@@YAXAAPAV?$basic_string@DU?$char_traits@D@std@@V?$allocator@D@2@@0@HUrandom_access_iterator_tag@0@@Z 00401a50 f i ctpmd.obj
 0001:00000a70       ??$_Allocate@D@std@@YAPADIPAD@Z 00401a70 f i ctpmd.obj
 0001:00000aa0       ??$_Allocate@I@std@@YAPAIIPAI@Z 00401aa0 f i ctpmd.obj
 0001:00000ad0       ??$_Allocate@U?$_Tree_node@U?$pair@$$CBV?$basic_string@DU?$char_traits@D@std@@V?$allocator@D@2@@std@@N@std@@PAX@std@@@std@@YAPAU?$_Tree_node@U?$pair@$$CBV?$basic_string@DU?$char_traits@D@std@@V?$allocator@D@2@@std@@N@std@@PAX@0@IPAU10@@Z 00401ad0 f i ctpmd.obj
 0001:00000b10       ??$_Allocate@U?$_Tree_node@U?$pair@$$CBV?$basic_string@DU?$char_traits@D@std@@V?$allocator@D@2@@std@@V12@@std@@PAX@std@@@std@@YAPAU?$_Tree_node@U?$pair@$$CBV?$basic_string@DU?$char_traits@D@std@@V?$allocator@D@2@@std@@V12@@std@@PAX@0@IPAU10@@Z 00401b10 f i ctpmd.obj
 0001:00000b40       ??$_Allocate@U?$_Tree_node@V?$basic_string@DU?$char_traits@D@std@@V?$allocator@D@2@@std@@PAX@std@@@std@@YAPAU?$_Tree_node@V?$basic_string@DU?$char_traits@D@std@@V?$allocator@D@2@@std@@PAX@0@IPAU10@@Z 00401b40 f i ctpmd.obj
 0001:00000b80       ??$_Allocate@U_Grp_t@?$_Tgt_state_t@PBD@std@@@std@@YAPAU_Grp_t@?$_Tgt_state_t@PBD@0@IPAU120@@Z 00401b80 f i ctpmd.obj
 0001:00000bb0       ??$_Allocate@U_Loop_vals_t@std@@@std@@YAPAU_Loop_vals_t@0@IPAU10@@Z 00401bb0 f i ctpmd.obj
 0001:00000be0       ??$_Allocate@V?$basic_string@DU?$char_traits@D@std@@V?$allocator@D@2@@std@@@std@@YAPAV?$basic_string@DU?$char_traits@D@std@@V?$allocator@D@2@@0@IPAV10@@Z 00401be0 f i ctpmd.obj
 0001:00000c20       ??$_Allocate@V?$sub_match@PBD@std@@@std@@YAPAV?$sub_match@PBD@0@IPAV10@@Z 00401c20 f i ctpmd.obj
 0001:00000c60       ??$_Buynode@AAV?$basic_string@DU?$char_traits@D@std@@V?$allocator@D@2@@std@@@?$_Tree_buy@V?$basic_string@DU?$char_traits@D@std@@V?$allocator@D@2@@std@@V?$allocator@V?$basic_string@DU?$char_traits@D@std@@V?$allocator@D@2@@std@@@2@@std@@QAEPAU?$_Tree_node@V?$basic_string@DU?$char_traits@D@std@@V?$allocator@D@2@@std@@PAX@1@AAV?$basic_string@DU?$char_traits@D@std@@V?$allocator@D@2@@1@@Z 00401c60 f i ctpmd.obj
 0001:00000d00       ??$_Buynode@ABUpiecewise_construct_t@std@@V?$tuple@$$QAV?$basic_string@DU?$char_traits@D@std@@V?$allocator@D@2@@std@@@2@V?$tuple@$$$V@2@@?$_Tree_buy@U?$pair@$$CBV?$basic_string@DU?$char_traits@D@std@@V?$allocator@D@2@@std@@N@std@@V?$allocator@U?$pair@$$CBV?$basic_string@DU?$char_traits@D@std@@V?$allocator@D@2@@std@@N@std@@@2@@std@@QAEPAU?$_Tree_node@U?$pair@$$CBV?$basic_string@DU?$char_traits@D@std@@V?$allocator@D@2@@std@@N@std@@PAX@1@ABUpiecewise_construct_t@1@$$QAV?$tuple@$$QAV?$basic_string@DU?$char_traits@D@std@@V?$allocator@D@2@@std@@@1@$$QAV?$tuple@$$$V@1@@Z 00401d00 f i ctpmd.obj
 0001:00000d40       ??$_Buynode@ABUpiecewise_construct_t@std@@V?$tuple@$$QAV?$basic_string@DU?$char_traits@D@std@@V?$allocator@D@2@@std@@@2@V?$tuple@$$$V@2@@?$_Tree_buy@U?$pair@$$CBV?$basic_string@DU?$char_traits@D@std@@V?$allocator@D@2@@std@@V12@@std@@V?$allocator@U?$pair@$$CBV?$basic_string@DU?$char_traits@D@std@@V?$allocator@D@2@@std@@V12@@std@@@2@@std@@QAEPAU?$_Tree_node@U?$pair@$$CBV?$basic_string@DU?$char_traits@D@std@@V?$allocator@D@2@@std@@V12@@std@@PAX@1@ABUpiecewise_construct_t@1@$$QAV?$tuple@$$QAV?$basic_string@DU?$char_traits@D@std@@V?$allocator@D@2@@std@@@1@$$QAV?$tuple@$$$V@1@@Z 00401d40 f i ctpmd.obj
 0001:00000d90       ??$_Buynode@ABV?$basic_string@DU?$char_traits@D@std@@V?$allocator@D@2@@std@@@?$_Tree_buy@V?$basic_string@DU?$char_traits@D@std@@V?$allocator@D@2@@std@@V?$allocator@V?$basic_string@DU?$char_traits@D@std@@V?$allocator@D@2@@std@@@2@@std@@QAEPAU?$_Tree_node@V?$basic_string@DU?$char_traits@D@std@@V?$allocator@D@2@@std@@PAX@1@ABV?$basic_string@DU?$char_traits@D@std@@V?$allocator@D@2@@1@@Z 00401d90 f i ctpmd.obj
 0001:00000e30       ??$_Buynode_if_nil@AAU?$pair@$$CBV?$basic_string@DU?$char_traits@D@std@@V?$allocator@D@2@@std@@N@std@@@?$_Tree@V?$_Tmap_traits@V?$basic_string@DU?$char_traits@D@std@@V?$allocator@D@2@@std@@NU?$less@V?$basic_string@DU?$char_traits@D@std@@V?$allocator@D@2@@std@@@2@V?$allocator@U?$pair@$$CBV?$basic_string@DU?$char_traits@D@std@@V?$allocator@D@2@@std@@N@std@@@2@$0A@@std@@@std@@IAEPAU?$_Tree_node@U?$pair@$$CBV?$basic_string@DU?$char_traits@D@std@@V?$allocator@D@2@@std@@N@std@@PAX@1@PAU21@AAU?$pair@$$CBV?$basic_string@DU?$char_traits@D@std@@V?$allocator@D@2@@std@@N@1@@Z 00401e30 f i ctpmd.obj
 0001:00000e40       ??$_Buynode_if_nil@AAU?$pair@$$CBV?$basic_string@DU?$char_traits@D@std@@V?$allocator@D@2@@std@@V12@@std@@@?$_Tree@V?$_Tmap_traits@V?$basic_string@DU?$char_traits@D@std@@V?$allocator@D@2@@std@@V12@U?$less@V?$basic_string@DU?$char_traits@D@std@@V?$allocator@D@2@@std@@@2@V?$allocator@U?$pair@$$CBV?$basic_string@DU?$char_traits@D@std@@V?$allocator@D@2@@std@@V12@@std@@@2@$0A@@std@@@std@@IAEPAU?$_Tree_node@U?$pair@$$CBV?$basic_string@DU?$char_traits@D@std@@V?$allocator@D@2@@std@@V12@@std@@PAX@1@PAU21@AAU?$pair@$$CBV?$basic_string@DU?$char_traits@D@std@@V?$allocator@D@2@@std@@V12@@1@@Z 00401e40 f i ctpmd.obj
 0001:00000e50       ??$_Buynode_if_nil@AAV?$basic_string@DU?$char_traits@D@std@@V?$allocator@D@2@@std@@@?$_Tree@V?$_Tset_traits@V?$basic_string@DU?$char_traits@D@std@@V?$allocator@D@2@@std@@U?$less@V?$basic_string@DU?$char_traits@D@std@@V?$allocator@D@2@@std@@@2@V?$allocator@V?$basic_string@DU?$char_traits@D@std@@V?$allocator@D@2@@std@@@2@$0A@@std@@@std@@IAEPAU?$_Tree_node@V?$basic_string@DU?$char_traits@D@std@@V?$allocator@D@2@@std@@PAX@1@PAU21@AAV?$basic_string@DU?$char_traits@D@std@@V?$allocator@D@2@@1@@Z 00401e50 f i ctpmd.obj
 0001:00000e60       ??$_Buynode_if_nil@ABV?$basic_string@DU?$char_traits@D@std@@V?$allocator@D@2@@std@@@?$_Tree@V?$_Tset_traits@V?$basic_string@DU?$char_traits@D@std@@V?$allocator@D@2@@std@@U?$less@V?$basic_string@DU?$char_traits@D@std@@V?$allocator@D@2@@std@@@2@V?$allocator@V?$basic_string@DU?$char_traits@D@std@@V?$allocator@D@2@@std@@@2@$0A@@std@@@std@@IAEPAU?$_Tree_node@V?$basic_string@DU?$char_traits@D@std@@V?$allocator@D@2@@std@@PAX@1@U_Nil@1@ABV?$basic_string@DU?$char_traits@D@std@@V?$allocator@D@2@@1@@Z 00401e60 f i ctpmd.obj
 0001:00000e70       ??$_Cmp_chrange@PBDPBDU?$_Cmp_collate@V?$regex_traits@D@std@@@std@@@std@@YAPBDPBD000U?$_Cmp_collate@V?$regex_traits@D@std@@@0@_N@Z 00401e70 f i ctpmd.obj
 0001:00000ef0       ??$_Cmp_chrange@PBDPBDU?$_Cmp_cs@V?$regex_traits@D@std@@@std@@@std@@YAPBDPBD000U?$_Cmp_cs@V?$regex_traits@D@std@@@0@_N@Z 00401ef0 f i ctpmd.obj
 0001:00000f50       ??$_Cmp_chrange@PBDPBDU?$_Cmp_icase@V?$regex_traits@D@std@@@std@@@std@@YAPBDPBD000U?$_Cmp_icase@V?$regex_traits@D@std@@@0@_N@Z 00401f50 f i ctpmd.obj
 0001:000010a0       ??$_Compare@PBDPBDV?$regex_traits@D@std@@@std@@YAPBDPBD000ABV?$regex_traits@D@0@W4syntax_option_type@regex_constants@0@_N@Z 004020a0 f i ctpmd.obj
 0001:00001110       ??$_Construct@PAD@?$vector@DV?$allocator@D@std@@@std@@QAEXPAD0@Z 00402110 f i ctpmd.obj
 0001:00001130       ??$_Construct@PAD@?$vector@DV?$allocator@D@std@@@std@@QAEXPAD0Uforward_iterator_tag@1@@Z 00402130 f i ctpmd.obj
 0001:00001170       ??$_Construct@PBD@?$vector@DV?$allocator@D@std@@@std@@QAEXPBD0@Z 00402170 f i ctpmd.obj
 0001:00001190       ??$_Construct@PBD@?$vector@DV?$allocator@D@std@@@std@@QAEXPBD0Uforward_iterator_tag@1@@Z 00402190 f i ctpmd.obj
 0001:000011d0       ??$_Construct@V?$_String_iterator@V?$_String_val@U?$_Simple_types@D@std@@@std@@@std@@@?$vector@DV?$allocator@D@std@@@std@@QAEXV?$_String_iterator@V?$_String_val@U?$_Simple_types@D@std@@@std@@@1@0@Z 004021d0 f i ctpmd.obj
 0001:000011f0       ??$_Construct@V?$_String_iterator@V?$_String_val@U?$_Simple_types@D@std@@@std@@@std@@@?$vector@DV?$allocator@D@std@@@std@@QAEXV?$_String_iterator@V?$_String_val@U?$_Simple_types@D@std@@@std@@@1@0Uforward_iterator_tag@1@@Z 004021f0 f i ctpmd.obj
 0001:00001230       ??$_Copy_backward@V?$_Vb_iterator@U?$_Wrap_alloc@V?$allocator@I@std@@@std@@@std@@V12@@std@@YA?AV?$_Vb_iterator@U?$_Wrap_alloc@V?$allocator@I@std@@@std@@@0@V10@00@Z 00402230 f i ctpmd.obj
 0001:00001260       ??$_Copy_backward@V?$_Vb_iterator@U?$_Wrap_alloc@V?$allocator@I@std@@@std@@@std@@V12@@std@@YA?AV?$_Vb_iterator@U?$_Wrap_alloc@V?$allocator@I@std@@@std@@@0@V10@00U_Nonscalar_ptr_iterator_tag@0@@Z 00402260 f i ctpmd.obj
 0001:000012e0       ??$_Copy_impl@PAIPAI@std@@YAPAIPAI00@Z 004022e0 f i ctpmd.obj
 0001:00001310       ??$_Copy_impl@PAIPAI@std@@YAPAIPAI00U_Scalar_ptr_iterator_tag@0@@Z 00402310 f i ctpmd.obj
 0001:00001340       ??$_Copy_impl@PAU_Grp_t@?$_Tgt_state_t@PBD@std@@PAU123@@std@@YAPAU_Grp_t@?$_Tgt_state_t@PBD@0@PAU120@00@Z 00402340 f i ctpmd.obj
 0001:00001370       ??$_Copy_impl@PAU_Grp_t@?$_Tgt_state_t@PBD@std@@PAU123@@std@@YAPAU_Grp_t@?$_Tgt_state_t@PBD@0@PAU120@00U_Nonscalar_ptr_iterator_tag@0@@Z 00402370 f i ctpmd.obj
 0001:000013a0       ??$_Copy_impl@PBDV?$back_insert_iterator@V?$basic_string@DU?$char_traits@D@std@@V?$allocator@D@2@@std@@@std@@@std@@YA?AV?$back_insert_iterator@V?$basic_string@DU?$char_traits@D@std@@V?$allocator@D@2@@std@@@0@PBD0V10@@Z 004023a0 f i ctpmd.obj
 0001:000013c0       ??$_Copy_impl@PBDV?$back_insert_iterator@V?$basic_string@DU?$char_traits@D@std@@V?$allocator@D@2@@std@@@std@@@std@@YA?AV?$back_insert_iterator@V?$basic_string@DU?$char_traits@D@std@@V?$allocator@D@2@@std@@@0@PBD0V10@U_Nonscalar_ptr_iterator_tag@0@@Z 004023c0 f i ctpmd.obj
 0001:00001430       ??$_Copy_impl@V?$_Vb_iterator@U?$_Wrap_alloc@V?$allocator@I@std@@@std@@@std@@V12@@std@@YA?AV?$_Vb_iterator@U?$_Wrap_alloc@V?$allocator@I@std@@@std@@@0@V10@00@Z 00402430 f i ctpmd.obj
 0001:00001460       ??$_Copy_impl@V?$_Vb_iterator@U?$_Wrap_alloc@V?$allocator@I@std@@@std@@@std@@V12@@std@@YA?AV?$_Vb_iterator@U?$_Wrap_alloc@V?$allocator@I@std@@@std@@@0@V10@00U_Nonscalar_ptr_iterator_tag@0@@Z 00402460 f i ctpmd.obj
 0001:000014e0       ??$_Destroy_range@U?$_Wrap_alloc@V?$allocator@D@std@@@std@@@std@@YAXPAD0AAU?$_Wrap_alloc@V?$allocator@D@std@@@0@@Z 004024e0 f i ctpmd.obj
 0001:000014f0       ??$_Destroy_range@U?$_Wrap_alloc@V?$allocator@D@std@@@std@@@std@@YAXPAD0AAU?$_Wrap_alloc@V?$allocator@D@std@@@0@U_Scalar_ptr_iterator_tag@0@@Z 004024f0 f i ctpmd.obj
 0001:00001500       ??$_Destroy_range@U?$_Wrap_alloc@V?$allocator@I@std@@@std@@@std@@YAXPAI0AAU?$_Wrap_alloc@V?$allocator@I@std@@@0@@Z 00402500 f i ctpmd.obj
 0001:00001510       ??$_Destroy_range@U?$_Wrap_alloc@V?$allocator@I@std@@@std@@@std@@YAXPAI0AAU?$_Wrap_alloc@V?$allocator@I@std@@@0@U_Scalar_ptr_iterator_tag@0@@Z 00402510 f i ctpmd.obj
 0001:00001520       ??$_Destroy_range@U?$_Wrap_alloc@V?$allocator@U_Grp_t@?$_Tgt_state_t@PBD@std@@@std@@@std@@@std@@YAXPAU_Grp_t@?$_Tgt_state_t@PBD@0@0AAU?$_Wrap_alloc@V?$allocator@U_Grp_t@?$_Tgt_state_t@PBD@std@@@std@@@0@@Z 00402520 f i ctpmd.obj
 0001:00001530       ??$_Destroy_range@U?$_Wrap_alloc@V?$allocator@U_Grp_t@?$_Tgt_state_t@PBD@std@@@std@@@std@@@std@@YAXPAU_Grp_t@?$_Tgt_state_t@PBD@0@0AAU?$_Wrap_alloc@V?$allocator@U_Grp_t@?$_Tgt_state_t@PBD@std@@@std@@@0@U_Nonscalar_ptr_iterator_tag@0@@Z 00402530 f i ctpmd.obj
 0001:00001540       ??$_Destroy_range@U?$_Wrap_alloc@V?$allocator@U_Loop_vals_t@std@@@std@@@std@@@std@@YAXPAU_Loop_vals_t@0@0AAU?$_Wrap_alloc@V?$allocator@U_Loop_vals_t@std@@@std@@@0@@Z 00402540 f i ctpmd.obj
 0001:00001550       ??$_Destroy_range@U?$_Wrap_alloc@V?$allocator@U_Loop_vals_t@std@@@std@@@std@@@std@@YAXPAU_Loop_vals_t@0@0AAU?$_Wrap_alloc@V?$allocator@U_Loop_vals_t@std@@@std@@@0@U_Nonscalar_ptr_iterator_tag@0@@Z 00402550 f i ctpmd.obj
 0001:00001560       ??$_Destroy_range@U?$_Wrap_alloc@V?$allocator@V?$basic_string@DU?$char_traits@D@std@@V?$allocator@D@2@@std@@@std@@@std@@@std@@YAXPAV?$basic_string@DU?$char_traits@D@std@@V?$allocator@D@2@@0@0AAU?$_Wrap_alloc@V?$allocator@V?$basic_string@DU?$char_traits@D@std@@V?$allocator@D@2@@std@@@std@@@0@@Z 00402560 f i ctpmd.obj
 0001:00001580       ??$_Destroy_range@U?$_Wrap_alloc@V?$allocator@V?$basic_string@DU?$char_traits@D@std@@V?$allocator@D@2@@std@@@std@@@std@@@std@@YAXPAV?$basic_string@DU?$char_traits@D@std@@V?$allocator@D@2@@0@0AAU?$_Wrap_alloc@V?$allocator@V?$basic_string@DU?$char_traits@D@std@@V?$allocator@D@2@@std@@@std@@@0@U_Nonscalar_ptr_iterator_tag@0@@Z 00402580 f i ctpmd.obj
 0001:000015c0       ??$_Destroy_range@U?$_Wrap_alloc@V?$allocator@V?$sub_match@PBD@std@@@std@@@std@@@std@@YAXPAV?$sub_match@PBD@0@0AAU?$_Wrap_alloc@V?$allocator@V?$sub_match@PBD@std@@@std@@@0@@Z 004025c0 f i ctpmd.obj
 0001:000015d0       ??$_Destroy_range@U?$_Wrap_alloc@V?$allocator@V?$sub_match@PBD@std@@@std@@@std@@@std@@YAXPAV?$sub_match@PBD@0@0AAU?$_Wrap_alloc@V?$allocator@V?$sub_match@PBD@std@@@std@@@0@U_Nonscalar_ptr_iterator_tag@0@@Z 004025d0 f i ctpmd.obj
 0001:000015e0       ??$_Dist_type@PAV?$basic_string@DU?$char_traits@D@std@@V?$allocator@D@2@@std@@@std@@YAPAHPAV?$basic_string@DU?$char_traits@D@std@@V?$allocator@D@2@@0@@Z 004025e0 f i ctpmd.obj
 0001:000015f0       ??$_Distance2@PADH@std@@YAXPAD0AAHUrandom_access_iterator_tag@0@@Z 004025f0 f i ctpmd.obj
 0001:00001600       ??$_Distance2@PAV?$basic_string@DU?$char_traits@D@std@@V?$allocator@D@2@@std@@H@std@@YAXPAV?$basic_string@DU?$char_traits@D@std@@V?$allocator@D@2@@0@0AAHUrandom_access_iterator_tag@0@@Z 00402600 f i ctpmd.obj
 0001:00001630       ??$_Distance2@PBDH@std@@YAXPBD0AAHUrandom_access_iterator_tag@0@@Z 00402630 f i ctpmd.obj
 0001:00001640       ??$_Distance2@PBV?$basic_string@DU?$char_traits@D@std@@V?$allocator@D@2@@std@@I@std@@YAXPBV?$basic_string@DU?$char_traits@D@std@@V?$allocator@D@2@@0@0AAIUrandom_access_iterator_tag@0@@Z 00402640 f i ctpmd.obj
 0001:00001670       ??$_Distance2@V?$_String_iterator@V?$_String_val@U?$_Simple_types@D@std@@@std@@@std@@H@std@@YAXV?$_String_iterator@V?$_String_val@U?$_Simple_types@D@std@@@std@@@0@0AAHUrandom_access_iterator_tag@0@@Z 00402670 f i ctpmd.obj
 0001:00001680       ??$_Distance@PBV?$basic_string@DU?$char_traits@D@std@@V?$allocator@D@2@@std@@I@std@@YAXPBV?$basic_string@DU?$char_traits@D@std@@V?$allocator@D@2@@0@0AAI@Z 00402680 f i ctpmd.obj
 0001:000016b0       ??$_Fgetc@D@std@@YA_NAADPAU_iobuf@@@Z 004026b0 f i ctpmd.obj
 0001:000016e0       ??$_Fill@V?$_Vb_iterator@U?$_Wrap_alloc@V?$allocator@I@std@@@std@@@std@@_N@std@@YAXV?$_Vb_iterator@U?$_Wrap_alloc@V?$allocator@I@std@@@std@@@0@0AB_N@Z 004026e0 f i ctpmd.obj
 0001:00001730       ??$_Fill_n@PAIII@std@@YAPAIPAIIABI@Z 00402730 f i ctpmd.obj
 0001:00001750       ??$_Find@PBDD@std@@YAPBDPBD0ABD@Z 00402750 f i ctpmd.obj
 0001:00001790       ??$_Find@PBDD@std@@YAPBDPBD0ABDU?$integral_constant@_N$00@0@@Z 00402790 f i ctpmd.obj
 0001:000017d0       ??$_Format@V?$back_insert_iterator@V?$basic_string@DU?$char_traits@D@std@@V?$allocator@D@2@@std@@@std@@@?$match_results@PBDV?$allocator@V?$sub_match@PBD@std@@@std@@@std@@QBE?AV?$back_insert_iterator@V?$basic_string@DU?$char_traits@D@std@@V?$allocator@D@2@@std@@@1@V21@PBD1W4match_flag_type@regex_constants@1@@Z 004027d0 f i ctpmd.obj
 0001:00001820       ??$_Format_default@PBDV?$allocator@V?$sub_match@PBD@std@@@std@@PBDV?$back_insert_iterator@V?$basic_string@DU?$char_traits@D@std@@V?$allocator@D@2@@std@@@2@@std@@YA?AV?$back_insert_iterator@V?$basic_string@DU?$char_traits@D@std@@V?$allocator@D@2@@std@@@0@ABV?$match_results@PBDV?$allocator@V?$sub_match@PBD@std@@@std@@@0@V10@PBD2W4match_flag_type@regex_constants@0@@Z 00402820 f i ctpmd.obj
 0001:00001a20       ??$_Format_sed@PBDV?$allocator@V?$sub_match@PBD@std@@@std@@PBDV?$back_insert_iterator@V?$basic_string@DU?$char_traits@D@std@@V?$allocator@D@2@@std@@@2@@std@@YA?AV?$back_insert_iterator@V?$basic_string@DU?$char_traits@D@std@@V?$allocator@D@2@@std@@@0@ABV?$match_results@PBDV?$allocator@V?$sub_match@PBD@std@@@std@@@0@V10@PBD2W4match_flag_type@regex_constants@0@@Z 00402a20 f i ctpmd.obj
 0001:00001b90       ??$_Fputc@D@std@@YA_NDPAU_iobuf@@@Z 00402b90 f i ctpmd.obj
 0001:00001bb0       ??$_Insert@PBD@?$_Buf@D@std@@QAEXPBD0@Z 00402bb0 f i ctpmd.obj
 0001:00001c10       ??$_Insert@PBV?$basic_string@DU?$char_traits@D@std@@V?$allocator@D@2@@std@@@?$vector@V?$basic_string@DU?$char_traits@D@std@@V?$allocator@D@2@@std@@V?$allocator@V?$basic_string@DU?$char_traits@D@std@@V?$allocator@D@2@@std@@@2@@std@@QAEXV?$_Vector_const_iterator@V?$_Vector_val@U?$_Simple_types@V?$basic_string@DU?$char_traits@D@std@@V?$allocator@D@2@@std@@@std@@@std@@@1@PBV?$basic_string@DU?$char_traits@D@std@@V?$allocator@D@2@@1@1Uforward_iterator_tag@1@@Z 00402c10 f i ctpmd.obj
 0001:00001df0       ??$_Insert_at@AAU?$pair@$$CBV?$basic_string@DU?$char_traits@D@std@@V?$allocator@D@2@@std@@N@std@@PAU?$_Tree_node@U?$pair@$$CBV?$basic_string@DU?$char_traits@D@std@@V?$allocator@D@2@@std@@N@std@@PAX@2@@?$_Tree@V?$_Tmap_traits@V?$basic_string@DU?$char_traits@D@std@@V?$allocator@D@2@@std@@NU?$less@V?$basic_string@DU?$char_traits@D@std@@V?$allocator@D@2@@std@@@2@V?$allocator@U?$pair@$$CBV?$basic_string@DU?$char_traits@D@std@@V?$allocator@D@2@@std@@N@std@@@2@$0A@@std@@@std@@IAE?AV?$_Tree_iterator@V?$_Tree_val@U?$_Tree_simple_types@U?$pair@$$CBV?$basic_string@DU?$char_traits@D@std@@V?$allocator@D@2@@std@@N@std@@@std@@@std@@@1@_NPAU?$_Tree_node@U?$pair@$$CBV?$basic_string@DU?$char_traits@D@std@@V?$allocator@D@2@@std@@N@std@@PAX@1@AAU?$pair@$$CBV?$basic_string@DU?$char_traits@D@std@@V?$allocator@D@2@@std@@N@1@1@Z 00402df0 f i ctpmd.obj
 0001:00002020       ??$_Insert_at@AAU?$pair@$$CBV?$basic_string@DU?$char_traits@D@std@@V?$allocator@D@2@@std@@V12@@std@@PAU?$_Tree_node@U?$pair@$$CBV?$basic_string@DU?$char_traits@D@std@@V?$allocator@D@2@@std@@V12@@std@@PAX@2@@?$_Tree@V?$_Tmap_traits@V?$basic_string@DU?$char_traits@D@std@@V?$allocator@D@2@@std@@V12@U?$less@V?$basic_string@DU?$char_traits@D@std@@V?$allocator@D@2@@std@@@2@V?$allocator@U?$pair@$$CBV?$basic_string@DU?$char_traits@D@std@@V?$allocator@D@2@@std@@V12@@std@@@2@$0A@@std@@@std@@IAE?AV?$_Tree_iterator@V?$_Tree_val@U?$_Tree_simple_types@U?$pair@$$CBV?$basic_string@DU?$char_traits@D@std@@V?$allocator@D@2@@std@@V12@@std@@@std@@@std@@@1@_NPAU?$_Tree_node@U?$pair@$$CBV?$basic_string@DU?$char_traits@D@std@@V?$allocator@D@2@@std@@V12@@std@@PAX@1@AAU?$pair@$$CBV?$basic_string@DU?$char_traits@D@std@@V?$allocator@D@2@@std@@V12@@1@1@Z 00403020 f i ctpmd.obj
 0001:00002230       ??$_Insert_at@AAV?$basic_string@DU?$char_traits@D@std@@V?$allocator@D@2@@std@@PAU?$_Tree_node@V?$basic_string@DU?$char_traits@D@std@@V?$allocator@D@2@@std@@PAX@2@@?$_Tree@V?$_Tset_traits@V?$basic_string@DU?$char_traits@D@std@@V?$allocator@D@2@@std@@U?$less@V?$basic_string@DU?$char_traits@D@std@@V?$allocator@D@2@@std@@@2@V?$allocator@V?$basic_string@DU?$char_traits@D@std@@V?$allocator@D@2@@std@@@2@$0A@@std@@@std@@IAE?AV?$_Tree_const_iterator@V?$_Tree_val@U?$_Tree_simple_types@V?$basic_string@DU?$char_traits@D@std@@V?$allocator@D@2@@std@@@std@@@std@@@1@_NPAU?$_Tree_node@V?$basic_string@DU?$char_traits@D@std@@V?$allocator@D@2@@std@@PAX@1@AAV?$basic_string@DU?$char_traits@D@std@@V?$allocator@D@2@@1@1@Z 00403230 f i ctpmd.obj
 0001:00002460       ??$_Insert_at@ABV?$basic_string@DU?$char_traits@D@std@@V?$allocator@D@2@@std@@U_Nil@2@@?$_Tree@V?$_Tset_traits@V?$basic_string@DU?$char_traits@D@std@@V?$allocator@D@2@@std@@U?$less@V?$basic_string@DU?$char_traits@D@std@@V?$allocator@D@2@@std@@@2@V?$allocator@V?$basic_string@DU?$char_traits@D@std@@V?$allocator@D@2@@std@@@2@$0A@@std@@@std@@IAE?AV?$_Tree_const_iterator@V?$_Tree_val@U?$_Tree_simple_types@V?$basic_string@DU?$char_traits@D@std@@V?$allocator@D@2@@std@@@std@@@std@@@1@_NPAU?$_Tree_node@V?$basic_string@DU?$char_traits@D@std@@V?$allocator@D@2@@std@@PAX@1@ABV?$basic_string@DU?$char_traits@D@std@@V?$allocator@D@2@@1@U_Nil@1@@Z 00403460 f i ctpmd.obj
 0001:00002660       ??$_Insert_hint@AAU?$pair@$$CBV?$basic_string@DU?$char_traits@D@std@@V?$allocator@D@2@@std@@N@std@@PAU?$_Tree_node@U?$pair@$$CBV?$basic_string@DU?$char_traits@D@std@@V?$allocator@D@2@@std@@N@std@@PAX@2@@?$_Tree@V?$_Tmap_traits@V?$basic_string@DU?$char_traits@D@std@@V?$allocator@D@2@@std@@NU?$less@V?$basic_string@DU?$char_traits@D@std@@V?$allocator@D@2@@std@@@2@V?$allocator@U?$pair@$$CBV?$basic_string@DU?$char_traits@D@std@@V?$allocator@D@2@@std@@N@std@@@2@$0A@@std@@@std@@IAE?AV?$_Tree_iterator@V?$_Tree_val@U?$_Tree_simple_types@U?$pair@$$CBV?$basic_string@DU?$char_traits@D@std@@V?$allocator@D@2@@std@@N@std@@@std@@@std@@@1@V?$_Tree_const_iterator@V?$_Tree_val@U?$_Tree_simple_types@U?$pair@$$CBV?$basic_string@DU?$char_traits@D@std@@V?$allocator@D@2@@std@@N@std@@@std@@@std@@@1@AAU?$pair@$$CBV?$basic_string@DU?$char_traits@D@std@@V?$allocator@D@2@@std@@N@1@PAU?$_Tree_node@U?$pair@$$CBV?$basic_string@DU?$char_traits@D@std@@V?$allocator@D@2@@std@@N@std@@PAX@1@@Z 00403660 f i ctpmd.obj
 0001:00002850       ??$_Insert_hint@AAU?$pair@$$CBV?$basic_string@DU?$char_traits@D@std@@V?$allocator@D@2@@std@@V12@@std@@PAU?$_Tree_node@U?$pair@$$CBV?$basic_string@DU?$char_traits@D@std@@V?$allocator@D@2@@std@@V12@@std@@PAX@2@@?$_Tree@V?$_Tmap_traits@V?$basic_string@DU?$char_traits@D@std@@V?$allocator@D@2@@std@@V12@U?$less@V?$basic_string@DU?$char_traits@D@std@@V?$allocator@D@2@@std@@@2@V?$allocator@U?$pair@$$CBV?$basic_string@DU?$char_traits@D@std@@V?$allocator@D@2@@std@@V12@@std@@@2@$0A@@std@@@std@@IAE?AV?$_Tree_iterator@V?$_Tree_val@U?$_Tree_simple_types@U?$pair@$$CBV?$basic_string@DU?$char_traits@D@std@@V?$allocator@D@2@@std@@V12@@std@@@std@@@std@@@1@V?$_Tree_const_iterator@V?$_Tree_val@U?$_Tree_simple_types@U?$pair@$$CBV?$basic_string@DU?$char_traits@D@std@@V?$allocator@D@2@@std@@V12@@std@@@std@@@std@@@1@AAU?$pair@$$CBV?$basic_string@DU?$char_traits@D@std@@V?$allocator@D@2@@std@@V12@@1@PAU?$_Tree_node@U?$pair@$$CBV?$basic_string@DU?$char_traits@D@std@@V?$allocator@D@2@@std@@V12@@std@@PAX@1@@Z 00403850 f i ctpmd.obj
 0001:00002a40       ??$_Insert_nohint@AAU?$pair@$$CBV?$basic_string@DU?$char_traits@D@std@@V?$allocator@D@2@@std@@N@std@@PAU?$_Tree_node@U?$pair@$$CBV?$basic_string@DU?$char_traits@D@std@@V?$allocator@D@2@@std@@N@std@@PAX@2@@?$_Tree@V?$_Tmap_traits@V?$basic_string@DU?$char_traits@D@std@@V?$allocator@D@2@@std@@NU?$less@V?$basic_string@DU?$char_traits@D@std@@V?$allocator@D@2@@std@@@2@V?$allocator@U?$pair@$$CBV?$basic_string@DU?$char_traits@D@std@@V?$allocator@D@2@@std@@N@std@@@2@$0A@@std@@@std@@IAE?AU?$pair@V?$_Tree_iterator@V?$_Tree_val@U?$_Tree_simple_types@U?$pair@$$CBV?$basic_string@DU?$char_traits@D@std@@V?$allocator@D@2@@std@@N@std@@@std@@@std@@@std@@_N@1@_NAAU?$pair@$$CBV?$basic_string@DU?$char_traits@D@std@@V?$allocator@D@2@@std@@N@1@PAU?$_Tree_node@U?$pair@$$CBV?$basic_string@DU?$char_traits@D@std@@V?$allocator@D@2@@std@@N@std@@PAX@1@@Z 00403a40 f i ctpmd.obj
 0001:00002cd0       ??$_Insert_nohint@AAU?$pair@$$CBV?$basic_string@DU?$char_traits@D@std@@V?$allocator@D@2@@std@@V12@@std@@PAU?$_Tree_node@U?$pair@$$CBV?$basic_string@DU?$char_traits@D@std@@V?$allocator@D@2@@std@@V12@@std@@PAX@2@@?$_Tree@V?$_Tmap_traits@V?$basic_string@DU?$char_traits@D@std@@V?$allocator@D@2@@std@@V12@U?$less@V?$basic_string@DU?$char_traits@D@std@@V?$allocator@D@2@@std@@@2@V?$allocator@U?$pair@$$CBV?$basic_string@DU?$char_traits@D@std@@V?$allocator@D@2@@std@@V12@@std@@@2@$0A@@std@@@std@@IAE?AU?$pair@V?$_Tree_iterator@V?$_Tree_val@U?$_Tree_simple_types@U?$pair@$$CBV?$basic_string@DU?$char_traits@D@std@@V?$allocator@D@2@@std@@V12@@std@@@std@@@std@@@std@@_N@1@_NAAU?$pair@$$CBV?$basic_string@DU?$char_traits@D@std@@V?$allocator@D@2@@std@@V12@@1@PAU?$_Tree_node@U?$pair@$$CBV?$basic_string@DU?$char_traits@D@std@@V?$allocator@D@2@@std@@V12@@std@@PAX@1@@Z 00403cd0 f i ctpmd.obj
 0001:00002f40       ??$_Insert_nohint@AAV?$basic_string@DU?$char_traits@D@std@@V?$allocator@D@2@@std@@PAU?$_Tree_node@V?$basic_string@DU?$char_traits@D@std@@V?$allocator@D@2@@std@@PAX@2@@?$_Tree@V?$_Tset_traits@V?$basic_string@DU?$char_traits@D@std@@V?$allocator@D@2@@std@@U?$less@V?$basic_string@DU?$char_traits@D@std@@V?$allocator@D@2@@std@@@2@V?$allocator@V?$basic_string@DU?$char_traits@D@std@@V?$allocator@D@2@@std@@@2@$0A@@std@@@std@@IAE?AU?$pair@V?$_Tree_const_iterator@V?$_Tree_val@U?$_Tree_simple_types@V?$basic_string@DU?$char_traits@D@std@@V?$allocator@D@2@@std@@@std@@@std@@@std@@_N@1@_NAAV?$basic_string@DU?$char_traits@D@std@@V?$allocator@D@2@@1@PAU?$_Tree_node@V?$basic_string@DU?$char_traits@D@std@@V?$allocator@D@2@@std@@PAX@1@@Z 00403f40 f i ctpmd.obj
 0001:000031d0       ??$_Insert_nohint@ABV?$basic_string@DU?$char_traits@D@std@@V?$allocator@D@2@@std@@U_Nil@2@@?$_Tree@V?$_Tset_traits@V?$basic_string@DU?$char_traits@D@std@@V?$allocator@D@2@@std@@U?$less@V?$basic_string@DU?$char_traits@D@std@@V?$allocator@D@2@@std@@@2@V?$allocator@V?$basic_string@DU?$char_traits@D@std@@V?$allocator@D@2@@std@@@2@$0A@@std@@@std@@IAE?AU?$pair@V?$_Tree_const_iterator@V?$_Tree_val@U?$_Tree_simple_types@V?$basic_string@DU?$char_traits@D@std@@V?$allocator@D@2@@std@@@std@@@std@@@std@@_N@1@_NABV?$basic_string@DU?$char_traits@D@std@@V?$allocator@D@2@@1@U_Nil@1@@Z 004041d0 f i ctpmd.obj
 0001:00003430       ??$_Iter_cat@PAD@std@@YA?AUrandom_access_iterator_tag@0@ABQAD@Z 00404430 f i ctpmd.obj
 0001:00003440       ??$_Iter_cat@PAV?$basic_string@DU?$char_traits@D@std@@V?$allocator@D@2@@std@@@std@@YA?AUrandom_access_iterator_tag@0@ABQAV?$basic_string@DU?$char_traits@D@std@@V?$allocator@D@2@@0@@Z 00404440 f i ctpmd.obj
 0001:00003450       ??$_Iter_cat@PBD@std@@YA?AUrandom_access_iterator_tag@0@ABQBD@Z 00404450 f i ctpmd.obj
 0001:00003460       ??$_Iter_cat@PBV?$basic_string@DU?$char_traits@D@std@@V?$allocator@D@2@@std@@@std@@YA?AUrandom_access_iterator_tag@0@ABQBV?$basic_string@DU?$char_traits@D@std@@V?$allocator@D@2@@0@@Z 00404460 f i ctpmd.obj
 0001:00003470       ??$_Iter_cat@V?$_String_iterator@V?$_String_val@U?$_Simple_types@D@std@@@std@@@std@@@std@@YA?AUrandom_access_iterator_tag@0@ABV?$_String_iterator@V?$_String_val@U?$_Simple_types@D@std@@@std@@@0@@Z 00404470 f i ctpmd.obj
 0001:00003480       ??$_Kfn@$$CBV?$basic_string@DU?$char_traits@D@std@@V?$allocator@D@2@@std@@N@?$_Tmap_traits@V?$basic_string@DU?$char_traits@D@std@@V?$allocator@D@2@@std@@NU?$less@V?$basic_string@DU?$char_traits@D@std@@V?$allocator@D@2@@std@@@2@V?$allocator@U?$pair@$$CBV?$basic_string@DU?$char_traits@D@std@@V?$allocator@D@2@@std@@N@std@@@2@$0A@@std@@SAABV?$basic_string@DU?$char_traits@D@std@@V?$allocator@D@2@@1@ABU?$pair@$$CBV?$basic_string@DU?$char_traits@D@std@@V?$allocator@D@2@@std@@N@1@@Z 00404480 f i ctpmd.obj
 0001:00003490       ??$_Kfn@$$CBV?$basic_string@DU?$char_traits@D@std@@V?$allocator@D@2@@std@@V12@@?$_Tmap_traits@V?$basic_string@DU?$char_traits@D@std@@V?$allocator@D@2@@std@@V12@U?$less@V?$basic_string@DU?$char_traits@D@std@@V?$allocator@D@2@@std@@@2@V?$allocator@U?$pair@$$CBV?$basic_string@DU?$char_traits@D@std@@V?$allocator@D@2@@std@@V12@@std@@@2@$0A@@std@@SAABV?$basic_string@DU?$char_traits@D@std@@V?$allocator@D@2@@1@ABU?$pair@$$CBV?$basic_string@DU?$char_traits@D@std@@V?$allocator@D@2@@std@@V12@@1@@Z 00404490 f i ctpmd.obj
 0001:000034a0       ??$_LStrcoll@D@std@@YAHPBD000PBU_Collvec@@@Z 004044a0 f i ctpmd.obj
 0001:000034b0       ??$_LStrxfrm@D@std@@YAIPAD0PBD1PBU_Collvec@@@Z 004044b0 f i ctpmd.obj
 0001:000034c0       ??$_Lookup_coll@PBDD@std@@YAPBDPBD0PBU?$_Sequence@D@0@@Z 004044c0 f i ctpmd.obj
 0001:00003530       ??$_Lookup_equiv@DV?$regex_traits@D@std@@@std@@YA_NDPBU?$_Sequence@D@0@ABV?$regex_traits@D@0@@Z 00404530 f i ctpmd.obj
 0001:000037e0       ??$_Lookup_range@D@std@@YA_NDPBU?$_Buf@D@0@@Z 004047e0 f i ctpmd.obj
 0001:00003820       ??$_Match@V?$allocator@V?$sub_match@PBD@std@@@std@@@?$_Matcher@PBDDV?$regex_traits@D@std@@PBD@std@@QAE_NPAV?$match_results@PBDV?$allocator@V?$sub_match@PBD@std@@@std@@@1@_N@Z 00404820 f i ctpmd.obj
 0001:00003970       ??$_Match@V?$allocator@V?$sub_match@PBD@std@@@std@@@?$_Matcher@PBDDV?$regex_traits@D@std@@PBD@std@@QAE_NPBDPAV?$match_results@PBDV?$allocator@V?$sub_match@PBD@std@@@std@@@1@_N@Z 00404970 f i ctpmd.obj
 0001:00003990       ??$_Move@AAD@std@@YA$$QADAAD@Z 00404990 f i ctpmd.obj
 0001:000039a0       ??$_Move@AAI@std@@YA$$QAIAAI@Z 004049a0 f i ctpmd.obj
 0001:000039b0       ??$_Move@AAPAD@std@@YA$$QAPADAAPAD@Z 004049b0 f i ctpmd.obj
 0001:000039c0       ??$_Move@AAPAVEvent_Log@@@std@@YA$$QAPAVEvent_Log@@AAPAV1@@Z 004049c0 f i ctpmd.obj
 0001:000039d0       ??$_Move@AAPAVEvent_Tick@@@std@@YA$$QAPAVEvent_Tick@@AAPAV1@@Z 004049d0 f i ctpmd.obj
 0001:000039e0       ??$_Move@AAPAV_Ref_count_base@std@@@std@@YA$$QAPAV_Ref_count_base@0@AAPAV10@@Z 004049e0 f i ctpmd.obj
 0001:000039f0       ??$_Move@AAT_Bxty@?$_String_val@U?$_Simple_types@D@std@@@std@@@std@@YA$$QAT_Bxty@?$_String_val@U?$_Simple_types@D@std@@@0@AAT120@@Z 004049f0 f i ctpmd.obj
 0001:00003a00       ??$_Move@PAIPAI@std@@YAPAIPAI00@Z 00404a00 f i ctpmd.obj
 0001:00003a30       ??$_Move@PAIPAI@std@@YAPAIPAI00U_Scalar_ptr_iterator_tag@0@@Z 00404a30 f i ctpmd.obj
 0001:00003a60       ??$_Ptr_cat@DD@std@@YA?AU_Scalar_ptr_iterator_tag@0@PAD0@Z 00404a60 f i ctpmd.obj
 0001:00003a70       ??$_Ptr_cat@DD@std@@YA?AU_Scalar_ptr_iterator_tag@0@PBDPAD@Z 00404a70 f i ctpmd.obj
 0001:00003a80       ??$_Ptr_cat@II@std@@YA?AU_Scalar_ptr_iterator_tag@0@PAI0@Z 00404a80 f i ctpmd.obj
 0001:00003a90       ??$_Ptr_cat@II@std@@YA?AU_Scalar_ptr_iterator_tag@0@PBIPAI@Z 00404a90 f i ctpmd.obj
 0001:00003aa0       ??$_Ptr_cat@PBDV?$back_insert_iterator@V?$basic_string@DU?$char_traits@D@std@@V?$allocator@D@2@@std@@@std@@@std@@YA?AU_Nonscalar_ptr_iterator_tag@0@AAPBDAAV?$back_insert_iterator@V?$basic_string@DU?$char_traits@D@std@@V?$allocator@D@2@@std@@@0@@Z 00404aa0 f i ctpmd.obj
 0001:00003ab0       ??$_Ptr_cat@U_Grp_t@?$_Tgt_state_t@PBD@std@@U123@@std@@YA?AU_Nonscalar_ptr_iterator_tag@0@PAU_Grp_t@?$_Tgt_state_t@PBD@0@0@Z 00404ab0 f i ctpmd.obj
 0001:00003ac0       ??$_Ptr_cat@U_Grp_t@?$_Tgt_state_t@PBD@std@@U123@@std@@YA?AU_Nonscalar_ptr_iterator_tag@0@PBU_Grp_t@?$_Tgt_state_t@PBD@0@PAU230@@Z 00404ac0 f i ctpmd.obj
 0001:00003ad0       ??$_Ptr_cat@U_Loop_vals_t@std@@U12@@std@@YA?AU_Nonscalar_ptr_iterator_tag@0@PAU_Loop_vals_t@0@0@Z 00404ad0 f i ctpmd.obj
 0001:00003ae0       ??$_Ptr_cat@V?$_Vb_iterator@U?$_Wrap_alloc@V?$allocator@I@std@@@std@@@std@@V12@@std@@YA?AU_Nonscalar_ptr_iterator_tag@0@AAV?$_Vb_iterator@U?$_Wrap_alloc@V?$allocator@I@std@@@std@@@0@0@Z 00404ae0 f i ctpmd.obj
 0001:00003af0       ??$_Ptr_cat@V?$basic_string@DU?$char_traits@D@std@@V?$allocator@D@2@@std@@V12@@std@@YA?AU_Nonscalar_ptr_iterator_tag@0@PAV?$basic_string@DU?$char_traits@D@std@@V?$allocator@D@2@@0@0@Z 00404af0 f i ctpmd.obj
 0001:00003b00       ??$_Ptr_cat@V?$basic_string@DU?$char_traits@D@std@@V?$allocator@D@2@@std@@V12@@std@@YA?AU_Nonscalar_ptr_iterator_tag@0@PBV?$basic_string@DU?$char_traits@D@std@@V?$allocator@D@2@@0@PAV20@@Z 00404b00 f i ctpmd.obj
 0001:00003b10       ??$_Ptr_cat@V?$sub_match@PBD@std@@V12@@std@@YA?AU_Nonscalar_ptr_iterator_tag@0@PAV?$sub_match@PBD@0@0@Z 00404b10 f i ctpmd.obj
 0001:00003b20       ??$_Rechecked@PADPAD@std@@YAAAPADAAPADPAD@Z 00404b20 f i ctpmd.obj
 0001:00003b30       ??$_Rechecked@PAIPAI@std@@YAAAPAIAAPAIPAI@Z 00404b30 f i ctpmd.obj
 0001:00003b40       ??$_Rechecked@PAU_Grp_t@?$_Tgt_state_t@PBD@std@@PAU123@@std@@YAAAPAU_Grp_t@?$_Tgt_state_t@PBD@0@AAPAU120@PAU120@@Z 00404b40 f i ctpmd.obj
 0001:00003b50       ??$_Rechecked@PAU_Loop_vals_t@std@@PAU12@@std@@YAAAPAU_Loop_vals_t@0@AAPAU10@PAU10@@Z 00404b50 f i ctpmd.obj
 0001:00003b60       ??$_Rechecked@PAV?$basic_string@DU?$char_traits@D@std@@V?$allocator@D@2@@std@@PAV12@@std@@YAAAPAV?$basic_string@DU?$char_traits@D@std@@V?$allocator@D@2@@0@AAPAV10@PAV10@@Z 00404b60 f i ctpmd.obj
 0001:00003b70       ??$_Rechecked@PAV?$sub_match@PBD@std@@PAV12@@std@@YAAAPAV?$sub_match@PBD@0@AAPAV10@PAV10@@Z 00404b70 f i ctpmd.obj
 0001:00003b80       ??$_Rechecked@PBDPBD@std@@YAAAPBDAAPBDPBD@Z 00404b80 f i ctpmd.obj
 0001:00003b90       ??$_Rechecked@V?$_Vb_iterator@U?$_Wrap_alloc@V?$allocator@I@std@@@std@@@std@@V12@@std@@YAAAV?$_Vb_iterator@U?$_Wrap_alloc@V?$allocator@I@std@@@std@@@0@AAV10@V10@@Z 00404b90 f i ctpmd.obj
 0001:00003bb0       ??$_Rechecked@V?$back_insert_iterator@V?$basic_string@DU?$char_traits@D@std@@V?$allocator@D@2@@std@@@std@@V12@@std@@YAAAV?$back_insert_iterator@V?$basic_string@DU?$char_traits@D@std@@V?$allocator@D@2@@std@@@0@AAV10@V10@@Z 00404bb0 f i ctpmd.obj
 0001:00003bc0       ??$_Regex_replace@V?$back_insert_iterator@V?$basic_string@DU?$char_traits@D@std@@V?$allocator@D@2@@std@@@std@@PBDV?$regex_traits@D@2@DU?$char_traits@D@2@V?$allocator@D@2@@std@@YA?AV?$back_insert_iterator@V?$basic_string@DU?$char_traits@D@std@@V?$allocator@D@2@@std@@@0@V10@PBD1ABV?$basic_regex@DV?$regex_traits@D@std@@@0@ABV?$basic_string@DU?$char_traits@D@std@@V?$allocator@D@2@@0@W4match_flag_type@regex_constants@0@@Z 00404bc0 f i ctpmd.obj
 0001:00003db0       ??$_Regex_search@PBDV?$allocator@V?$sub_match@PBD@std@@@std@@DV?$regex_traits@D@2@PBD@std@@YA_NPBD0PAV?$match_results@PBDV?$allocator@V?$sub_match@PBD@std@@@std@@@0@ABV?$basic_regex@DV?$regex_traits@D@std@@@0@W4match_flag_type@regex_constants@0@0@Z 00404db0 f i ctpmd.obj
 0001:00003ef0       ??$_Reset@PBD@?$basic_regex@DV?$regex_traits@D@std@@@std@@AAEXPBD0W4syntax_option_type@regex_constants@1@Uforward_iterator_tag@1@@Z 00404ef0 f i ctpmd.obj
 0001:00003f90       ??$_Reset@VEvent_Log@@@?$_Ptr_base@VEvent@@@std@@QAEXABV?$_Ptr_base@VEvent_Log@@@1@@Z 00404f90 f i ctpmd.obj
 0001:00004000       ??$_Reset@VEvent_Tick@@@?$_Ptr_base@VEvent@@@std@@QAEXABV?$_Ptr_base@VEvent_Tick@@@1@@Z 00405000 f i ctpmd.obj
 0001:00004070       ??$_Resetp0@VEvent_Log@@@?$shared_ptr@VEvent_Log@@@std@@QAEXPAVEvent_Log@@PAV_Ref_count_base@1@@Z 00405070 f i ctpmd.obj
 0001:000040d0       ??$_Resetp0@VEvent_Tick@@@?$shared_ptr@VEvent_Tick@@@std@@QAEXPAVEvent_Tick@@PAV_Ref_count_base@1@@Z 004050d0 f i ctpmd.obj
 0001:00004130       ??$_Rotate@PAV?$basic_string@DU?$char_traits@D@std@@V?$allocator@D@2@@std@@@std@@YAXPAV?$basic_string@DU?$char_traits@D@std@@V?$allocator@D@2@@0@00Urandom_access_iterator_tag@0@@Z 00405130 f i ctpmd.obj
 0001:00004150       ??$_Rotate@PAV?$basic_string@DU?$char_traits@D@std@@V?$allocator@D@2@@std@@HV12@@std@@YAXPAV?$basic_string@DU?$char_traits@D@std@@V?$allocator@D@2@@0@00PAH0@Z 00405150 f i ctpmd.obj
 0001:00004310       ??$_Same@PBDPBDU?$_Cmp_icase@V?$_Regex_traits@D@std@@@std@@@std@@YA_NPBD000U?$_Cmp_icase@V?$_Regex_traits@D@std@@@0@@Z 00405310 f i ctpmd.obj
 0001:00004470       ??$_Swap_adl@PAD@std@@YAXAAPAD0@Z 00405470 f i ctpmd.obj
 0001:00004490       ??$_Ucopy@PAD@?$vector@DV?$allocator@D@std@@@std@@IAEPADPAD00@Z 00405490 f i ctpmd.obj
 0001:000044c0       ??$_Ucopy@PAI@?$vector@IV?$allocator@_N@std@@@std@@IAEPAIPAI00@Z 004054c0 f i ctpmd.obj
 0001:000044f0       ??$_Ucopy@PAU_Grp_t@?$_Tgt_state_t@PBD@std@@@?$vector@U_Grp_t@?$_Tgt_state_t@PBD@std@@V?$allocator@U_Grp_t@?$_Tgt_state_t@PBD@std@@@3@@std@@IAEPAU_Grp_t@?$_Tgt_state_t@PBD@1@PAU231@00@Z 004054f0 f i ctpmd.obj
 0001:00004520       ??$_Ucopy@PBD@?$vector@DV?$allocator@D@std@@@std@@IAEPADPBD0PAD@Z 00405520 f i ctpmd.obj
 0001:00004550       ??$_Ucopy@PBV?$basic_string@DU?$char_traits@D@std@@V?$allocator@D@2@@std@@@?$vector@V?$basic_string@DU?$char_traits@D@std@@V?$allocator@D@2@@std@@V?$allocator@V?$basic_string@DU?$char_traits@D@std@@V?$allocator@D@2@@std@@@2@@std@@IAEPAV?$basic_string@DU?$char_traits@D@std@@V?$allocator@D@2@@1@PBV21@0PAV21@@Z 00405550 f i ctpmd.obj
 0001:00004580       ??$_Ucopy@V?$_String_iterator@V?$_String_val@U?$_Simple_types@D@std@@@std@@@std@@@?$vector@DV?$allocator@D@std@@@std@@IAEPADV?$_String_iterator@V?$_String_val@U?$_Simple_types@D@std@@@std@@@1@0PAD@Z 00405580 f i ctpmd.obj
 0001:000045b0       ??$_Ucopy@V?$_Vector_const_iterator@V?$_Vector_val@U?$_Simple_types@I@std@@@std@@@std@@@?$vector@IV?$allocator@_N@std@@@std@@IAEPAIV?$_Vector_const_iterator@V?$_Vector_val@U?$_Simple_types@I@std@@@std@@@1@0PAI@Z 004055b0 f i ctpmd.obj
 0001:000045e0       ??$_Ucopy@V?$_Vector_const_iterator@V?$_Vector_val@U?$_Simple_types@U_Grp_t@?$_Tgt_state_t@PBD@std@@@std@@@std@@@std@@@?$vector@U_Grp_t@?$_Tgt_state_t@PBD@std@@V?$allocator@U_Grp_t@?$_Tgt_state_t@PBD@std@@@3@@std@@IAEPAU_Grp_t@?$_Tgt_state_t@PBD@1@V?$_Vector_const_iterator@V?$_Vector_val@U?$_Simple_types@U_Grp_t@?$_Tgt_state_t@PBD@std@@@std@@@std@@@1@0PAU231@@Z 004055e0 f i ctpmd.obj
 0001:00004610       ??$_Umove@PAI@?$vector@IV?$allocator@_N@std@@@std@@IAEPAIPAI00@Z 00405610 f i ctpmd.obj
 0001:00004640       ??$_Umove@PAU_Grp_t@?$_Tgt_state_t@PBD@std@@@?$vector@U_Grp_t@?$_Tgt_state_t@PBD@std@@V?$allocator@U_Grp_t@?$_Tgt_state_t@PBD@std@@@3@@std@@IAEPAU_Grp_t@?$_Tgt_state_t@PBD@1@PAU231@00@Z 00405640 f i ctpmd.obj
 0001:00004670       ??$_Umove@PAU_Loop_vals_t@std@@@?$vector@U_Loop_vals_t@std@@V?$allocator@U_Loop_vals_t@std@@@2@@std@@IAEPAU_Loop_vals_t@1@PAU21@00@Z 00405670 f i ctpmd.obj
 0001:000046a0       ??$_Umove@PAV?$basic_string@DU?$char_traits@D@std@@V?$allocator@D@2@@std@@@?$vector@V?$basic_string@DU?$char_traits@D@std@@V?$allocator@D@2@@std@@V?$allocator@V?$basic_string@DU?$char_traits@D@std@@V?$allocator@D@2@@std@@@2@@std@@IAEPAV?$basic_string@DU?$char_traits@D@std@@V?$allocator@D@2@@1@PAV21@00@Z 004056a0 f i ctpmd.obj
 0001:000046d0       ??$_Umove@PAV?$sub_match@PBD@std@@@?$vector@V?$sub_match@PBD@std@@V?$allocator@V?$sub_match@PBD@std@@@2@@std@@IAEPAV?$sub_match@PBD@1@PAV21@00@Z 004056d0 f i ctpmd.obj
 0001:00004700       ??$_Unchecked@PAD@std@@YAPADPAD@Z 00405700 f i ctpmd.obj
 0001:00004710       ??$_Unchecked@PAI@std@@YAPAIPAI@Z 00405710 f i ctpmd.obj
 0001:00004720       ??$_Unchecked@PAU_Grp_t@?$_Tgt_state_t@PBD@std@@@std@@YAPAU_Grp_t@?$_Tgt_state_t@PBD@0@PAU120@@Z 00405720 f i ctpmd.obj
 0001:00004730       ??$_Unchecked@PAU_Loop_vals_t@std@@@std@@YAPAU_Loop_vals_t@0@PAU10@@Z 00405730 f i ctpmd.obj
 0001:00004740       ??$_Unchecked@PAV?$basic_string@DU?$char_traits@D@std@@V?$allocator@D@2@@std@@@std@@YAPAV?$basic_string@DU?$char_traits@D@std@@V?$allocator@D@2@@0@PAV10@@Z 00405740 f i ctpmd.obj
 0001:00004750       ??$_Unchecked@PAV?$sub_match@PBD@std@@@std@@YAPAV?$sub_match@PBD@0@PAV10@@Z 00405750 f i ctpmd.obj
 0001:00004760       ??$_Unchecked@PBD@std@@YAPBDPBD@Z 00405760 f i ctpmd.obj
 0001:00004770       ??$_Unchecked@PBV?$basic_string@DU?$char_traits@D@std@@V?$allocator@D@2@@std@@@std@@YAPBV?$basic_string@DU?$char_traits@D@std@@V?$allocator@D@2@@0@PBV10@@Z 00405770 f i ctpmd.obj
 0001:00004780       ??$_Unchecked@V?$_String_val@U?$_Simple_types@D@std@@@std@@@std@@YAPADV?$_String_iterator@V?$_String_val@U?$_Simple_types@D@std@@@std@@@0@@Z 00405780 f i ctpmd.obj
 0001:00004790       ??$_Unchecked@V?$_String_val@U?$_Simple_types@D@std@@@std@@@std@@YAPBDV?$_String_const_iterator@V?$_String_val@U?$_Simple_types@D@std@@@std@@@0@@Z 00405790 f i ctpmd.obj
 0001:000047a0       ??$_Unchecked@V?$_Vb_iterator@U?$_Wrap_alloc@V?$allocator@I@std@@@std@@@std@@@std@@YA?AV?$_Vb_iterator@U?$_Wrap_alloc@V?$allocator@I@std@@@std@@@0@V10@@Z 004057a0 f i ctpmd.obj
 0001:000047c0       ??$_Unchecked@V?$_Vector_val@U?$_Simple_types@I@std@@@std@@@std@@YAPBIV?$_Vector_const_iterator@V?$_Vector_val@U?$_Simple_types@I@std@@@std@@@0@@Z 004057c0 f i ctpmd.obj
 0001:000047d0       ??$_Unchecked@V?$_Vector_val@U?$_Simple_types@U_Grp_t@?$_Tgt_state_t@PBD@std@@@std@@@std@@@std@@YAPBU_Grp_t@?$_Tgt_state_t@PBD@0@V?$_Vector_const_iterator@V?$_Vector_val@U?$_Simple_types@U_Grp_t@?$_Tgt_state_t@PBD@std@@@std@@@std@@@0@@Z 004057d0 f i ctpmd.obj
 0001:000047e0       ??$_Unchecked@V?$back_insert_iterator@V?$basic_string@DU?$char_traits@D@std@@V?$allocator@D@2@@std@@@std@@@std@@YA?AV?$back_insert_iterator@V?$basic_string@DU?$char_traits@D@std@@V?$allocator@D@2@@std@@@0@V10@@Z 004057e0 f i ctpmd.obj
 0001:000047f0       ??$_Ungetc@D@std@@YA_NABDPAU_iobuf@@@Z 004057f0 f i ctpmd.obj
 0001:00004810       ??$_Uninit_copy@$$CBDD@std@@YAPADPBD0PADAAU?$_Wrap_alloc@V?$allocator@D@std@@@0@U_Scalar_ptr_iterator_tag@0@@Z 00405810 f i ctpmd.obj
 0001:00004830       ??$_Uninit_copy@$$CBII@std@@YAPAIPBI0PAIAAU?$_Wrap_alloc@V?$allocator@I@std@@@0@U_Scalar_ptr_iterator_tag@0@@Z 00405830 f i ctpmd.obj
 0001:00004860       ??$_Uninit_copy@DD@std@@YAPADPAD00AAU?$_Wrap_alloc@V?$allocator@D@std@@@0@U_Scalar_ptr_iterator_tag@0@@Z 00405860 f i ctpmd.obj
 0001:00004880       ??$_Uninit_copy@II@std@@YAPAIPAI00AAU?$_Wrap_alloc@V?$allocator@I@std@@@0@U_Scalar_ptr_iterator_tag@0@@Z 00405880 f i ctpmd.obj
 0001:000048b0       ??$_Uninit_copy@PADPADU?$_Wrap_alloc@V?$allocator@D@std@@@std@@@std@@YAPADPAD00AAU?$_Wrap_alloc@V?$allocator@D@std@@@0@@Z 004058b0 f i ctpmd.obj
 0001:000048d0       ??$_Uninit_copy@PAIPAIU?$_Wrap_alloc@V?$allocator@I@std@@@std@@@std@@YAPAIPAI00AAU?$_Wrap_alloc@V?$allocator@I@std@@@0@@Z 004058d0 f i ctpmd.obj
 0001:00004900       ??$_Uninit_copy@PAU_Grp_t@?$_Tgt_state_t@PBD@std@@PAU123@U?$_Wrap_alloc@V?$allocator@U_Grp_t@?$_Tgt_state_t@PBD@std@@@std@@@3@@std@@YAPAU_Grp_t@?$_Tgt_state_t@PBD@0@PAU120@00AAU?$_Wrap_alloc@V?$allocator@U_Grp_t@?$_Tgt_state_t@PBD@std@@@std@@@0@@Z 00405900 f i ctpmd.obj
 0001:00004920       ??$_Uninit_copy@PAU_Grp_t@?$_Tgt_state_t@PBD@std@@PAU123@V?$allocator@U_Grp_t@?$_Tgt_state_t@PBD@std@@@3@@std@@YAPAU_Grp_t@?$_Tgt_state_t@PBD@0@PAU120@00AAU?$_Wrap_alloc@V?$allocator@U_Grp_t@?$_Tgt_state_t@PBD@std@@@std@@@0@U_Nonscalar_ptr_iterator_tag@0@@Z 00405920 f i ctpmd.obj
 0001:00004960       ??$_Uninit_copy@PBDPADU?$_Wrap_alloc@V?$allocator@D@std@@@std@@@std@@YAPADPBD0PADAAU?$_Wrap_alloc@V?$allocator@D@std@@@0@@Z 00405960 f i ctpmd.obj
 0001:00004980       ??$_Uninit_copy@PBIPAIU?$_Wrap_alloc@V?$allocator@I@std@@@std@@@std@@YAPAIPBI0PAIAAU?$_Wrap_alloc@V?$allocator@I@std@@@0@@Z 00405980 f i ctpmd.obj
 0001:000049b0       ??$_Uninit_copy@PBU_Grp_t@?$_Tgt_state_t@PBD@std@@PAU123@U?$_Wrap_alloc@V?$allocator@U_Grp_t@?$_Tgt_state_t@PBD@std@@@std@@@3@@std@@YAPAU_Grp_t@?$_Tgt_state_t@PBD@0@PBU120@0PAU120@AAU?$_Wrap_alloc@V?$allocator@U_Grp_t@?$_Tgt_state_t@PBD@std@@@std@@@0@@Z 004059b0 f i ctpmd.obj
 0001:000049d0       ??$_Uninit_copy@PBU_Grp_t@?$_Tgt_state_t@PBD@std@@PAU123@V?$allocator@U_Grp_t@?$_Tgt_state_t@PBD@std@@@3@@std@@YAPAU_Grp_t@?$_Tgt_state_t@PBD@0@PBU120@0PAU120@AAU?$_Wrap_alloc@V?$allocator@U_Grp_t@?$_Tgt_state_t@PBD@std@@@std@@@0@U_Nonscalar_ptr_iterator_tag@0@@Z 004059d0 f i ctpmd.obj
 0001:00004a10       ??$_Uninit_copy@PBV?$basic_string@DU?$char_traits@D@std@@V?$allocator@D@2@@std@@PAV12@U?$_Wrap_alloc@V?$allocator@V?$basic_string@DU?$char_traits@D@std@@V?$allocator@D@2@@std@@@std@@@2@@std@@YAPAV?$basic_string@DU?$char_traits@D@std@@V?$allocator@D@2@@0@PBV10@0PAV10@AAU?$_Wrap_alloc@V?$allocator@V?$basic_string@DU?$char_traits@D@std@@V?$allocator@D@2@@std@@@std@@@0@@Z 00405a10 f i ctpmd.obj
 0001:00004a30       ??$_Uninit_copy@PBV?$basic_string@DU?$char_traits@D@std@@V?$allocator@D@2@@std@@PAV12@V?$allocator@V?$basic_string@DU?$char_traits@D@std@@V?$allocator@D@2@@std@@@2@@std@@YAPAV?$basic_string@DU?$char_traits@D@std@@V?$allocator@D@2@@0@PBV10@0PAV10@AAU?$_Wrap_alloc@V?$allocator@V?$basic_string@DU?$char_traits@D@std@@V?$allocator@D@2@@std@@@std@@@0@U_Nonscalar_ptr_iterator_tag@0@@Z 00405a30 f i ctpmd.obj
 0001:00004af0       ??$_Uninit_def_fill_n@PAU_Grp_t@?$_Tgt_state_t@PBD@std@@IV?$allocator@U_Grp_t@?$_Tgt_state_t@PBD@std@@@3@U123@@std@@YAXPAU_Grp_t@?$_Tgt_state_t@PBD@0@IAAU?$_Wrap_alloc@V?$allocator@U_Grp_t@?$_Tgt_state_t@PBD@std@@@std@@@0@0U_Nonscalar_ptr_iterator_tag@0@@Z 00405af0 f i ctpmd.obj
 0001:00004b20       ??$_Uninit_def_fill_n@PAU_Loop_vals_t@std@@IV?$allocator@U_Loop_vals_t@std@@@2@U12@@std@@YAXPAU_Loop_vals_t@0@IAAU?$_Wrap_alloc@V?$allocator@U_Loop_vals_t@std@@@std@@@0@0U_Nonscalar_ptr_iterator_tag@0@@Z 00405b20 f i ctpmd.obj
 0001:00004b50       ??$_Uninit_def_fill_n@PAV?$sub_match@PBD@std@@IV?$allocator@V?$sub_match@PBD@std@@@2@V12@@std@@YAXPAV?$sub_match@PBD@0@IAAU?$_Wrap_alloc@V?$allocator@V?$sub_match@PBD@std@@@std@@@0@0U_Nonscalar_ptr_iterator_tag@0@@Z 00405b50 f i ctpmd.obj
 0001:00004b80       ??$_Uninit_fill_n@IIII@std@@YAXPAIIPBIAAU?$_Wrap_alloc@V?$allocator@I@std@@@0@0U_Scalar_ptr_iterator_tag@0@@Z 00405b80 f i ctpmd.obj
 0001:00004ba0       ??$_Uninit_move@III@std@@YAPAIPAI00AAU?$_Wrap_alloc@V?$allocator@I@std@@@0@0U_Scalar_ptr_iterator_tag@0@@Z 00405ba0 f i ctpmd.obj
 0001:00004bd0       ??$_Uninit_move@PAIPAIU?$_Wrap_alloc@V?$allocator@I@std@@@std@@@std@@YAPAIPAI00AAU?$_Wrap_alloc@V?$allocator@I@std@@@0@@Z 00405bd0 f i ctpmd.obj
 0001:00004c00       ??$_Uninit_move@PAU_Grp_t@?$_Tgt_state_t@PBD@std@@PAU123@U?$_Wrap_alloc@V?$allocator@U_Grp_t@?$_Tgt_state_t@PBD@std@@@std@@@3@@std@@YAPAU_Grp_t@?$_Tgt_state_t@PBD@0@PAU120@00AAU?$_Wrap_alloc@V?$allocator@U_Grp_t@?$_Tgt_state_t@PBD@std@@@std@@@0@@Z 00405c00 f i ctpmd.obj
 0001:00004c30       ??$_Uninit_move@PAU_Grp_t@?$_Tgt_state_t@PBD@std@@PAU123@V?$allocator@U_Grp_t@?$_Tgt_state_t@PBD@std@@@3@U123@@std@@YAPAU_Grp_t@?$_Tgt_state_t@PBD@0@PAU120@00AAU?$_Wrap_alloc@V?$allocator@U_Grp_t@?$_Tgt_state_t@PBD@std@@@std@@@0@0U_Nonscalar_ptr_iterator_tag@0@@Z 00405c30 f i ctpmd.obj
 0001:00004c70       ??$_Uninit_move@PAU_Loop_vals_t@std@@PAU12@U?$_Wrap_alloc@V?$allocator@U_Loop_vals_t@std@@@std@@@2@@std@@YAPAU_Loop_vals_t@0@PAU10@00AAU?$_Wrap_alloc@V?$allocator@U_Loop_vals_t@std@@@std@@@0@@Z 00405c70 f i ctpmd.obj
 0001:00004ca0       ??$_Uninit_move@PAU_Loop_vals_t@std@@PAU12@V?$allocator@U_Loop_vals_t@std@@@2@U12@@std@@YAPAU_Loop_vals_t@0@PAU10@00AAU?$_Wrap_alloc@V?$allocator@U_Loop_vals_t@std@@@std@@@0@0U_Nonscalar_ptr_iterator_tag@0@@Z 00405ca0 f i ctpmd.obj
 0001:00004ce0       ??$_Uninit_move@PAV?$basic_string@DU?$char_traits@D@std@@V?$allocator@D@2@@std@@PAV12@U?$_Wrap_alloc@V?$allocator@V?$basic_string@DU?$char_traits@D@std@@V?$allocator@D@2@@std@@@std@@@2@@std@@YAPAV?$basic_string@DU?$char_traits@D@std@@V?$allocator@D@2@@0@PAV10@00AAU?$_Wrap_alloc@V?$allocator@V?$basic_string@DU?$char_traits@D@std@@V?$allocator@D@2@@std@@@std@@@0@@Z 00405ce0 f i ctpmd.obj
 0001:00004d10       ??$_Uninit_move@PAV?$basic_string@DU?$char_traits@D@std@@V?$allocator@D@2@@std@@PAV12@V?$allocator@V?$basic_string@DU?$char_traits@D@std@@V?$allocator@D@2@@std@@@2@V12@@std@@YAPAV?$basic_string@DU?$char_traits@D@std@@V?$allocator@D@2@@0@PAV10@00AAU?$_Wrap_alloc@V?$allocator@V?$basic_string@DU?$char_traits@D@std@@V?$allocator@D@2@@std@@@std@@@0@0U_Nonscalar_ptr_iterator_tag@0@@Z 00405d10 f i ctpmd.obj
 0001:00004da0       ??$_Uninit_move@PAV?$sub_match@PBD@std@@PAV12@U?$_Wrap_alloc@V?$allocator@V?$sub_match@PBD@std@@@std@@@2@@std@@YAPAV?$sub_match@PBD@0@PAV10@00AAU?$_Wrap_alloc@V?$allocator@V?$sub_match@PBD@std@@@std@@@0@@Z 00405da0 f i ctpmd.obj
 0001:00004dd0       ??$_Uninit_move@PAV?$sub_match@PBD@std@@PAV12@V?$allocator@V?$sub_match@PBD@std@@@2@V12@@std@@YAPAV?$sub_match@PBD@0@PAV10@00AAU?$_Wrap_alloc@V?$allocator@V?$sub_match@PBD@std@@@std@@@0@0U_Nonscalar_ptr_iterator_tag@0@@Z 00405dd0 f i ctpmd.obj
 0001:00004e00       ??$_Uninitialized_copy0@PADPAD@std@@YAPADPAD00@Z 00405e00 f i ctpmd.obj
 0001:00004e30       ??$_Uninitialized_copy0@PADPAD@std@@YAPADPAD00U_Scalar_ptr_iterator_tag@0@@Z 00405e30 f i ctpmd.obj
 0001:00004e60       ??$_Uninitialized_copy0@PBDPAD@std@@YAPADPBD0PAD@Z 00405e60 f i ctpmd.obj
 0001:00004e90       ??$_Uninitialized_copy0@PBDPAD@std@@YAPADPBD0PADU_Scalar_ptr_iterator_tag@0@@Z 00405e90 f i ctpmd.obj
 0001:00004ec0       ??$_Uninitialized_copy@PADPADU?$_Wrap_alloc@V?$allocator@D@std@@@std@@@std@@YAPADPAD00AAU?$_Wrap_alloc@V?$allocator@D@std@@@0@@Z 00405ec0 f i ctpmd.obj
 0001:00004ee0       ??$_Uninitialized_copy@PAIPAIU?$_Wrap_alloc@V?$allocator@I@std@@@std@@@std@@YAPAIPAI00AAU?$_Wrap_alloc@V?$allocator@I@std@@@0@@Z 00405ee0 f i ctpmd.obj
 0001:00004f10       ??$_Uninitialized_copy@PAU_Grp_t@?$_Tgt_state_t@PBD@std@@PAU123@U?$_Wrap_alloc@V?$allocator@U_Grp_t@?$_Tgt_state_t@PBD@std@@@std@@@3@@std@@YAPAU_Grp_t@?$_Tgt_state_t@PBD@0@PAU120@00AAU?$_Wrap_alloc@V?$allocator@U_Grp_t@?$_Tgt_state_t@PBD@std@@@std@@@0@@Z 00405f10 f i ctpmd.obj
 0001:00004f30       ??$_Uninitialized_copy@PBDPADU?$_Wrap_alloc@V?$allocator@D@std@@@std@@@std@@YAPADPBD0PADAAU?$_Wrap_alloc@V?$allocator@D@std@@@0@@Z 00405f30 f i ctpmd.obj
 0001:00004f50       ??$_Uninitialized_copy@PBV?$basic_string@DU?$char_traits@D@std@@V?$allocator@D@2@@std@@PAV12@U?$_Wrap_alloc@V?$allocator@V?$basic_string@DU?$char_traits@D@std@@V?$allocator@D@2@@std@@@std@@@2@@std@@YAPAV?$basic_string@DU?$char_traits@D@std@@V?$allocator@D@2@@0@PBV10@0PAV10@AAU?$_Wrap_alloc@V?$allocator@V?$basic_string@DU?$char_traits@D@std@@V?$allocator@D@2@@std@@@std@@@0@@Z 00405f50 f i ctpmd.obj
 0001:00004f70       ??$_Uninitialized_copy@V?$_String_iterator@V?$_String_val@U?$_Simple_types@D@std@@@std@@@std@@PADU?$_Wrap_alloc@V?$allocator@D@std@@@2@@std@@YAPADV?$_String_iterator@V?$_String_val@U?$_Simple_types@D@std@@@std@@@0@0PADAAU?$_Wrap_alloc@V?$allocator@D@std@@@0@@Z 00405f70 f i ctpmd.obj
 0001:00004f90       ??$_Uninitialized_copy@V?$_Vector_const_iterator@V?$_Vector_val@U?$_Simple_types@I@std@@@std@@@std@@PAIU?$_Wrap_alloc@V?$allocator@I@std@@@2@@std@@YAPAIV?$_Vector_const_iterator@V?$_Vector_val@U?$_Simple_types@I@std@@@std@@@0@0PAIAAU?$_Wrap_alloc@V?$allocator@I@std@@@0@@Z 00405f90 f i ctpmd.obj
 0001:00004fc0       ??$_Uninitialized_copy@V?$_Vector_const_iterator@V?$_Vector_val@U?$_Simple_types@U_Grp_t@?$_Tgt_state_t@PBD@std@@@std@@@std@@@std@@PAU_Grp_t@?$_Tgt_state_t@PBD@2@U?$_Wrap_alloc@V?$allocator@U_Grp_t@?$_Tgt_state_t@PBD@std@@@std@@@2@@std@@YAPAU_Grp_t@?$_Tgt_state_t@PBD@0@V?$_Vector_const_iterator@V?$_Vector_val@U?$_Simple_types@U_Grp_t@?$_Tgt_state_t@PBD@std@@@std@@@std@@@0@0PAU120@AAU?$_Wrap_alloc@V?$allocator@U_Grp_t@?$_Tgt_state_t@PBD@std@@@std@@@0@@Z 00405fc0 f i ctpmd.obj
 0001:00004fe0       ??$_Uninitialized_default_fill_n@PAU_Grp_t@?$_Tgt_state_t@PBD@std@@IU?$_Wrap_alloc@V?$allocator@U_Grp_t@?$_Tgt_state_t@PBD@std@@@std@@@3@@std@@YAXPAU_Grp_t@?$_Tgt_state_t@PBD@0@IAAU?$_Wrap_alloc@V?$allocator@U_Grp_t@?$_Tgt_state_t@PBD@std@@@std@@@0@@Z 00405fe0 f i ctpmd.obj
 0001:00005000       ??$_Uninitialized_default_fill_n@PAU_Loop_vals_t@std@@IU?$_Wrap_alloc@V?$allocator@U_Loop_vals_t@std@@@std@@@2@@std@@YAXPAU_Loop_vals_t@0@IAAU?$_Wrap_alloc@V?$allocator@U_Loop_vals_t@std@@@std@@@0@@Z 00406000 f i ctpmd.obj
 0001:00005020       ??$_Uninitialized_default_fill_n@PAV?$sub_match@PBD@std@@IU?$_Wrap_alloc@V?$allocator@V?$sub_match@PBD@std@@@std@@@2@@std@@YAXPAV?$sub_match@PBD@0@IAAU?$_Wrap_alloc@V?$allocator@V?$sub_match@PBD@std@@@std@@@0@@Z 00406020 f i ctpmd.obj
 0001:00005040       ??$_Uninitialized_fill_n@PAIIIU?$_Wrap_alloc@V?$allocator@I@std@@@std@@@std@@YAXPAIIPBIAAU?$_Wrap_alloc@V?$allocator@I@std@@@0@@Z 00406040 f i ctpmd.obj
 0001:00005060       ??$_Uninitialized_move@PAIPAIU?$_Wrap_alloc@V?$allocator@I@std@@@std@@@std@@YAPAIPAI00AAU?$_Wrap_alloc@V?$allocator@I@std@@@0@@Z 00406060 f i ctpmd.obj
 0001:00005090       ??$_Uninitialized_move@PAU_Grp_t@?$_Tgt_state_t@PBD@std@@PAU123@U?$_Wrap_alloc@V?$allocator@U_Grp_t@?$_Tgt_state_t@PBD@std@@@std@@@3@@std@@YAPAU_Grp_t@?$_Tgt_state_t@PBD@0@PAU120@00AAU?$_Wrap_alloc@V?$allocator@U_Grp_t@?$_Tgt_state_t@PBD@std@@@std@@@0@@Z 00406090 f i ctpmd.obj
 0001:000050b0       ??$_Uninitialized_move@PAU_Loop_vals_t@std@@PAU12@U?$_Wrap_alloc@V?$allocator@U_Loop_vals_t@std@@@std@@@2@@std@@YAPAU_Loop_vals_t@0@PAU10@00AAU?$_Wrap_alloc@V?$allocator@U_Loop_vals_t@std@@@std@@@0@@Z 004060b0 f i ctpmd.obj
 0001:000050d0       ??$_Uninitialized_move@PAV?$basic_string@DU?$char_traits@D@std@@V?$allocator@D@2@@std@@PAV12@U?$_Wrap_alloc@V?$allocator@V?$basic_string@DU?$char_traits@D@std@@V?$allocator@D@2@@std@@@std@@@2@@std@@YAPAV?$basic_string@DU?$char_traits@D@std@@V?$allocator@D@2@@0@PAV10@00AAU?$_Wrap_alloc@V?$allocator@V?$basic_string@DU?$char_traits@D@std@@V?$allocator@D@2@@std@@@std@@@0@@Z 004060d0 f i ctpmd.obj
 0001:000050f0       ??$_Uninitialized_move@PAV?$sub_match@PBD@std@@PAV12@U?$_Wrap_alloc@V?$allocator@V?$sub_match@PBD@std@@@std@@@2@@std@@YAPAV?$sub_match@PBD@0@PAV10@00AAU?$_Wrap_alloc@V?$allocator@V?$sub_match@PBD@std@@@std@@@0@@Z 004060f0 f i ctpmd.obj
 0001:00005110       ??$_Val_type@PAI@std@@YAPAIPAI@Z 00406110 f i ctpmd.obj
 0001:00005120       ??$_Val_type@PAU_Grp_t@?$_Tgt_state_t@PBD@std@@@std@@YAPAU_Grp_t@?$_Tgt_state_t@PBD@0@PAU120@@Z 00406120 f i ctpmd.obj
 0001:00005130       ??$_Val_type@PAU_Loop_vals_t@std@@@std@@YAPAU_Loop_vals_t@0@PAU10@@Z 00406130 f i ctpmd.obj
 0001:00005140       ??$_Val_type@PAV?$basic_string@DU?$char_traits@D@std@@V?$allocator@D@2@@std@@@std@@YAPAV?$basic_string@DU?$char_traits@D@std@@V?$allocator@D@2@@0@PAV10@@Z 00406140 f i ctpmd.obj
 0001:00005150       ??$_Val_type@PAV?$sub_match@PBD@std@@@std@@YAPAV?$sub_match@PBD@0@PAV10@@Z 00406150 f i ctpmd.obj
 0001:00005160       ??$_Within_limits@DU?$integral_constant@_N$00@std@@@std@@YA_NABDU?$integral_constant@_N$00@0@11@Z 00406160 f i ctpmd.obj
 0001:00005180       ??$_Within_limits@PBDD@std@@YA_NPBDABD@Z 00406180 f i ctpmd.obj
 0001:000051a0       ??$addressof@$$CBI@std@@YAPBIABI@Z 004061a0 f i ctpmd.obj
 0001:000051b0       ??$addressof@D@std@@YAPADAAD@Z 004061b0 f i ctpmd.obj
 0001:000051c0       ??$addressof@I@std@@YAPAIAAI@Z 004061c0 f i ctpmd.obj
 0001:000051d0       ??$addressof@PAU?$_Tree_node@U?$pair@$$CBV?$basic_string@DU?$char_traits@D@std@@V?$allocator@D@2@@std@@N@std@@PAX@std@@@std@@YAPAPAU?$_Tree_node@U?$pair@$$CBV?$basic_string@DU?$char_traits@D@std@@V?$allocator@D@2@@std@@N@std@@PAX@0@AAPAU10@@Z 004061d0 f i ctpmd.obj
 0001:000051e0       ??$addressof@PAU?$_Tree_node@U?$pair@$$CBV?$basic_string@DU?$char_traits@D@std@@V?$allocator@D@2@@std@@V12@@std@@PAX@std@@@std@@YAPAPAU?$_Tree_node@U?$pair@$$CBV?$basic_string@DU?$char_traits@D@std@@V?$allocator@D@2@@std@@V12@@std@@PAX@0@AAPAU10@@Z 004061e0 f i ctpmd.obj
 0001:000051f0       ??$addressof@PAU?$_Tree_node@V?$basic_string@DU?$char_traits@D@std@@V?$allocator@D@2@@std@@PAX@std@@@std@@YAPAPAU?$_Tree_node@V?$basic_string@DU?$char_traits@D@std@@V?$allocator@D@2@@std@@PAX@0@AAPAU10@@Z 004061f0 f i ctpmd.obj
 0001:00005200       ??$addressof@U?$pair@$$CBV?$basic_string@DU?$char_traits@D@std@@V?$allocator@D@2@@std@@N@std@@@std@@YAPAU?$pair@$$CBV?$basic_string@DU?$char_traits@D@std@@V?$allocator@D@2@@std@@N@0@AAU10@@Z 00406200 f i ctpmd.obj
 0001:00005210       ??$addressof@U?$pair@$$CBV?$basic_string@DU?$char_traits@D@std@@V?$allocator@D@2@@std@@V12@@std@@@std@@YAPAU?$pair@$$CBV?$basic_string@DU?$char_traits@D@std@@V?$allocator@D@2@@std@@V12@@0@AAU10@@Z 00406210 f i ctpmd.obj
 0001:00005220       ??$addressof@V?$basic_string@DU?$char_traits@D@std@@V?$allocator@D@2@@std@@@std@@YAPAV?$basic_string@DU?$char_traits@D@std@@V?$allocator@D@2@@0@AAV10@@Z 00406220 f i ctpmd.obj
 0001:00005230       ??$advance@PAV?$basic_string@DU?$char_traits@D@std@@V?$allocator@D@2@@std@@H@std@@YAXAAPAV?$basic_string@DU?$char_traits@D@std@@V?$allocator@D@2@@0@H@Z 00406230 f i ctpmd.obj
 0001:00005250       ??$append@D@?$Buffer@D@fmt@@QAEXPBD0@Z 00406250 f i ctpmd.obj
 0001:00005290       ??$assign@V?$_String_iterator@V?$_String_val@U?$_Simple_types@D@std@@@std@@@std@@@?$basic_string@DU?$char_traits@D@std@@V?$allocator@D@2@@std@@QAEAAV01@V?$_String_iterator@V?$_String_val@U?$_Simple_types@D@std@@@std@@@1@0@Z 00406290 f i ctpmd.obj
 0001:000052d0       ??$back_inserter@V?$basic_string@DU?$char_traits@D@std@@V?$allocator@D@2@@std@@@std@@YA?AV?$back_insert_iterator@V?$basic_string@DU?$char_traits@D@std@@V?$allocator@D@2@@std@@@0@AAV?$basic_string@DU?$char_traits@D@std@@V?$allocator@D@2@@0@@Z 004062d0 f i ctpmd.obj
 0001:000052e0       ??$construct@PADAAPAD@?$_Wrap_alloc@V?$allocator@D@std@@@std@@QAEXPAPADAAPAD@Z 004062e0 f i ctpmd.obj
 0001:00005300       ??$construct@PADAAPAD@?$allocator@D@std@@QAEXPAPADAAPAD@Z 00406300 f i ctpmd.obj
 0001:00005320       ??$construct@PADAAPAD@?$allocator_traits@V?$allocator@D@std@@@std@@SAXAAV?$allocator@D@1@PAPADAAPAD@Z 00406320 f i ctpmd.obj
 0001:00005340       ??$construct@PAU?$_Tree_node@U?$pair@$$CBV?$basic_string@DU?$char_traits@D@std@@V?$allocator@D@2@@std@@N@std@@PAX@std@@AAPAU12@@?$_Wrap_alloc@V?$allocator@U?$_Tree_node@U?$pair@$$CBV?$basic_string@DU?$char_traits@D@std@@V?$allocator@D@2@@std@@N@std@@PAX@std@@@std@@@std@@QAEXPAPAU?$_Tree_node@U?$pair@$$CBV?$basic_string@DU?$char_traits@D@std@@V?$allocator@D@2@@std@@N@std@@PAX@1@AAPAU21@@Z 00406340 f i ctpmd.obj
 0001:00005360       ??$construct@PAU?$_Tree_node@U?$pair@$$CBV?$basic_string@DU?$char_traits@D@std@@V?$allocator@D@2@@std@@N@std@@PAX@std@@AAPAU12@@?$allocator@U?$_Tree_node@U?$pair@$$CBV?$basic_string@DU?$char_traits@D@std@@V?$allocator@D@2@@std@@N@std@@PAX@std@@@std@@QAEXPAPAU?$_Tree_node@U?$pair@$$CBV?$basic_string@DU?$char_traits@D@std@@V?$allocator@D@2@@std@@N@std@@PAX@1@AAPAU21@@Z 00406360 f i ctpmd.obj
 0001:00005380       ??$construct@PAU?$_Tree_node@U?$pair@$$CBV?$basic_string@DU?$char_traits@D@std@@V?$allocator@D@2@@std@@N@std@@PAX@std@@AAPAU12@@?$allocator_traits@V?$allocator@U?$_Tree_node@U?$pair@$$CBV?$basic_string@DU?$char_traits@D@std@@V?$allocator@D@2@@std@@N@std@@PAX@std@@@std@@@std@@SAXAAV?$allocator@U?$_Tree_node@U?$pair@$$CBV?$basic_string@DU?$char_traits@D@std@@V?$allocator@D@2@@std@@N@std@@PAX@std@@@1@PAPAU?$_Tree_node@U?$pair@$$CBV?$basic_string@DU?$char_traits@D@std@@V?$allocator@D@2@@std@@N@std@@PAX@1@AAPAU31@@Z 00406380 f i ctpmd.obj
 0001:000053a0       ??$construct@PAU?$_Tree_node@U?$pair@$$CBV?$basic_string@DU?$char_traits@D@std@@V?$allocator@D@2@@std@@V12@@std@@PAX@std@@AAPAU12@@?$_Wrap_alloc@V?$allocator@U?$_Tree_node@U?$pair@$$CBV?$basic_string@DU?$char_traits@D@std@@V?$allocator@D@2@@std@@V12@@std@@PAX@std@@@std@@@std@@QAEXPAPAU?$_Tree_node@U?$pair@$$CBV?$basic_string@DU?$char_traits@D@std@@V?$allocator@D@2@@std@@V12@@std@@PAX@1@AAPAU21@@Z 004063a0 f i ctpmd.obj
 0001:000053c0       ??$construct@PAU?$_Tree_node@U?$pair@$$CBV?$basic_string@DU?$char_traits@D@std@@V?$allocator@D@2@@std@@V12@@std@@PAX@std@@AAPAU12@@?$allocator@U?$_Tree_node@U?$pair@$$CBV?$basic_string@DU?$char_traits@D@std@@V?$allocator@D@2@@std@@V12@@std@@PAX@std@@@std@@QAEXPAPAU?$_Tree_node@U?$pair@$$CBV?$basic_string@DU?$char_traits@D@std@@V?$allocator@D@2@@std@@V12@@std@@PAX@1@AAPAU21@@Z 004063c0 f i ctpmd.obj
 0001:000053e0       ??$construct@PAU?$_Tree_node@U?$pair@$$CBV?$basic_string@DU?$char_traits@D@std@@V?$allocator@D@2@@std@@V12@@std@@PAX@std@@AAPAU12@@?$allocator_traits@V?$allocator@U?$_Tree_node@U?$pair@$$CBV?$basic_string@DU?$char_traits@D@std@@V?$allocator@D@2@@std@@V12@@std@@PAX@std@@@std@@@std@@SAXAAV?$allocator@U?$_Tree_node@U?$pair@$$CBV?$basic_string@DU?$char_traits@D@std@@V?$allocator@D@2@@std@@V12@@std@@PAX@std@@@1@PAPAU?$_Tree_node@U?$pair@$$CBV?$basic_string@DU?$char_traits@D@std@@V?$allocator@D@2@@std@@V12@@std@@PAX@1@AAPAU31@@Z 004063e0 f i ctpmd.obj
 0001:00005400       ??$construct@PAU?$_Tree_node@V?$basic_string@DU?$char_traits@D@std@@V?$allocator@D@2@@std@@PAX@std@@AAPAU12@@?$_Wrap_alloc@V?$allocator@U?$_Tree_node@V?$basic_string@DU?$char_traits@D@std@@V?$allocator@D@2@@std@@PAX@std@@@std@@@std@@QAEXPAPAU?$_Tree_node@V?$basic_string@DU?$char_traits@D@std@@V?$allocator@D@2@@std@@PAX@1@AAPAU21@@Z 00406400 f i ctpmd.obj
 0001:00005420       ??$construct@PAU?$_Tree_node@V?$basic_string@DU?$char_traits@D@std@@V?$allocator@D@2@@std@@PAX@std@@AAPAU12@@?$allocator@U?$_Tree_node@V?$basic_string@DU?$char_traits@D@std@@V?$allocator@D@2@@std@@PAX@std@@@std@@QAEXPAPAU?$_Tree_node@V?$basic_string@DU?$char_traits@D@std@@V?$allocator@D@2@@std@@PAX@1@AAPAU21@@Z 00406420 f i ctpmd.obj
 0001:00005440       ??$construct@PAU?$_Tree_node@V?$basic_string@DU?$char_traits@D@std@@V?$allocator@D@2@@std@@PAX@std@@AAPAU12@@?$allocator_traits@V?$allocator@U?$_Tree_node@V?$basic_string@DU?$char_traits@D@std@@V?$allocator@D@2@@std@@PAX@std@@@std@@@std@@SAXAAV?$allocator@U?$_Tree_node@V?$basic_string@DU?$char_traits@D@std@@V?$allocator@D@2@@std@@PAX@std@@@1@PAPAU?$_Tree_node@V?$basic_string@DU?$char_traits@D@std@@V?$allocator@D@2@@std@@PAX@1@AAPAU31@@Z 00406440 f i ctpmd.obj
 0001:00005460       ??$construct@U?$pair@$$CBV?$basic_string@DU?$char_traits@D@std@@V?$allocator@D@2@@std@@N@std@@ABUpiecewise_construct_t@2@V?$tuple@$$QAV?$basic_string@DU?$char_traits@D@std@@V?$allocator@D@2@@std@@@2@V?$tuple@$$$V@2@@?$_Wrap_alloc@V?$allocator@U?$_Tree_node@U?$pair@$$CBV?$basic_string@DU?$char_traits@D@std@@V?$allocator@D@2@@std@@N@std@@PAX@std@@@std@@@std@@QAEXPAU?$pair@$$CBV?$basic_string@DU?$char_traits@D@std@@V?$allocator@D@2@@std@@N@1@ABUpiecewise_construct_t@1@$$QAV?$tuple@$$QAV?$basic_string@DU?$char_traits@D@std@@V?$allocator@D@2@@std@@@1@$$QAV?$tuple@$$$V@1@@Z 00406460 f i ctpmd.obj
 0001:00005490       ??$construct@U?$pair@$$CBV?$basic_string@DU?$char_traits@D@std@@V?$allocator@D@2@@std@@N@std@@ABUpiecewise_construct_t@2@V?$tuple@$$QAV?$basic_string@DU?$char_traits@D@std@@V?$allocator@D@2@@std@@@2@V?$tuple@$$$V@2@@?$allocator@U?$_Tree_node@U?$pair@$$CBV?$basic_string@DU?$char_traits@D@std@@V?$allocator@D@2@@std@@N@std@@PAX@std@@@std@@QAEXPAU?$pair@$$CBV?$basic_string@DU?$char_traits@D@std@@V?$allocator@D@2@@std@@N@1@ABUpiecewise_construct_t@1@$$QAV?$tuple@$$QAV?$basic_string@DU?$char_traits@D@std@@V?$allocator@D@2@@std@@@1@$$QAV?$tuple@$$$V@1@@Z 00406490 f i ctpmd.obj
 0001:000054c0       ??$construct@U?$pair@$$CBV?$basic_string@DU?$char_traits@D@std@@V?$allocator@D@2@@std@@N@std@@ABUpiecewise_construct_t@2@V?$tuple@$$QAV?$basic_string@DU?$char_traits@D@std@@V?$allocator@D@2@@std@@@2@V?$tuple@$$$V@2@@?$allocator_traits@V?$allocator@U?$_Tree_node@U?$pair@$$CBV?$basic_string@DU?$char_traits@D@std@@V?$allocator@D@2@@std@@N@std@@PAX@std@@@std@@@std@@SAXAAV?$allocator@U?$_Tree_node@U?$pair@$$CBV?$basic_string@DU?$char_traits@D@std@@V?$allocator@D@2@@std@@N@std@@PAX@std@@@1@PAU?$pair@$$CBV?$basic_string@DU?$char_traits@D@std@@V?$allocator@D@2@@std@@N@1@ABUpiecewise_construct_t@1@$$QAV?$tuple@$$QAV?$basic_string@DU?$char_traits@D@std@@V?$allocator@D@2@@std@@@1@$$QAV?$tuple@$$$V@1@@Z 004064c0 f i ctpmd.obj
 0001:000054f0       ??$construct@U?$pair@$$CBV?$basic_string@DU?$char_traits@D@std@@V?$allocator@D@2@@std@@V12@@std@@ABUpiecewise_construct_t@2@V?$tuple@$$QAV?$basic_string@DU?$char_traits@D@std@@V?$allocator@D@2@@std@@@2@V?$tuple@$$$V@2@@?$_Wrap_alloc@V?$allocator@U?$_Tree_node@U?$pair@$$CBV?$basic_string@DU?$char_traits@D@std@@V?$allocator@D@2@@std@@V12@@std@@PAX@std@@@std@@@std@@QAEXPAU?$pair@$$CBV?$basic_string@DU?$char_traits@D@std@@V?$allocator@D@2@@std@@V12@@1@ABUpiecewise_construct_t@1@$$QAV?$tuple@$$QAV?$basic_string@DU?$char_traits@D@std@@V?$allocator@D@2@@std@@@1@$$QAV?$tuple@$$$V@1@@Z 004064f0 f i ctpmd.obj
 0001:00005530       ??$construct@U?$pair@$$CBV?$basic_string@DU?$char_traits@D@std@@V?$allocator@D@2@@std@@V12@@std@@ABUpiecewise_construct_t@2@V?$tuple@$$QAV?$basic_string@DU?$char_traits@D@std@@V?$allocator@D@2@@std@@@2@V?$tuple@$$$V@2@@?$allocator@U?$_Tree_node@U?$pair@$$CBV?$basic_string@DU?$char_traits@D@std@@V?$allocator@D@2@@std@@V12@@std@@PAX@std@@@std@@QAEXPAU?$pair@$$CBV?$basic_string@DU?$char_traits@D@std@@V?$allocator@D@2@@std@@V12@@1@ABUpiecewise_construct_t@1@$$QAV?$tuple@$$QAV?$basic_string@DU?$char_traits@D@std@@V?$allocator@D@2@@std@@@1@$$QAV?$tuple@$$$V@1@@Z 00406530 f i ctpmd.obj
 0001:00005570       ??$construct@U?$pair@$$CBV?$basic_string@DU?$char_traits@D@std@@V?$allocator@D@2@@std@@V12@@std@@ABUpiecewise_construct_t@2@V?$tuple@$$QAV?$basic_string@DU?$char_traits@D@std@@V?$allocator@D@2@@std@@@2@V?$tuple@$$$V@2@@?$allocator_traits@V?$allocator@U?$_Tree_node@U?$pair@$$CBV?$basic_string@DU?$char_traits@D@std@@V?$allocator@D@2@@std@@V12@@std@@PAX@std@@@std@@@std@@SAXAAV?$allocator@U?$_Tree_node@U?$pair@$$CBV?$basic_string@DU?$char_traits@D@std@@V?$allocator@D@2@@std@@V12@@std@@PAX@std@@@1@PAU?$pair@$$CBV?$basic_string@DU?$char_traits@D@std@@V?$allocator@D@2@@std@@V12@@1@ABUpiecewise_construct_t@1@$$QAV?$tuple@$$QAV?$basic_string@DU?$char_traits@D@std@@V?$allocator@D@2@@std@@@1@$$QAV?$tuple@$$$V@1@@Z 00406570 f i ctpmd.obj
 0001:000055b0       ??$construct@U_Grp_t@?$_Tgt_state_t@PBD@std@@$$$V@?$allocator_traits@V?$allocator@U_Grp_t@?$_Tgt_state_t@PBD@std@@@std@@@std@@SAXAAV?$allocator@U_Grp_t@?$_Tgt_state_t@PBD@std@@@1@PAU_Grp_t@?$_Tgt_state_t@PBD@1@@Z 004065b0 f i ctpmd.obj
 0001:000055d0       ??$construct@U_Grp_t@?$_Tgt_state_t@PBD@std@@AAU123@@?$_Wrap_alloc@V?$allocator@U_Grp_t@?$_Tgt_state_t@PBD@std@@@std@@@std@@QAEXPAU_Grp_t@?$_Tgt_state_t@PBD@1@AAU231@@Z 004065d0 f i ctpmd.obj
 0001:000055f0       ??$construct@U_Grp_t@?$_Tgt_state_t@PBD@std@@AAU123@@?$allocator@U_Grp_t@?$_Tgt_state_t@PBD@std@@@std@@QAEXPAU_Grp_t@?$_Tgt_state_t@PBD@1@AAU231@@Z 004065f0 f i ctpmd.obj
 0001:00005610       ??$construct@U_Grp_t@?$_Tgt_state_t@PBD@std@@AAU123@@?$allocator_traits@V?$allocator@U_Grp_t@?$_Tgt_state_t@PBD@std@@@std@@@std@@SAXAAV?$allocator@U_Grp_t@?$_Tgt_state_t@PBD@std@@@1@PAU_Grp_t@?$_Tgt_state_t@PBD@1@AAU341@@Z 00406610 f i ctpmd.obj
 0001:00005630       ??$construct@U_Grp_t@?$_Tgt_state_t@PBD@std@@ABU123@@?$_Wrap_alloc@V?$allocator@U_Grp_t@?$_Tgt_state_t@PBD@std@@@std@@@std@@QAEXPAU_Grp_t@?$_Tgt_state_t@PBD@1@ABU231@@Z 00406630 f i ctpmd.obj
 0001:00005650       ??$construct@U_Grp_t@?$_Tgt_state_t@PBD@std@@ABU123@@?$allocator_traits@V?$allocator@U_Grp_t@?$_Tgt_state_t@PBD@std@@@std@@@std@@SAXAAV?$allocator@U_Grp_t@?$_Tgt_state_t@PBD@std@@@1@PAU_Grp_t@?$_Tgt_state_t@PBD@1@ABU341@@Z 00406650 f i ctpmd.obj
 0001:00005670       ??$construct@U_Grp_t@?$_Tgt_state_t@PBD@std@@U123@@?$_Wrap_alloc@V?$allocator@U_Grp_t@?$_Tgt_state_t@PBD@std@@@std@@@std@@QAEXPAU_Grp_t@?$_Tgt_state_t@PBD@1@$$QAU231@@Z 00406670 f i ctpmd.obj
 0001:00005690       ??$construct@U_Grp_t@?$_Tgt_state_t@PBD@std@@U123@@?$allocator@U_Grp_t@?$_Tgt_state_t@PBD@std@@@std@@QAEXPAU_Grp_t@?$_Tgt_state_t@PBD@1@$$QAU231@@Z 00406690 f i ctpmd.obj
 0001:000056b0       ??$construct@U_Grp_t@?$_Tgt_state_t@PBD@std@@U123@@?$allocator_traits@V?$allocator@U_Grp_t@?$_Tgt_state_t@PBD@std@@@std@@@std@@SAXAAV?$allocator@U_Grp_t@?$_Tgt_state_t@PBD@std@@@1@PAU_Grp_t@?$_Tgt_state_t@PBD@1@$$QAU341@@Z 004066b0 f i ctpmd.obj
 0001:000056d0       ??$construct@U_Loop_vals_t@std@@$$$V@?$allocator_traits@V?$allocator@U_Loop_vals_t@std@@@std@@@std@@SAXAAV?$allocator@U_Loop_vals_t@std@@@1@PAU_Loop_vals_t@1@@Z 004066d0 f i ctpmd.obj
 0001:000056f0       ??$construct@U_Loop_vals_t@std@@U12@@?$_Wrap_alloc@V?$allocator@U_Loop_vals_t@std@@@std@@@std@@QAEXPAU_Loop_vals_t@1@$$QAU21@@Z 004066f0 f i ctpmd.obj
 0001:00005710       ??$construct@U_Loop_vals_t@std@@U12@@?$allocator@U_Loop_vals_t@std@@@std@@QAEXPAU_Loop_vals_t@1@$$QAU21@@Z 00406710 f i ctpmd.obj
 0001:00005730       ??$construct@U_Loop_vals_t@std@@U12@@?$allocator_traits@V?$allocator@U_Loop_vals_t@std@@@std@@@std@@SAXAAV?$allocator@U_Loop_vals_t@std@@@1@PAU_Loop_vals_t@1@$$QAU31@@Z 00406730 f i ctpmd.obj
 0001:00005750       ??$construct@V?$basic_string@DU?$char_traits@D@std@@V?$allocator@D@2@@std@@AAV12@@?$_Wrap_alloc@V?$allocator@U?$_Tree_node@V?$basic_string@DU?$char_traits@D@std@@V?$allocator@D@2@@std@@PAX@std@@@std@@@std@@QAEXPAV?$basic_string@DU?$char_traits@D@std@@V?$allocator@D@2@@1@AAV21@@Z 00406750 f i ctpmd.obj
 0001:000057c0       ??$construct@V?$basic_string@DU?$char_traits@D@std@@V?$allocator@D@2@@std@@AAV12@@?$allocator@U?$_Tree_node@V?$basic_string@DU?$char_traits@D@std@@V?$allocator@D@2@@std@@PAX@std@@@std@@QAEXPAV?$basic_string@DU?$char_traits@D@std@@V?$allocator@D@2@@1@AAV21@@Z 004067c0 f i ctpmd.obj
 0001:00005830       ??$construct@V?$basic_string@DU?$char_traits@D@std@@V?$allocator@D@2@@std@@AAV12@@?$allocator_traits@V?$allocator@U?$_Tree_node@V?$basic_string@DU?$char_traits@D@std@@V?$allocator@D@2@@std@@PAX@std@@@std@@@std@@SAXAAV?$allocator@U?$_Tree_node@V?$basic_string@DU?$char_traits@D@std@@V?$allocator@D@2@@std@@PAX@std@@@1@PAV?$basic_string@DU?$char_traits@D@std@@V?$allocator@D@2@@1@AAV31@@Z 00406830 f i ctpmd.obj
 0001:00005890       ??$construct@V?$basic_string@DU?$char_traits@D@std@@V?$allocator@D@2@@std@@ABV12@@?$_Wrap_alloc@V?$allocator@U?$_Tree_node@V?$basic_string@DU?$char_traits@D@std@@V?$allocator@D@2@@std@@PAX@std@@@std@@@std@@QAEXPAV?$basic_string@DU?$char_traits@D@std@@V?$allocator@D@2@@1@ABV21@@Z 00406890 f i ctpmd.obj
 0001:00005900       ??$construct@V?$basic_string@DU?$char_traits@D@std@@V?$allocator@D@2@@std@@ABV12@@?$_Wrap_alloc@V?$allocator@V?$basic_string@DU?$char_traits@D@std@@V?$allocator@D@2@@std@@@std@@@std@@QAEXPAV?$basic_string@DU?$char_traits@D@std@@V?$allocator@D@2@@1@ABV21@@Z 00406900 f i ctpmd.obj
 0001:00005970       ??$construct@V?$basic_string@DU?$char_traits@D@std@@V?$allocator@D@2@@std@@ABV12@@?$allocator@U?$_Tree_node@V?$basic_string@DU?$char_traits@D@std@@V?$allocator@D@2@@std@@PAX@std@@@std@@QAEXPAV?$basic_string@DU?$char_traits@D@std@@V?$allocator@D@2@@1@ABV21@@Z 00406970 f i ctpmd.obj
 0001:000059e0       ??$construct@V?$basic_string@DU?$char_traits@D@std@@V?$allocator@D@2@@std@@ABV12@@?$allocator_traits@V?$allocator@U?$_Tree_node@V?$basic_string@DU?$char_traits@D@std@@V?$allocator@D@2@@std@@PAX@std@@@std@@@std@@SAXAAV?$allocator@U?$_Tree_node@V?$basic_string@DU?$char_traits@D@std@@V?$allocator@D@2@@std@@PAX@std@@@1@PAV?$basic_string@DU?$char_traits@D@std@@V?$allocator@D@2@@1@ABV31@@Z 004069e0 f i ctpmd.obj
 0001:00005a40       ??$construct@V?$basic_string@DU?$char_traits@D@std@@V?$allocator@D@2@@std@@ABV12@@?$allocator_traits@V?$allocator@V?$basic_string@DU?$char_traits@D@std@@V?$allocator@D@2@@std@@@std@@@std@@SAXAAV?$allocator@V?$basic_string@DU?$char_traits@D@std@@V?$allocator@D@2@@std@@@1@PAV?$basic_string@DU?$char_traits@D@std@@V?$allocator@D@2@@1@ABV31@@Z 00406a40 f i ctpmd.obj
 0001:00005aa0       ??$construct@V?$basic_string@DU?$char_traits@D@std@@V?$allocator@D@2@@std@@V12@@?$_Wrap_alloc@V?$allocator@V?$basic_string@DU?$char_traits@D@std@@V?$allocator@D@2@@std@@@std@@@std@@QAEXPAV?$basic_string@DU?$char_traits@D@std@@V?$allocator@D@2@@1@$$QAV21@@Z 00406aa0 f i ctpmd.obj
 0001:00005ac0       ??$construct@V?$basic_string@DU?$char_traits@D@std@@V?$allocator@D@2@@std@@V12@@?$allocator@V?$basic_string@DU?$char_traits@D@std@@V?$allocator@D@2@@std@@@std@@QAEXPAV?$basic_string@DU?$char_traits@D@std@@V?$allocator@D@2@@1@$$QAV21@@Z 00406ac0 f i ctpmd.obj
 0001:00005ae0       ??$construct@V?$basic_string@DU?$char_traits@D@std@@V?$allocator@D@2@@std@@V12@@?$allocator_traits@V?$allocator@V?$basic_string@DU?$char_traits@D@std@@V?$allocator@D@2@@std@@@std@@@std@@SAXAAV?$allocator@V?$basic_string@DU?$char_traits@D@std@@V?$allocator@D@2@@std@@@1@PAV?$basic_string@DU?$char_traits@D@std@@V?$allocator@D@2@@1@$$QAV31@@Z 00406ae0 f i ctpmd.obj
 0001:00005b00       ??$construct@V?$sub_match@PBD@std@@$$$V@?$allocator_traits@V?$allocator@V?$sub_match@PBD@std@@@std@@@std@@SAXAAV?$allocator@V?$sub_match@PBD@std@@@1@PAV?$sub_match@PBD@1@@Z 00406b00 f i ctpmd.obj
 0001:00005b20       ??$construct@V?$sub_match@PBD@std@@V12@@?$_Wrap_alloc@V?$allocator@V?$sub_match@PBD@std@@@std@@@std@@QAEXPAV?$sub_match@PBD@1@$$QAV21@@Z 00406b20 f i ctpmd.obj
 0001:00005b40       ??$construct@V?$sub_match@PBD@std@@V12@@?$allocator@V?$sub_match@PBD@std@@@std@@QAEXPAV?$sub_match@PBD@1@$$QAV21@@Z 00406b40 f i ctpmd.obj
 0001:00005b60       ??$construct@V?$sub_match@PBD@std@@V12@@?$allocator_traits@V?$allocator@V?$sub_match@PBD@std@@@std@@@std@@SAXAAV?$allocator@V?$sub_match@PBD@std@@@1@PAV?$sub_match@PBD@1@$$QAV31@@Z 00406b60 f i ctpmd.obj
 0001:00005b80       ??$copy@V?$_Vb_iterator@U?$_Wrap_alloc@V?$allocator@I@std@@@std@@@std@@V12@@std@@YA?AV?$_Vb_iterator@U?$_Wrap_alloc@V?$allocator@I@std@@@std@@@0@V10@00@Z 00406b80 f i ctpmd.obj
 0001:00005bc0       ??$copy_backward@V?$_Vb_iterator@U?$_Wrap_alloc@V?$allocator@I@std@@@std@@@std@@V12@@std@@YA?AV?$_Vb_iterator@U?$_Wrap_alloc@V?$allocator@I@std@@@std@@@0@V10@00@Z 00406bc0 f i ctpmd.obj
 0001:00005c00       ??$destroy@PAD@?$_Wrap_alloc@V?$allocator@D@std@@@std@@QAEXPAPAD@Z 00406c00 f i ctpmd.obj
 0001:00005c10       ??$destroy@PAD@?$allocator@D@std@@QAEXPAPAD@Z 00406c10 f i ctpmd.obj
 0001:00005c20       ??$destroy@PAD@?$allocator_traits@V?$allocator@D@std@@@std@@SAXAAV?$allocator@D@1@PAPAD@Z 00406c20 f i ctpmd.obj
 0001:00005c30       ??$destroy@PAU?$_Tree_node@U?$pair@$$CBV?$basic_string@DU?$char_traits@D@std@@V?$allocator@D@2@@std@@N@std@@PAX@std@@@?$_Wrap_alloc@V?$allocator@U?$_Tree_node@U?$pair@$$CBV?$basic_string@DU?$char_traits@D@std@@V?$allocator@D@2@@std@@N@std@@PAX@std@@@std@@@std@@QAEXPAPAU?$_Tree_node@U?$pair@$$CBV?$basic_string@DU?$char_traits@D@std@@V?$allocator@D@2@@std@@N@std@@PAX@1@@Z 00406c30 f i ctpmd.obj
 0001:00005c40       ??$destroy@PAU?$_Tree_node@U?$pair@$$CBV?$basic_string@DU?$char_traits@D@std@@V?$allocator@D@2@@std@@N@std@@PAX@std@@@?$allocator@U?$_Tree_node@U?$pair@$$CBV?$basic_string@DU?$char_traits@D@std@@V?$allocator@D@2@@std@@N@std@@PAX@std@@@std@@QAEXPAPAU?$_Tree_node@U?$pair@$$CBV?$basic_string@DU?$char_traits@D@std@@V?$allocator@D@2@@std@@N@std@@PAX@1@@Z 00406c40 f i ctpmd.obj
 0001:00005c50       ??$destroy@PAU?$_Tree_node@U?$pair@$$CBV?$basic_string@DU?$char_traits@D@std@@V?$allocator@D@2@@std@@N@std@@PAX@std@@@?$allocator_traits@V?$allocator@U?$_Tree_node@U?$pair@$$CBV?$basic_string@DU?$char_traits@D@std@@V?$allocator@D@2@@std@@N@std@@PAX@std@@@std@@@std@@SAXAAV?$allocator@U?$_Tree_node@U?$pair@$$CBV?$basic_string@DU?$char_traits@D@std@@V?$allocator@D@2@@std@@N@std@@PAX@std@@@1@PAPAU?$_Tree_node@U?$pair@$$CBV?$basic_string@DU?$char_traits@D@std@@V?$allocator@D@2@@std@@N@std@@PAX@1@@Z 00406c50 f i ctpmd.obj
 0001:00005c60       ??$destroy@PAU?$_Tree_node@U?$pair@$$CBV?$basic_string@DU?$char_traits@D@std@@V?$allocator@D@2@@std@@V12@@std@@PAX@std@@@?$_Wrap_alloc@V?$allocator@U?$_Tree_node@U?$pair@$$CBV?$basic_string@DU?$char_traits@D@std@@V?$allocator@D@2@@std@@V12@@std@@PAX@std@@@std@@@std@@QAEXPAPAU?$_Tree_node@U?$pair@$$CBV?$basic_string@DU?$char_traits@D@std@@V?$allocator@D@2@@std@@V12@@std@@PAX@1@@Z 00406c60 f i ctpmd.obj
 0001:00005c70       ??$destroy@PAU?$_Tree_node@U?$pair@$$CBV?$basic_string@DU?$char_traits@D@std@@V?$allocator@D@2@@std@@V12@@std@@PAX@std@@@?$allocator@U?$_Tree_node@U?$pair@$$CBV?$basic_string@DU?$char_traits@D@std@@V?$allocator@D@2@@std@@V12@@std@@PAX@std@@@std@@QAEXPAPAU?$_Tree_node@U?$pair@$$CBV?$basic_string@DU?$char_traits@D@std@@V?$allocator@D@2@@std@@V12@@std@@PAX@1@@Z 00406c70 f i ctpmd.obj
 0001:00005c80       ??$destroy@PAU?$_Tree_node@U?$pair@$$CBV?$basic_string@DU?$char_traits@D@std@@V?$allocator@D@2@@std@@V12@@std@@PAX@std@@@?$allocator_traits@V?$allocator@U?$_Tree_node@U?$pair@$$CBV?$basic_string@DU?$char_traits@D@std@@V?$allocator@D@2@@std@@V12@@std@@PAX@std@@@std@@@std@@SAXAAV?$allocator@U?$_Tree_node@U?$pair@$$CBV?$basic_string@DU?$char_traits@D@std@@V?$allocator@D@2@@std@@V12@@std@@PAX@std@@@1@PAPAU?$_Tree_node@U?$pair@$$CBV?$basic_string@DU?$char_traits@D@std@@V?$allocator@D@2@@std@@V12@@std@@PAX@1@@Z 00406c80 f i ctpmd.obj
 0001:00005c90       ??$destroy@PAU?$_Tree_node@V?$basic_string@DU?$char_traits@D@std@@V?$allocator@D@2@@std@@PAX@std@@@?$_Wrap_alloc@V?$allocator@U?$_Tree_node@V?$basic_string@DU?$char_traits@D@std@@V?$allocator@D@2@@std@@PAX@std@@@std@@@std@@QAEXPAPAU?$_Tree_node@V?$basic_string@DU?$char_traits@D@std@@V?$allocator@D@2@@std@@PAX@1@@Z 00406c90 f i ctpmd.obj
 0001:00005ca0       ??$destroy@PAU?$_Tree_node@V?$basic_string@DU?$char_traits@D@std@@V?$allocator@D@2@@std@@PAX@std@@@?$allocator@U?$_Tree_node@V?$basic_string@DU?$char_traits@D@std@@V?$allocator@D@2@@std@@PAX@std@@@std@@QAEXPAPAU?$_Tree_node@V?$basic_string@DU?$char_traits@D@std@@V?$allocator@D@2@@std@@PAX@1@@Z 00406ca0 f i ctpmd.obj
 0001:00005cb0       ??$destroy@PAU?$_Tree_node@V?$basic_string@DU?$char_traits@D@std@@V?$allocator@D@2@@std@@PAX@std@@@?$allocator_traits@V?$allocator@U?$_Tree_node@V?$basic_string@DU?$char_traits@D@std@@V?$allocator@D@2@@std@@PAX@std@@@std@@@std@@SAXAAV?$allocator@U?$_Tree_node@V?$basic_string@DU?$char_traits@D@std@@V?$allocator@D@2@@std@@PAX@std@@@1@PAPAU?$_Tree_node@V?$basic_string@DU?$char_traits@D@std@@V?$allocator@D@2@@std@@PAX@1@@Z 00406cb0 f i ctpmd.obj
 0001:00005cc0       ??$destroy@U?$pair@$$CBV?$basic_string@DU?$char_traits@D@std@@V?$allocator@D@2@@std@@N@std@@@?$_Wrap_alloc@V?$allocator@U?$_Tree_node@U?$pair@$$CBV?$basic_string@DU?$char_traits@D@std@@V?$allocator@D@2@@std@@N@std@@PAX@std@@@std@@@std@@QAEXPAU?$pair@$$CBV?$basic_string@DU?$char_traits@D@std@@V?$allocator@D@2@@std@@N@1@@Z 00406cc0 f i ctpmd.obj
 0001:00005cf0       ??$destroy@U?$pair@$$CBV?$basic_string@DU?$char_traits@D@std@@V?$allocator@D@2@@std@@N@std@@@?$allocator@U?$_Tree_node@U?$pair@$$CBV?$basic_string@DU?$char_traits@D@std@@V?$allocator@D@2@@std@@N@std@@PAX@std@@@std@@QAEXPAU?$pair@$$CBV?$basic_string@DU?$char_traits@D@std@@V?$allocator@D@2@@std@@N@1@@Z 00406cf0 f i ctpmd.obj
 0001:00005d20       ??$destroy@U?$pair@$$CBV?$basic_string@DU?$char_traits@D@std@@V?$allocator@D@2@@std@@N@std@@@?$allocator_traits@V?$allocator@U?$_Tree_node@U?$pair@$$CBV?$basic_string@DU?$char_traits@D@std@@V?$allocator@D@2@@std@@N@std@@PAX@std@@@std@@@std@@SAXAAV?$allocator@U?$_Tree_node@U?$pair@$$CBV?$basic_string@DU?$char_traits@D@std@@V?$allocator@D@2@@std@@N@std@@PAX@std@@@1@PAU?$pair@$$CBV?$basic_string@DU?$char_traits@D@std@@V?$allocator@D@2@@std@@N@1@@Z 00406d20 f i ctpmd.obj
 0001:00005d50       ??$destroy@U?$pair@$$CBV?$basic_string@DU?$char_traits@D@std@@V?$allocator@D@2@@std@@V12@@std@@@?$_Wrap_alloc@V?$allocator@U?$_Tree_node@U?$pair@$$CBV?$basic_string@DU?$char_traits@D@std@@V?$allocator@D@2@@std@@V12@@std@@PAX@std@@@std@@@std@@QAEXPAU?$pair@$$CBV?$basic_string@DU?$char_traits@D@std@@V?$allocator@D@2@@std@@V12@@1@@Z 00406d50 f i ctpmd.obj
 0001:00005da0       ??$destroy@U?$pair@$$CBV?$basic_string@DU?$char_traits@D@std@@V?$allocator@D@2@@std@@V12@@std@@@?$allocator@U?$_Tree_node@U?$pair@$$CBV?$basic_string@DU?$char_traits@D@std@@V?$allocator@D@2@@std@@V12@@std@@PAX@std@@@std@@QAEXPAU?$pair@$$CBV?$basic_string@DU?$char_traits@D@std@@V?$allocator@D@2@@std@@V12@@1@@Z 00406da0 f i ctpmd.obj
 0001:00005df0       ??$destroy@U?$pair@$$CBV?$basic_string@DU?$char_traits@D@std@@V?$allocator@D@2@@std@@V12@@std@@@?$allocator_traits@V?$allocator@U?$_Tree_node@U?$pair@$$CBV?$basic_string@DU?$char_traits@D@std@@V?$allocator@D@2@@std@@V12@@std@@PAX@std@@@std@@@std@@SAXAAV?$allocator@U?$_Tree_node@U?$pair@$$CBV?$basic_string@DU?$char_traits@D@std@@V?$allocator@D@2@@std@@V12@@std@@PAX@std@@@1@PAU?$pair@$$CBV?$basic_string@DU?$char_traits@D@std@@V?$allocator@D@2@@std@@V12@@1@@Z 00406df0 f i ctpmd.obj
 0001:00005e40       ??$destroy@U_Grp_t@?$_Tgt_state_t@PBD@std@@@?$_Wrap_alloc@V?$allocator@U_Grp_t@?$_Tgt_state_t@PBD@std@@@std@@@std@@QAEXPAU_Grp_t@?$_Tgt_state_t@PBD@1@@Z 00406e40 f i ctpmd.obj
 0001:00005e50       ??$destroy@U_Grp_t@?$_Tgt_state_t@PBD@std@@@?$allocator@U_Grp_t@?$_Tgt_state_t@PBD@std@@@std@@QAEXPAU_Grp_t@?$_Tgt_state_t@PBD@1@@Z 00406e50 f i ctpmd.obj
 0001:00005e60       ??$destroy@U_Grp_t@?$_Tgt_state_t@PBD@std@@@?$allocator_traits@V?$allocator@U_Grp_t@?$_Tgt_state_t@PBD@std@@@std@@@std@@SAXAAV?$allocator@U_Grp_t@?$_Tgt_state_t@PBD@std@@@1@PAU_Grp_t@?$_Tgt_state_t@PBD@1@@Z 00406e60 f i ctpmd.obj
 0001:00005e70       ??$destroy@U_Loop_vals_t@std@@@?$_Wrap_alloc@V?$allocator@U_Loop_vals_t@std@@@std@@@std@@QAEXPAU_Loop_vals_t@1@@Z 00406e70 f i ctpmd.obj
 0001:00005e80       ??$destroy@U_Loop_vals_t@std@@@?$allocator@U_Loop_vals_t@std@@@std@@QAEXPAU_Loop_vals_t@1@@Z 00406e80 f i ctpmd.obj
 0001:00005e90       ??$destroy@U_Loop_vals_t@std@@@?$allocator_traits@V?$allocator@U_Loop_vals_t@std@@@std@@@std@@SAXAAV?$allocator@U_Loop_vals_t@std@@@1@PAU_Loop_vals_t@1@@Z 00406e90 f i ctpmd.obj
 0001:00005ea0       ??$destroy@V?$basic_string@DU?$char_traits@D@std@@V?$allocator@D@2@@std@@@?$_Wrap_alloc@V?$allocator@U?$_Tree_node@V?$basic_string@DU?$char_traits@D@std@@V?$allocator@D@2@@std@@PAX@std@@@std@@@std@@QAEXPAV?$basic_string@DU?$char_traits@D@std@@V?$allocator@D@2@@1@@Z 00406ea0 f i ctpmd.obj
 0001:00005ed0       ??$destroy@V?$basic_string@DU?$char_traits@D@std@@V?$allocator@D@2@@std@@@?$_Wrap_alloc@V?$allocator@V?$basic_string@DU?$char_traits@D@std@@V?$allocator@D@2@@std@@@std@@@std@@QAEXPAV?$basic_string@DU?$char_traits@D@std@@V?$allocator@D@2@@1@@Z 00406ed0 f i ctpmd.obj
 0001:00005f00       ??$destroy@V?$basic_string@DU?$char_traits@D@std@@V?$allocator@D@2@@std@@@?$allocator@U?$_Tree_node@V?$basic_string@DU?$char_traits@D@std@@V?$allocator@D@2@@std@@PAX@std@@@std@@QAEXPAV?$basic_string@DU?$char_traits@D@std@@V?$allocator@D@2@@1@@Z 00406f00 f i ctpmd.obj
 0001:00005f30       ??$destroy@V?$basic_string@DU?$char_traits@D@std@@V?$allocator@D@2@@std@@@?$allocator@V?$basic_string@DU?$char_traits@D@std@@V?$allocator@D@2@@std@@@std@@QAEXPAV?$basic_string@DU?$char_traits@D@std@@V?$allocator@D@2@@1@@Z 00406f30 f i ctpmd.obj
 0001:00005f60       ??$destroy@V?$basic_string@DU?$char_traits@D@std@@V?$allocator@D@2@@std@@@?$allocator_traits@V?$allocator@U?$_Tree_node@V?$basic_string@DU?$char_traits@D@std@@V?$allocator@D@2@@std@@PAX@std@@@std@@@std@@SAXAAV?$allocator@U?$_Tree_node@V?$basic_string@DU?$char_traits@D@std@@V?$allocator@D@2@@std@@PAX@std@@@1@PAV?$basic_string@DU?$char_traits@D@std@@V?$allocator@D@2@@1@@Z 00406f60 f i ctpmd.obj
 0001:00005f90       ??$destroy@V?$basic_string@DU?$char_traits@D@std@@V?$allocator@D@2@@std@@@?$allocator_traits@V?$allocator@V?$basic_string@DU?$char_traits@D@std@@V?$allocator@D@2@@std@@@std@@@std@@SAXAAV?$allocator@V?$basic_string@DU?$char_traits@D@std@@V?$allocator@D@2@@std@@@1@PAV?$basic_string@DU?$char_traits@D@std@@V?$allocator@D@2@@1@@Z 00406f90 f i ctpmd.obj
 0001:00005fc0       ??$destroy@V?$sub_match@PBD@std@@@?$_Wrap_alloc@V?$allocator@V?$sub_match@PBD@std@@@std@@@std@@QAEXPAV?$sub_match@PBD@1@@Z 00406fc0 f i ctpmd.obj
 0001:00005fd0       ??$destroy@V?$sub_match@PBD@std@@@?$allocator@V?$sub_match@PBD@std@@@std@@QAEXPAV?$sub_match@PBD@1@@Z 00406fd0 f i ctpmd.obj
 0001:00005fe0       ??$destroy@V?$sub_match@PBD@std@@@?$allocator_traits@V?$allocator@V?$sub_match@PBD@std@@@std@@@std@@SAXAAV?$allocator@V?$sub_match@PBD@std@@@1@PAV?$sub_match@PBD@1@@Z 00406fe0 f i ctpmd.obj
 0001:00005ff0       ??$distance@PAD@std@@YAHPAD0@Z 00406ff0 f i ctpmd.obj
 0001:00006000       ??$distance@PAV?$basic_string@DU?$char_traits@D@std@@V?$allocator@D@2@@std@@@std@@YAHPAV?$basic_string@DU?$char_traits@D@std@@V?$allocator@D@2@@0@0@Z 00407000 f i ctpmd.obj
 0001:00006020       ??$distance@PBD@std@@YAHPBD0@Z 00407020 f i ctpmd.obj
 0001:00006030       ??$distance@V?$_String_iterator@V?$_String_val@U?$_Simple_types@D@std@@@std@@@std@@@std@@YAHV?$_String_iterator@V?$_String_val@U?$_Simple_types@D@std@@@std@@@0@0@Z 00407030 f i ctpmd.obj
 0001:00006040       ??$duration_cast@V?$duration@_JU?$ratio@$00$0DOI@@std@@@chrono@std@@_JU?$ratio@$00$0JIJGIA@@3@@chrono@std@@YA?AV?$duration@_JU?$ratio@$00$0DOI@@std@@@01@ABV?$duration@_JU?$ratio@$00$0JIJGIA@@std@@@01@@Z 00407040 f i ctpmd.obj
 0001:00006070       ??$emplace@AAV?$basic_string@DU?$char_traits@D@std@@V?$allocator@D@2@@std@@@?$_Tree@V?$_Tset_traits@V?$basic_string@DU?$char_traits@D@std@@V?$allocator@D@2@@std@@U?$less@V?$basic_string@DU?$char_traits@D@std@@V?$allocator@D@2@@std@@@2@V?$allocator@V?$basic_string@DU?$char_traits@D@std@@V?$allocator@D@2@@std@@@2@$0A@@std@@@std@@QAE?AU?$pair@V?$_Tree_const_iterator@V?$_Tree_val@U?$_Tree_simple_types@V?$basic_string@DU?$char_traits@D@std@@V?$allocator@D@2@@std@@@std@@@std@@@std@@_N@1@AAV?$basic_string@DU?$char_traits@D@std@@V?$allocator@D@2@@1@@Z 00407070 f i ctpmd.obj
 0001:000060a0       ??$emplace_hint@ABUpiecewise_construct_t@std@@V?$tuple@$$QAV?$basic_string@DU?$char_traits@D@std@@V?$allocator@D@2@@std@@@2@V?$tuple@$$$V@2@@?$_Tree@V?$_Tmap_traits@V?$basic_string@DU?$char_traits@D@std@@V?$allocator@D@2@@std@@NU?$less@V?$basic_string@DU?$char_traits@D@std@@V?$allocator@D@2@@std@@@2@V?$allocator@U?$pair@$$CBV?$basic_string@DU?$char_traits@D@std@@V?$allocator@D@2@@std@@N@std@@@2@$0A@@std@@@std@@QAE?AV?$_Tree_iterator@V?$_Tree_val@U?$_Tree_simple_types@U?$pair@$$CBV?$basic_string@DU?$char_traits@D@std@@V?$allocator@D@2@@std@@N@std@@@std@@@std@@@1@V?$_Tree_const_iterator@V?$_Tree_val@U?$_Tree_simple_types@U?$pair@$$CBV?$basic_string@DU?$char_traits@D@std@@V?$allocator@D@2@@std@@N@std@@@std@@@std@@@1@ABUpiecewise_construct_t@1@$$QAV?$tuple@$$QAV?$basic_string@DU?$char_traits@D@std@@V?$allocator@D@2@@std@@@1@$$QAV?$tuple@$$$V@1@@Z 004070a0 f i ctpmd.obj
 0001:000060d0       ??$emplace_hint@ABUpiecewise_construct_t@std@@V?$tuple@$$QAV?$basic_string@DU?$char_traits@D@std@@V?$allocator@D@2@@std@@@2@V?$tuple@$$$V@2@@?$_Tree@V?$_Tmap_traits@V?$basic_string@DU?$char_traits@D@std@@V?$allocator@D@2@@std@@V12@U?$less@V?$basic_string@DU?$char_traits@D@std@@V?$allocator@D@2@@std@@@2@V?$allocator@U?$pair@$$CBV?$basic_string@DU?$char_traits@D@std@@V?$allocator@D@2@@std@@V12@@std@@@2@$0A@@std@@@std@@QAE?AV?$_Tree_iterator@V?$_Tree_val@U?$_Tree_simple_types@U?$pair@$$CBV?$basic_string@DU?$char_traits@D@std@@V?$allocator@D@2@@std@@V12@@std@@@std@@@std@@@1@V?$_Tree_const_iterator@V?$_Tree_val@U?$_Tree_simple_types@U?$pair@$$CBV?$basic_string@DU?$char_traits@D@std@@V?$allocator@D@2@@std@@V12@@std@@@std@@@std@@@1@ABUpiecewise_construct_t@1@$$QAV?$tuple@$$QAV?$basic_string@DU?$char_traits@D@std@@V?$allocator@D@2@@std@@@1@$$QAV?$tuple@$$$V@1@@Z 004070d0 f i ctpmd.obj
 0001:00006100       ??$fill@V?$_Vb_iterator@U?$_Wrap_alloc@V?$allocator@I@std@@@std@@@std@@_N@std@@YAXV?$_Vb_iterator@U?$_Wrap_alloc@V?$allocator@I@std@@@std@@@0@0AB_N@Z 00407100 f i ctpmd.obj
 0001:00006120       ??$find@PBDD@std@@YAPBDPBD0ABD@Z 00407120 f i ctpmd.obj
 0001:00006160       ??$format_decimal@ID@internal@fmt@@YAXPADII@Z 00407160 f i ctpmd.obj
 0001:00006180       ??$format_decimal@IDUNoThousandsSep@internal@fmt@@@internal@fmt@@YAXPADIIUNoThousandsSep@01@@Z 00407180 f i ctpmd.obj
 0001:000061f0       ??$forward@$$QAV?$basic_string@DU?$char_traits@D@std@@V?$allocator@D@2@@std@@@std@@YA$$QAV?$basic_string@DU?$char_traits@D@std@@V?$allocator@D@2@@0@AAV10@@Z 004071f0 f i ctpmd.obj
 0001:00006200       ??$forward@AAPAD@std@@YAAAPADAAPAD@Z 00407200 f i ctpmd.obj
 0001:00006210       ??$forward@AAPAU?$_Tree_node@U?$pair@$$CBV?$basic_string@DU?$char_traits@D@std@@V?$allocator@D@2@@std@@N@std@@PAX@std@@@std@@YAAAPAU?$_Tree_node@U?$pair@$$CBV?$basic_string@DU?$char_traits@D@std@@V?$allocator@D@2@@std@@N@std@@PAX@0@AAPAU10@@Z 00407210 f i ctpmd.obj
 0001:00006220       ??$forward@AAPAU?$_Tree_node@U?$pair@$$CBV?$basic_string@DU?$char_traits@D@std@@V?$allocator@D@2@@std@@V12@@std@@PAX@std@@@std@@YAAAPAU?$_Tree_node@U?$pair@$$CBV?$basic_string@DU?$char_traits@D@std@@V?$allocator@D@2@@std@@V12@@std@@PAX@0@AAPAU10@@Z 00407220 f i ctpmd.obj
 0001:00006230       ??$forward@AAPAU?$_Tree_node@V?$basic_string@DU?$char_traits@D@std@@V?$allocator@D@2@@std@@PAX@std@@@std@@YAAAPAU?$_Tree_node@V?$basic_string@DU?$char_traits@D@std@@V?$allocator@D@2@@std@@PAX@0@AAPAU10@@Z 00407230 f i ctpmd.obj
 0001:00006240       ??$forward@AAU?$pair@$$CBV?$basic_string@DU?$char_traits@D@std@@V?$allocator@D@2@@std@@N@std@@@std@@YAAAU?$pair@$$CBV?$basic_string@DU?$char_traits@D@std@@V?$allocator@D@2@@std@@N@0@AAU10@@Z 00407240 f i ctpmd.obj
 0001:00006250       ??$forward@AAU?$pair@$$CBV?$basic_string@DU?$char_traits@D@std@@V?$allocator@D@2@@std@@V12@@std@@@std@@YAAAU?$pair@$$CBV?$basic_string@DU?$char_traits@D@std@@V?$allocator@D@2@@std@@V12@@0@AAU10@@Z 00407250 f i ctpmd.obj
 0001:00006260       ??$forward@AAU_Grp_t@?$_Tgt_state_t@PBD@std@@@std@@YAAAU_Grp_t@?$_Tgt_state_t@PBD@0@AAU120@@Z 00407260 f i ctpmd.obj
 0001:00006270       ??$forward@AAV?$_Tree_const_iterator@V?$_Tree_val@U?$_Tree_simple_types@V?$basic_string@DU?$char_traits@D@std@@V?$allocator@D@2@@std@@@std@@@std@@@std@@@std@@YAAAV?$_Tree_const_iterator@V?$_Tree_val@U?$_Tree_simple_types@V?$basic_string@DU?$char_traits@D@std@@V?$allocator@D@2@@std@@@std@@@std@@@0@AAV10@@Z 00407270 f i ctpmd.obj
 0001:00006280       ??$forward@AAV?$_Tree_iterator@V?$_Tree_val@U?$_Tree_simple_types@U?$pair@$$CBV?$basic_string@DU?$char_traits@D@std@@V?$allocator@D@2@@std@@N@std@@@std@@@std@@@std@@@std@@YAAAV?$_Tree_iterator@V?$_Tree_val@U?$_Tree_simple_types@U?$pair@$$CBV?$basic_string@DU?$char_traits@D@std@@V?$allocator@D@2@@std@@N@std@@@std@@@std@@@0@AAV10@@Z 00407280 f i ctpmd.obj
 0001:00006290       ??$forward@AAV?$_Tree_iterator@V?$_Tree_val@U?$_Tree_simple_types@U?$pair@$$CBV?$basic_string@DU?$char_traits@D@std@@V?$allocator@D@2@@std@@V12@@std@@@std@@@std@@@std@@@std@@YAAAV?$_Tree_iterator@V?$_Tree_val@U?$_Tree_simple_types@U?$pair@$$CBV?$basic_string@DU?$char_traits@D@std@@V?$allocator@D@2@@std@@V12@@std@@@std@@@std@@@0@AAV10@@Z 00407290 f i ctpmd.obj
 0001:000062a0       ??$forward@AAV?$basic_string@DU?$char_traits@D@std@@V?$allocator@D@2@@std@@@std@@YAAAV?$basic_string@DU?$char_traits@D@std@@V?$allocator@D@2@@0@AAV10@@Z 004072a0 f i ctpmd.obj
 0001:000062b0       ??$forward@ABU_Grp_t@?$_Tgt_state_t@PBD@std@@@std@@YAABU_Grp_t@?$_Tgt_state_t@PBD@0@ABU120@@Z 004072b0 f i ctpmd.obj
 0001:000062c0       ??$forward@ABUpiecewise_construct_t@std@@@std@@YAABUpiecewise_construct_t@0@ABU10@@Z 004072c0 f i ctpmd.obj
 0001:000062d0       ??$forward@ABV?$basic_string@DU?$char_traits@D@std@@V?$allocator@D@2@@std@@@std@@YAABV?$basic_string@DU?$char_traits@D@std@@V?$allocator@D@2@@0@ABV10@@Z 004072d0 f i ctpmd.obj
 0001:000062e0       ??$forward@D@std@@YA$$QADAAD@Z 004072e0 f i ctpmd.obj
 0001:000062f0       ??$forward@U_Grp_t@?$_Tgt_state_t@PBD@std@@@std@@YA$$QAU_Grp_t@?$_Tgt_state_t@PBD@0@AAU120@@Z 004072f0 f i ctpmd.obj
 0001:00006300       ??$forward@U_Loop_vals_t@std@@@std@@YA$$QAU_Loop_vals_t@0@AAU10@@Z 00407300 f i ctpmd.obj
 0001:00006310       ??$forward@V?$_Ptr_base@VEvent_Log@@@std@@@std@@YA$$QAV?$_Ptr_base@VEvent_Log@@@0@AAV10@@Z 00407310 f i ctpmd.obj
 0001:00006320       ??$forward@V?$_Ptr_base@VEvent_Tick@@@std@@@std@@YA$$QAV?$_Ptr_base@VEvent_Tick@@@0@AAV10@@Z 00407320 f i ctpmd.obj
 0001:00006330       ??$forward@V?$_Tree_const_iterator@V?$_Tree_val@U?$_Tree_simple_types@V?$basic_string@DU?$char_traits@D@std@@V?$allocator@D@2@@std@@@std@@@std@@@std@@@std@@YA$$QAV?$_Tree_const_iterator@V?$_Tree_val@U?$_Tree_simple_types@V?$basic_string@DU?$char_traits@D@std@@V?$allocator@D@2@@std@@@std@@@std@@@0@AAV10@@Z 00407330 f i ctpmd.obj
 0001:00006340       ??$forward@V?$_Tree_iterator@V?$_Tree_val@U?$_Tree_simple_types@U?$pair@$$CBV?$basic_string@DU?$char_traits@D@std@@V?$allocator@D@2@@std@@N@std@@@std@@@std@@@std@@@std@@YA$$QAV?$_Tree_iterator@V?$_Tree_val@U?$_Tree_simple_types@U?$pair@$$CBV?$basic_string@DU?$char_traits@D@std@@V?$allocator@D@2@@std@@N@std@@@std@@@std@@@0@AAV10@@Z 00407340 f i ctpmd.obj
 0001:00006350       ??$forward@V?$_Tree_iterator@V?$_Tree_val@U?$_Tree_simple_types@U?$pair@$$CBV?$basic_string@DU?$char_traits@D@std@@V?$allocator@D@2@@std@@V12@@std@@@std@@@std@@@std@@@std@@YA$$QAV?$_Tree_iterator@V?$_Tree_val@U?$_Tree_simple_types@U?$pair@$$CBV?$basic_string@DU?$char_traits@D@std@@V?$allocator@D@2@@std@@V12@@std@@@std@@@std@@@0@AAV10@@Z 00407350 f i ctpmd.obj
 0001:00006360       ??$forward@V?$basic_string@DU?$char_traits@D@std@@V?$allocator@D@2@@std@@@std@@YA$$QAV?$basic_string@DU?$char_traits@D@std@@V?$allocator@D@2@@0@AAV10@@Z 00407360 f i ctpmd.obj
 0001:00006370       ??$forward@V?$shared_ptr@VEvent_Log@@@std@@@std@@YA$$QAV?$shared_ptr@VEvent_Log@@@0@AAV10@@Z 00407370 f i ctpmd.obj
 0001:00006380       ??$forward@V?$shared_ptr@VEvent_Tick@@@std@@@std@@YA$$QAV?$shared_ptr@VEvent_Tick@@@0@AAV10@@Z 00407380 f i ctpmd.obj
 0001:00006390       ??$forward@V?$sub_match@PBD@std@@@std@@YA$$QAV?$sub_match@PBD@0@AAV10@@Z 00407390 f i ctpmd.obj
 0001:000063a0       ??$forward@V?$tuple@$$$V@std@@@std@@YA$$QAV?$tuple@$$$V@0@AAV10@@Z 004073a0 f i ctpmd.obj
 0001:000063b0       ??$forward@V?$tuple@$$QAV?$basic_string@DU?$char_traits@D@std@@V?$allocator@D@2@@std@@@std@@@std@@YA$$QAV?$tuple@$$QAV?$basic_string@DU?$char_traits@D@std@@V?$allocator@D@2@@std@@@0@AAV10@@Z 004073b0 f i ctpmd.obj
 0001:000063c0       ??$forward@_N@std@@YA$$QA_NAA_N@Z 004073c0 f i ctpmd.obj
 0001:000063d0       ??$forward_as_tuple@V?$basic_string@DU?$char_traits@D@std@@V?$allocator@D@2@@std@@@std@@YA?AV?$tuple@$$QAV?$basic_string@DU?$char_traits@D@std@@V?$allocator@D@2@@std@@@0@$$QAV?$basic_string@DU?$char_traits@D@std@@V?$allocator@D@2@@0@@Z 004073d0 f i ctpmd.obj
 0001:000063e0       ??$get@$0A@$$QAV?$basic_string@DU?$char_traits@D@std@@V?$allocator@D@2@@std@@@std@@YA$$QAV?$basic_string@DU?$char_traits@D@std@@V?$allocator@D@2@@0@$$QAV?$tuple@$$QAV?$basic_string@DU?$char_traits@D@std@@V?$allocator@D@2@@std@@@0@@Z 004073e0 f i ctpmd.obj
 0001:000063f0       ??$getline@DU?$char_traits@D@std@@V?$allocator@D@2@@std@@YAAAV?$basic_istream@DU?$char_traits@D@std@@@0@$$QAV10@AAV?$basic_string@DU?$char_traits@D@std@@V?$allocator@D@2@@0@D@Z 004073f0 f i ctpmd.obj
 0001:00006560       ??$getline@DU?$char_traits@D@std@@V?$allocator@D@2@@std@@YAAAV?$basic_istream@DU?$char_traits@D@std@@@0@AAV10@AAV?$basic_string@DU?$char_traits@D@std@@V?$allocator@D@2@@0@@Z 00407560 f i ctpmd.obj
 0001:00006590       ??$insert@PBV?$basic_string@DU?$char_traits@D@std@@V?$allocator@D@2@@std@@@?$vector@V?$basic_string@DU?$char_traits@D@std@@V?$allocator@D@2@@std@@V?$allocator@V?$basic_string@DU?$char_traits@D@std@@V?$allocator@D@2@@std@@@2@@std@@QAE?AV?$_Vector_iterator@V?$_Vector_val@U?$_Simple_types@V?$basic_string@DU?$char_traits@D@std@@V?$allocator@D@2@@std@@@std@@@std@@@1@V?$_Vector_const_iterator@V?$_Vector_val@U?$_Simple_types@V?$basic_string@DU?$char_traits@D@std@@V?$allocator@D@2@@std@@@std@@@std@@@1@PBV?$basic_string@DU?$char_traits@D@std@@V?$allocator@D@2@@1@1@Z 00407590 f i ctpmd.obj
 0001:000065e0       ??$insert@V?$_Vector_iterator@V?$_Vector_val@U?$_Simple_types@V?$basic_string@DU?$char_traits@D@std@@V?$allocator@D@2@@std@@@std@@@std@@@std@@@?$set@V?$basic_string@DU?$char_traits@D@std@@V?$allocator@D@2@@std@@U?$less@V?$basic_string@DU?$char_traits@D@std@@V?$allocator@D@2@@std@@@2@V?$allocator@V?$basic_string@DU?$char_traits@D@std@@V?$allocator@D@2@@std@@@2@@std@@QAEXV?$_Vector_iterator@V?$_Vector_val@U?$_Simple_types@V?$basic_string@DU?$char_traits@D@std@@V?$allocator@D@2@@std@@@std@@@std@@@1@0@Z 004075e0 f i ctpmd.obj
 0001:00006620       ??$is_negative@H@?$SignChecker@$00@internal@fmt@@SA_NH@Z 00407620 f i ctpmd.obj
 0001:00006630       ??$is_negative@H@internal@fmt@@YA_NH@Z 00407630 f i ctpmd.obj
 0001:00006640       ??$iter_swap@PADPAD@std@@YAXPAD0@Z 00407640 f i ctpmd.obj
 0001:00006660       ??$iter_swap@PAV?$basic_string@DU?$char_traits@D@std@@V?$allocator@D@2@@std@@PAV12@@std@@YAXPAV?$basic_string@DU?$char_traits@D@std@@V?$allocator@D@2@@0@0@Z 00407660 f i ctpmd.obj
 0001:000066a0       ??$lookup_classname@PBD@?$_Regex_traits@D@std@@QBEFPBD0_N@Z 004076a0 f i ctpmd.obj
 0001:00006750       ??$make_ptr@D@internal@fmt@@YAPADPADI@Z 00407750 f i ctpmd.obj
 0001:00006760       ??$make_shared@VEvent_Log@@$$$V@std@@YA?AV?$shared_ptr@VEvent_Log@@@0@XZ 00407760 f i ctpmd.obj
 0001:00006800       ??$make_shared@VEvent_Tick@@$$$V@std@@YA?AV?$shared_ptr@VEvent_Tick@@@0@XZ 00407800 f i ctpmd.obj
 0001:000068a0       ??$move@AAV?$basic_istream@DU?$char_traits@D@std@@@std@@@std@@YA$$QAV?$basic_istream@DU?$char_traits@D@std@@@0@AAV10@@Z 004078a0 f i ctpmd.obj
 0001:000068b0       ??$move@AAV?$basic_string@DU?$char_traits@D@std@@V?$allocator@D@2@@std@@@std@@YA$$QAV?$basic_string@DU?$char_traits@D@std@@V?$allocator@D@2@@0@AAV10@@Z 004078b0 f i ctpmd.obj
 0001:000068c0       ??$move@AAV?$tuple@$$QAV?$basic_string@DU?$char_traits@D@std@@V?$allocator@D@2@@std@@@std@@@std@@YA$$QAV?$tuple@$$QAV?$basic_string@DU?$char_traits@D@std@@V?$allocator@D@2@@std@@@0@AAV10@@Z 004078c0 f i ctpmd.obj
 0001:000068d0       ??$regex_replace@V?$back_insert_iterator@V?$basic_string@DU?$char_traits@D@std@@V?$allocator@D@2@@std@@@std@@V?$_String_const_iterator@V?$_String_val@U?$_Simple_types@D@std@@@std@@@2@V?$regex_traits@D@2@DU?$char_traits@D@2@V?$allocator@D@2@@std@@YA?AV?$back_insert_iterator@V?$basic_string@DU?$char_traits@D@std@@V?$allocator@D@2@@std@@@0@V10@V?$_String_const_iterator@V?$_String_val@U?$_Simple_types@D@std@@@std@@@0@1ABV?$basic_regex@DV?$regex_traits@D@std@@@0@ABV?$basic_string@DU?$char_traits@D@std@@V?$allocator@D@2@@0@W4match_flag_type@regex_constants@0@@Z 004078d0 f i ctpmd.obj
 0001:00006900       ??$regex_replace@V?$regex_traits@D@std@@DU?$char_traits@D@2@V?$allocator@D@2@@std@@YA?AV?$basic_string@DU?$char_traits@D@std@@V?$allocator@D@2@@0@ABV10@ABV?$basic_regex@DV?$regex_traits@D@std@@@0@PBDW4match_flag_type@regex_constants@0@@Z 00407900 f i ctpmd.obj
 0001:00006a00       ??$regex_search@PBDV?$allocator@V?$sub_match@PBD@std@@@std@@DV?$regex_traits@D@2@@std@@YA_NPBD0AAV?$match_results@PBDV?$allocator@V?$sub_match@PBD@std@@@std@@@0@ABV?$basic_regex@DV?$regex_traits@D@std@@@0@W4match_flag_type@regex_constants@0@@Z 00407a00 f i ctpmd.obj
 0001:00006a20       ??$rotate@PAV?$basic_string@DU?$char_traits@D@std@@V?$allocator@D@2@@std@@@std@@YAPAV?$basic_string@DU?$char_traits@D@std@@V?$allocator@D@2@@0@PAV10@00@Z 00407a20 f i ctpmd.obj
 0001:00006a70       ??$swap@D$0BA@@std@@YAXAAY0BA@D0@Z 00407a70 f i ctpmd.obj
 0001:00006ab0       ??$swap@D@std@@YAXAAD0@Z   00407ab0 f i ctpmd.obj
 0001:00006ad0       ??$swap@DU?$char_traits@D@std@@V?$allocator@D@2@@std@@YAXAAV?$basic_string@DU?$char_traits@D@std@@V?$allocator@D@2@@0@0@Z 00407ad0 f i ctpmd.obj
 0001:00006b10       ??$swap@I@std@@YAXAAI0@Z   00407b10 f i ctpmd.obj
 0001:00006b30       ??$swap@PAD@std@@YAXAAPAD0@Z 00407b30 f i ctpmd.obj
 0001:00006b50       ??$swap@PAVEvent_Log@@@std@@YAXAAPAVEvent_Log@@0@Z 00407b50 f i ctpmd.obj
 0001:00006b70       ??$swap@PAVEvent_Tick@@@std@@YAXAAPAVEvent_Tick@@0@Z 00407b70 f i ctpmd.obj
 0001:00006b90       ??$swap@PAV_Ref_count_base@std@@@std@@YAXAAPAV_Ref_count_base@0@0@Z 00407b90 f i ctpmd.obj
 0001:00006bb0       ??$swap@T_Bxty@?$_String_val@U?$_Simple_types@D@std@@@std@@@std@@YAXAAT_Bxty@?$_String_val@U?$_Simple_types@D@std@@@0@0@Z 00407bb0 f i ctpmd.obj
 0001:00006bd0       ??$to_unsigned@H@internal@fmt@@YAIH@Z 00407bd0 f i ctpmd.obj
 0001:00006be0       ??$transform_primary@PAD@?$_Regex_traits@D@std@@QBE?AV?$basic_string@DU?$char_traits@D@std@@V?$allocator@D@2@@1@PAD0@Z 00407be0 f i ctpmd.obj
 0001:00006d90       ??$transform_primary@PBD@?$_Regex_traits@D@std@@QBE?AV?$basic_string@DU?$char_traits@D@std@@V?$allocator@D@2@@1@PBD0@Z 00407d90 f i ctpmd.obj
 0001:00006f40       ??$transform_primary@V?$_String_iterator@V?$_String_val@U?$_Simple_types@D@std@@@std@@@std@@@?$_Regex_traits@D@std@@QBE?AV?$basic_string@DU?$char_traits@D@std@@V?$allocator@D@2@@1@V?$_String_iterator@V?$_String_val@U?$_Simple_types@D@std@@@std@@@1@0@Z 00407f40 f i ctpmd.obj
 0001:000070f0       ??$uninitialized_copy@PADPAD@std@@YAPADPAD00@Z 004080f0 f i ctpmd.obj
 0001:00007120       ??$uninitialized_copy@PBDPAD@std@@YAPADPBD0PAD@Z 00408120 f i ctpmd.obj
 0001:00007150       ??$use_facet@V?$codecvt@DDH@std@@@std@@YAABV?$codecvt@DDH@0@ABVlocale@0@@Z 00408150 f i ctpmd.obj
 0001:00007240       ??$use_facet@V?$collate@D@std@@@std@@YAABV?$collate@D@0@ABVlocale@0@@Z 00408240 f i ctpmd.obj
 0001:00007340       ??$use_facet@V?$ctype@D@std@@@std@@YAABV?$ctype@D@0@ABVlocale@0@@Z 00408340 f i ctpmd.obj
 0001:00007430       ??$write_decimal@H@?$BasicWriter@D@fmt@@AAEXH@Z 00408430 f i ctpmd.obj
 0001:00007460       ??$write_unsigned_decimal@I@?$BasicWriter@D@fmt@@AAEPADII@Z 00408460 f i ctpmd.obj
 0001:00007500       ??0?$BasicMemoryWriter@DV?$allocator@D@std@@@fmt@@QAE@ABV?$allocator@D@std@@@Z 00408500 f i ctpmd.obj
 0001:00007530       ??0?$BasicStringRef@D@fmt@@QAE@PBD@Z 00408530 f i ctpmd.obj
 0001:00007570       ??0?$BasicWriter@D@fmt@@IAE@AAV?$Buffer@D@1@@Z 00408570 f i ctpmd.obj
 0001:00007590       ??0?$Buffer@D@fmt@@IAE@PADI@Z 00408590 f i ctpmd.obj
 0001:000075c0       ??0?$MemoryBuffer@D$0BPE@V?$allocator@D@std@@@internal@fmt@@QAE@ABV?$allocator@D@std@@@Z 004085c0 f i ctpmd.obj
 0001:000075e0       ??0?$_Bt_state_t@PBD@std@@QAE@ABV01@@Z 004085e0 f i ctpmd.obj
 0001:00007610       ??0?$_Bt_state_t@PBD@std@@QAE@XZ 00408610 f i ctpmd.obj
 0001:00007660       ??0?$_Buf@D@std@@QAE@XZ    00408660 f i ctpmd.obj
 0001:00007680       ??0?$_Builder@PBDDV?$regex_traits@D@std@@@std@@QAE@ABV?$regex_traits@D@1@W4syntax_option_type@regex_constants@1@@Z 00408680 f i ctpmd.obj
 0001:00007710       ??0?$_Cmp_collate@V?$regex_traits@D@std@@@std@@QAE@ABV?$regex_traits@D@1@@Z 00408710 f i ctpmd.obj
 0001:00007720       ??0?$_Cmp_icase@V?$_Regex_traits@D@std@@@std@@QAE@ABV?$_Regex_traits@D@1@@Z 00408720 f i ctpmd.obj
 0001:00007730       ??0?$_Cmp_icase@V?$regex_traits@D@std@@@std@@QAE@ABV?$regex_traits@D@1@@Z 00408730 f i ctpmd.obj
 0001:00007740       ??0?$_Matcher@PBDDV?$regex_traits@D@std@@PBD@std@@QAE@PBD0ABV?$regex_traits@D@1@PAV_Root_node@1@HW4syntax_option_type@regex_constants@1@W4match_flag_type@51@@Z 00408740 f i ctpmd.obj
 0001:00007880       ??0?$_Node_class@DV?$regex_traits@D@std@@@std@@QAE@W4_Node_type@1@W4_Node_flags@1@@Z 00408880 f i ctpmd.obj
 0001:000078d0       ??0?$_Node_str@D@std@@QAE@W4_Node_flags@1@@Z 004088d0 f i ctpmd.obj
 0001:00007910       ??0?$_Parser@PBDDV?$regex_traits@D@std@@@std@@QAE@ABV?$regex_traits@D@1@PBD1W4syntax_option_type@regex_constants@1@@Z 00408910 f i ctpmd.obj
 0001:00007a50       ??0?$_Ptr_base@VEvent@@@std@@QAE@XZ 00408a50 f i ctpmd.obj
 0001:00007a60       ??0?$_Ptr_base@VEvent_Log@@@std@@QAE@$$QAV01@@Z 00408a60 f i ctpmd.obj
 0001:00007aa0       ??0?$_Ptr_base@VEvent_Log@@@std@@QAE@XZ 00408aa0 f i ctpmd.obj
 0001:00007ab0       ??0?$_Ptr_base@VEvent_Tick@@@std@@QAE@$$QAV01@@Z 00408ab0 f i ctpmd.obj
 0001:00007af0       ??0?$_Ptr_base@VEvent_Tick@@@std@@QAE@XZ 00408af0 f i ctpmd.obj
 0001:00007b00       ??0?$_Regex_traits@D@std@@QAE@XZ 00408b00 f i ctpmd.obj
 0001:00007b30       ??0?$_Sequence@D@std@@QAE@I@Z 00408b30 f i ctpmd.obj
 0001:00007b60       ??0?$_String_alloc@$0A@U?$_String_base_types@DV?$allocator@D@std@@@std@@@std@@QAE@ABV?$allocator@D@1@@Z 00408b60 f i ctpmd.obj
 0001:00007b80       ??0?$_String_const_iterator@V?$_String_val@U?$_Simple_types@D@std@@@std@@@std@@QAE@PBDPBU_Container_base0@1@@Z 00408b80 f i ctpmd.obj
 0001:00007b90       ??0?$_String_iterator@V?$_String_val@U?$_Simple_types@D@std@@@std@@@std@@QAE@PADPBU_Container_base0@1@@Z 00408b90 f i ctpmd.obj
 0001:00007ba0       ??0?$_String_val@U?$_Simple_types@D@std@@@std@@QAE@XZ 00408ba0 f i ctpmd.obj
 0001:00007bc0       ??0?$_Tgt_state_t@PBD@std@@QAE@ABV01@@Z 00408bc0 f i ctpmd.obj
 0001:00007c30       ??0?$_Tgt_state_t@PBD@std@@QAE@XZ 00408c30 f i ctpmd.obj
 0001:00007c90       ??0?$_Tree@V?$_Tmap_traits@V?$basic_string@DU?$char_traits@D@std@@V?$allocator@D@2@@std@@NU?$less@V?$basic_string@DU?$char_traits@D@std@@V?$allocator@D@2@@std@@@2@V?$allocator@U?$pair@$$CBV?$basic_string@DU?$char_traits@D@std@@V?$allocator@D@2@@std@@N@std@@@2@$0A@@std@@@std@@QAE@ABU?$less@V?$basic_string@DU?$char_traits@D@std@@V?$allocator@D@2@@std@@@1@ABV?$allocator@U?$pair@$$CBV?$basic_string@DU?$char_traits@D@std@@V?$allocator@D@2@@std@@N@std@@@1@@Z 00408c90 f i ctpmd.obj
 0001:00007cb0       ??0?$_Tree@V?$_Tmap_traits@V?$basic_string@DU?$char_traits@D@std@@V?$allocator@D@2@@std@@V12@U?$less@V?$basic_string@DU?$char_traits@D@std@@V?$allocator@D@2@@std@@@2@V?$allocator@U?$pair@$$CBV?$basic_string@DU?$char_traits@D@std@@V?$allocator@D@2@@std@@V12@@std@@@2@$0A@@std@@@std@@QAE@ABU?$less@V?$basic_string@DU?$char_traits@D@std@@V?$allocator@D@2@@std@@@1@ABV?$allocator@U?$pair@$$CBV?$basic_string@DU?$char_traits@D@std@@V?$allocator@D@2@@std@@V12@@std@@@1@@Z 00408cb0 f i ctpmd.obj
 0001:00007cd0       ??0?$_Tree@V?$_Tset_traits@V?$basic_string@DU?$char_traits@D@std@@V?$allocator@D@2@@std@@U?$less@V?$basic_string@DU?$char_traits@D@std@@V?$allocator@D@2@@std@@@2@V?$allocator@V?$basic_string@DU?$char_traits@D@std@@V?$allocator@D@2@@std@@@2@$0A@@std@@@std@@QAE@ABU?$less@V?$basic_string@DU?$char_traits@D@std@@V?$allocator@D@2@@std@@@1@ABV?$allocator@V?$basic_string@DU?$char_traits@D@std@@V?$allocator@D@2@@std@@@1@@Z 00408cd0 f i ctpmd.obj
 0001:00007cf0       ??0?$_Tree_alloc@$0A@U?$_Tree_base_types@U?$pair@$$CBV?$basic_string@DU?$char_traits@D@std@@V?$allocator@D@2@@std@@N@std@@V?$allocator@U?$pair@$$CBV?$basic_string@DU?$char_traits@D@std@@V?$allocator@D@2@@std@@N@std@@@2@@std@@@std@@QAE@ABV?$allocator@U?$pair@$$CBV?$basic_string@DU?$char_traits@D@std@@V?$allocator@D@2@@std@@N@std@@@1@@Z 00408cf0 f i ctpmd.obj
 0001:00007d10       ??0?$_Tree_alloc@$0A@U?$_Tree_base_types@U?$pair@$$CBV?$basic_string@DU?$char_traits@D@std@@V?$allocator@D@2@@std@@V12@@std@@V?$allocator@U?$pair@$$CBV?$basic_string@DU?$char_traits@D@std@@V?$allocator@D@2@@std@@V12@@std@@@2@@std@@@std@@QAE@ABV?$allocator@U?$pair@$$CBV?$basic_string@DU?$char_traits@D@std@@V?$allocator@D@2@@std@@V12@@std@@@1@@Z 00408d10 f i ctpmd.obj
 0001:00007d30       ??0?$_Tree_alloc@$0A@U?$_Tree_base_types@V?$basic_string@DU?$char_traits@D@std@@V?$allocator@D@2@@std@@V?$allocator@V?$basic_string@DU?$char_traits@D@std@@V?$allocator@D@2@@std@@@2@@std@@@std@@QAE@ABV?$allocator@V?$basic_string@DU?$char_traits@D@std@@V?$allocator@D@2@@std@@@1@@Z 00408d30 f i ctpmd.obj
 0001:00007d50       ??0?$_Tree_buy@U?$pair@$$CBV?$basic_string@DU?$char_traits@D@std@@V?$allocator@D@2@@std@@N@std@@V?$allocator@U?$pair@$$CBV?$basic_string@DU?$char_traits@D@std@@V?$allocator@D@2@@std@@N@std@@@2@@std@@QAE@ABV?$allocator@U?$pair@$$CBV?$basic_string@DU?$char_traits@D@std@@V?$allocator@D@2@@std@@N@std@@@1@@Z 00408d50 f i ctpmd.obj
 0001:00007d70       ??0?$_Tree_buy@U?$pair@$$CBV?$basic_string@DU?$char_traits@D@std@@V?$allocator@D@2@@std@@V12@@std@@V?$allocator@U?$pair@$$CBV?$basic_string@DU?$char_traits@D@std@@V?$allocator@D@2@@std@@V12@@std@@@2@@std@@QAE@ABV?$allocator@U?$pair@$$CBV?$basic_string@DU?$char_traits@D@std@@V?$allocator@D@2@@std@@V12@@std@@@1@@Z 00408d70 f i ctpmd.obj
 0001:00007d90       ??0?$_Tree_buy@V?$basic_string@DU?$char_traits@D@std@@V?$allocator@D@2@@std@@V?$allocator@V?$basic_string@DU?$char_traits@D@std@@V?$allocator@D@2@@std@@@2@@std@@QAE@ABV?$allocator@V?$basic_string@DU?$char_traits@D@std@@V?$allocator@D@2@@std@@@1@@Z 00408d90 f i ctpmd.obj
 0001:00007db0       ??0?$_Tree_comp@$0A@V?$_Tmap_traits@V?$basic_string@DU?$char_traits@D@std@@V?$allocator@D@2@@std@@NU?$less@V?$basic_string@DU?$char_traits@D@std@@V?$allocator@D@2@@std@@@2@V?$allocator@U?$pair@$$CBV?$basic_string@DU?$char_traits@D@std@@V?$allocator@D@2@@std@@N@std@@@2@$0A@@std@@@std@@QAE@ABU?$less@V?$basic_string@DU?$char_traits@D@std@@V?$allocator@D@2@@std@@@1@ABV?$allocator@U?$pair@$$CBV?$basic_string@DU?$char_traits@D@std@@V?$allocator@D@2@@std@@N@std@@@1@@Z 00408db0 f i ctpmd.obj
 0001:00007dd0       ??0?$_Tree_comp@$0A@V?$_Tmap_traits@V?$basic_string@DU?$char_traits@D@std@@V?$allocator@D@2@@std@@V12@U?$less@V?$basic_string@DU?$char_traits@D@std@@V?$allocator@D@2@@std@@@2@V?$allocator@U?$pair@$$CBV?$basic_string@DU?$char_traits@D@std@@V?$allocator@D@2@@std@@V12@@std@@@2@$0A@@std@@@std@@QAE@ABU?$less@V?$basic_string@DU?$char_traits@D@std@@V?$allocator@D@2@@std@@@1@ABV?$allocator@U?$pair@$$CBV?$basic_string@DU?$char_traits@D@std@@V?$allocator@D@2@@std@@V12@@std@@@1@@Z 00408dd0 f i ctpmd.obj
 0001:00007df0       ??0?$_Tree_comp@$0A@V?$_Tset_traits@V?$basic_string@DU?$char_traits@D@std@@V?$allocator@D@2@@std@@U?$less@V?$basic_string@DU?$char_traits@D@std@@V?$allocator@D@2@@std@@@2@V?$allocator@V?$basic_string@DU?$char_traits@D@std@@V?$allocator@D@2@@std@@@2@$0A@@std@@@std@@QAE@ABU?$less@V?$basic_string@DU?$char_traits@D@std@@V?$allocator@D@2@@std@@@1@ABV?$allocator@V?$basic_string@DU?$char_traits@D@std@@V?$allocator@D@2@@std@@@1@@Z 00408df0 f i ctpmd.obj
 0001:00007e10       ??0?$_Tree_const_iterator@V?$_Tree_val@U?$_Tree_simple_types@U?$pair@$$CBV?$basic_string@DU?$char_traits@D@std@@V?$allocator@D@2@@std@@N@std@@@std@@@std@@@std@@QAE@PAU?$_Tree_node@U?$pair@$$CBV?$basic_string@DU?$char_traits@D@std@@V?$allocator@D@2@@std@@N@std@@PAX@1@PBV?$_Tree_val@U?$_Tree_simple_types@U?$pair@$$CBV?$basic_string@DU?$char_traits@D@std@@V?$allocator@D@2@@std@@N@std@@@std@@@1@@Z 00408e10 f i ctpmd.obj
 0001:00007e20       ??0?$_Tree_const_iterator@V?$_Tree_val@U?$_Tree_simple_types@U?$pair@$$CBV?$basic_string@DU?$char_traits@D@std@@V?$allocator@D@2@@std@@N@std@@@std@@@std@@@std@@QAE@XZ 00408e20 f i ctpmd.obj
 0001:00007e30       ??0?$_Tree_const_iterator@V?$_Tree_val@U?$_Tree_simple_types@U?$pair@$$CBV?$basic_string@DU?$char_traits@D@std@@V?$allocator@D@2@@std@@V12@@std@@@std@@@std@@@std@@QAE@PAU?$_Tree_node@U?$pair@$$CBV?$basic_string@DU?$char_traits@D@std@@V?$allocator@D@2@@std@@V12@@std@@PAX@1@PBV?$_Tree_val@U?$_Tree_simple_types@U?$pair@$$CBV?$basic_string@DU?$char_traits@D@std@@V?$allocator@D@2@@std@@V12@@std@@@std@@@1@@Z 00408e30 f i ctpmd.obj
 0001:00007e40       ??0?$_Tree_const_iterator@V?$_Tree_val@U?$_Tree_simple_types@U?$pair@$$CBV?$basic_string@DU?$char_traits@D@std@@V?$allocator@D@2@@std@@V12@@std@@@std@@@std@@@std@@QAE@XZ 00408e40 f i ctpmd.obj
 0001:00007e50       ??0?$_Tree_const_iterator@V?$_Tree_val@U?$_Tree_simple_types@V?$basic_string@DU?$char_traits@D@std@@V?$allocator@D@2@@std@@@std@@@std@@@std@@QAE@PAU?$_Tree_node@V?$basic_string@DU?$char_traits@D@std@@V?$allocator@D@2@@std@@PAX@1@PBV?$_Tree_val@U?$_Tree_simple_types@V?$basic_string@DU?$char_traits@D@std@@V?$allocator@D@2@@std@@@std@@@1@@Z 00408e50 f i ctpmd.obj
 0001:00007e60       ??0?$_Tree_iterator@V?$_Tree_val@U?$_Tree_simple_types@U?$pair@$$CBV?$basic_string@DU?$char_traits@D@std@@V?$allocator@D@2@@std@@N@std@@@std@@@std@@@std@@QAE@PAU?$_Tree_node@U?$pair@$$CBV?$basic_string@DU?$char_traits@D@std@@V?$allocator@D@2@@std@@N@std@@PAX@1@PBV?$_Tree_val@U?$_Tree_simple_types@U?$pair@$$CBV?$basic_string@DU?$char_traits@D@std@@V?$allocator@D@2@@std@@N@std@@@std@@@1@@Z 00408e60 f i ctpmd.obj
 0001:00007e70       ??0?$_Tree_iterator@V?$_Tree_val@U?$_Tree_simple_types@U?$pair@$$CBV?$basic_string@DU?$char_traits@D@std@@V?$allocator@D@2@@std@@V12@@std@@@std@@@std@@@std@@QAE@PAU?$_Tree_node@U?$pair@$$CBV?$basic_string@DU?$char_traits@D@std@@V?$allocator@D@2@@std@@V12@@std@@PAX@1@PBV?$_Tree_val@U?$_Tree_simple_types@U?$pair@$$CBV?$basic_string@DU?$char_traits@D@std@@V?$allocator@D@2@@std@@V12@@std@@@std@@@1@@Z 00408e70 f i ctpmd.obj
 0001:00007e80       ??0?$_Tree_unchecked_const_iterator@V?$_Tree_val@U?$_Tree_simple_types@U?$pair@$$CBV?$basic_string@DU?$char_traits@D@std@@V?$allocator@D@2@@std@@N@std@@@std@@@std@@U_Iterator_base0@2@@std@@QAE@PAU?$_Tree_node@U?$pair@$$CBV?$basic_string@DU?$char_traits@D@std@@V?$allocator@D@2@@std@@N@std@@PAX@1@PBV?$_Tree_val@U?$_Tree_simple_types@U?$pair@$$CBV?$basic_string@DU?$char_traits@D@std@@V?$allocator@D@2@@std@@N@std@@@std@@@1@@Z 00408e80 f i ctpmd.obj
 0001:00007e90       ??0?$_Tree_unchecked_const_iterator@V?$_Tree_val@U?$_Tree_simple_types@U?$pair@$$CBV?$basic_string@DU?$char_traits@D@std@@V?$allocator@D@2@@std@@N@std@@@std@@@std@@U_Iterator_base0@2@@std@@QAE@XZ 00408e90 f i ctpmd.obj
 0001:00007ea0       ??0?$_Tree_unchecked_const_iterator@V?$_Tree_val@U?$_Tree_simple_types@U?$pair@$$CBV?$basic_string@DU?$char_traits@D@std@@V?$allocator@D@2@@std@@V12@@std@@@std@@@std@@U_Iterator_base0@2@@std@@QAE@PAU?$_Tree_node@U?$pair@$$CBV?$basic_string@DU?$char_traits@D@std@@V?$allocator@D@2@@std@@V12@@std@@PAX@1@PBV?$_Tree_val@U?$_Tree_simple_types@U?$pair@$$CBV?$basic_string@DU?$char_traits@D@std@@V?$allocator@D@2@@std@@V12@@std@@@std@@@1@@Z 00408ea0 f i ctpmd.obj
 0001:00007eb0       ??0?$_Tree_unchecked_const_iterator@V?$_Tree_val@U?$_Tree_simple_types@U?$pair@$$CBV?$basic_string@DU?$char_traits@D@std@@V?$allocator@D@2@@std@@V12@@std@@@std@@@std@@U_Iterator_base0@2@@std@@QAE@XZ 00408eb0 f i ctpmd.obj
 0001:00007ec0       ??0?$_Tree_unchecked_const_iterator@V?$_Tree_val@U?$_Tree_simple_types@V?$basic_string@DU?$char_traits@D@std@@V?$allocator@D@2@@std@@@std@@@std@@U_Iterator_base0@2@@std@@QAE@PAU?$_Tree_node@V?$basic_string@DU?$char_traits@D@std@@V?$allocator@D@2@@std@@PAX@1@PBV?$_Tree_val@U?$_Tree_simple_types@V?$basic_string@DU?$char_traits@D@std@@V?$allocator@D@2@@std@@@std@@@1@@Z 00408ec0 f i ctpmd.obj
 0001:00007ed0       ??0?$_Tree_val@U?$_Tree_simple_types@U?$pair@$$CBV?$basic_string@DU?$char_traits@D@std@@V?$allocator@D@2@@std@@N@std@@@std@@@std@@QAE@XZ 00408ed0 f i ctpmd.obj
 0001:00007ee0       ??0?$_Tree_val@U?$_Tree_simple_types@U?$pair@$$CBV?$basic_string@DU?$char_traits@D@std@@V?$allocator@D@2@@std@@V12@@std@@@std@@@std@@QAE@XZ 00408ee0 f i ctpmd.obj
 0001:00007ef0       ??0?$_Tree_val@U?$_Tree_simple_types@V?$basic_string@DU?$char_traits@D@std@@V?$allocator@D@2@@std@@@std@@@std@@QAE@XZ 00408ef0 f i ctpmd.obj
 0001:00007f00       ??0?$_Vb_const_iterator@U?$_Wrap_alloc@V?$allocator@I@std@@@std@@@std@@QAE@PBIPBU_Container_base0@1@@Z 00408f00 f i ctpmd.obj
 0001:00007f20       ??0?$_Vb_iter_base@U?$_Wrap_alloc@V?$allocator@I@std@@@std@@@std@@QAE@PBIIPBU_Container_base0@1@@Z 00408f20 f i ctpmd.obj
 0001:00007f40       ??0?$_Vb_iterator@U?$_Wrap_alloc@V?$allocator@I@std@@@std@@@std@@QAE@PAIPAU_Container_base0@1@@Z 00408f40 f i ctpmd.obj
 0001:00007f60       ??0?$_Vb_reference@U?$_Wrap_alloc@V?$allocator@I@std@@@std@@@std@@QAE@ABV?$_Vb_iter_base@U?$_Wrap_alloc@V?$allocator@I@std@@@std@@@1@@Z 00408f60 f i ctpmd.obj
 0001:00007f80       ??0?$_Vb_val@V?$allocator@_N@std@@@std@@QAE@ABV01@@Z 00408f80 f i ctpmd.obj
 0001:00007fa0       ??0?$_Vb_val@V?$allocator@_N@std@@@std@@QAE@IAB_NABV?$allocator@_N@1@@Z 00408fa0 f i ctpmd.obj
 0001:00007ff0       ??0?$_Vector_alloc@$0A@U?$_Vec_base_types@DV?$allocator@D@std@@@std@@@std@@QAE@ABV?$allocator@D@1@@Z 00408ff0 f i ctpmd.obj
 0001:00008010       ??0?$_Vector_alloc@$0A@U?$_Vec_base_types@IV?$allocator@_N@std@@@std@@@std@@QAE@ABV?$allocator@_N@1@@Z 00409010 f i ctpmd.obj
 0001:00008030       ??0?$_Vector_alloc@$0A@U?$_Vec_base_types@U_Grp_t@?$_Tgt_state_t@PBD@std@@V?$allocator@U_Grp_t@?$_Tgt_state_t@PBD@std@@@3@@std@@@std@@QAE@ABV?$allocator@U_Grp_t@?$_Tgt_state_t@PBD@std@@@1@@Z 00409030 f i ctpmd.obj
 0001:00008050       ??0?$_Vector_alloc@$0A@U?$_Vec_base_types@U_Loop_vals_t@std@@V?$allocator@U_Loop_vals_t@std@@@2@@std@@@std@@QAE@ABV?$allocator@U_Loop_vals_t@std@@@1@@Z 00409050 f i ctpmd.obj
 0001:00008070       ??0?$_Vector_alloc@$0A@U?$_Vec_base_types@V?$basic_string@DU?$char_traits@D@std@@V?$allocator@D@2@@std@@V?$allocator@V?$basic_string@DU?$char_traits@D@std@@V?$allocator@D@2@@std@@@2@@std@@@std@@QAE@ABV?$allocator@V?$basic_string@DU?$char_traits@D@std@@V?$allocator@D@2@@std@@@1@@Z 00409070 f i ctpmd.obj
 0001:00008090       ??0?$_Vector_alloc@$0A@U?$_Vec_base_types@V?$sub_match@PBD@std@@V?$allocator@V?$sub_match@PBD@std@@@2@@std@@@std@@QAE@ABV?$allocator@V?$sub_match@PBD@std@@@1@@Z 00409090 f i ctpmd.obj
 0001:000080b0       ??0?$_Vector_const_iterator@V?$_Vector_val@U?$_Simple_types@D@std@@@std@@@std@@QAE@PADPBU_Container_base0@1@@Z 004090b0 f i ctpmd.obj
 0001:000080c0       ??0?$_Vector_const_iterator@V?$_Vector_val@U?$_Simple_types@I@std@@@std@@@std@@QAE@PAIPBU_Container_base0@1@@Z 004090c0 f i ctpmd.obj
 0001:000080d0       ??0?$_Vector_const_iterator@V?$_Vector_val@U?$_Simple_types@U_Grp_t@?$_Tgt_state_t@PBD@std@@@std@@@std@@@std@@QAE@PAU_Grp_t@?$_Tgt_state_t@PBD@1@PBU_Container_base0@1@@Z 004090d0 f i ctpmd.obj
 0001:000080e0       ??0?$_Vector_const_iterator@V?$_Vector_val@U?$_Simple_types@V?$basic_string@DU?$char_traits@D@std@@V?$allocator@D@2@@std@@@std@@@std@@@std@@QAE@PAV?$basic_string@DU?$char_traits@D@std@@V?$allocator@D@2@@1@PBU_Container_base0@1@@Z 004090e0 f i ctpmd.obj
 0001:000080f0       ??0?$_Vector_iterator@V?$_Vector_val@U?$_Simple_types@D@std@@@std@@@std@@QAE@PADPBU_Container_base0@1@@Z 004090f0 f i ctpmd.obj
 0001:00008100       ??0?$_Vector_iterator@V?$_Vector_val@U?$_Simple_types@I@std@@@std@@@std@@QAE@PAIPBU_Container_base0@1@@Z 00409100 f i ctpmd.obj
 0001:00008110       ??0?$_Vector_iterator@V?$_Vector_val@U?$_Simple_types@V?$basic_string@DU?$char_traits@D@std@@V?$allocator@D@2@@std@@@std@@@std@@@std@@QAE@PAV?$basic_string@DU?$char_traits@D@std@@V?$allocator@D@2@@1@PBU_Container_base0@1@@Z 00409110 f i ctpmd.obj
 0001:00008120       ??0?$_Vector_val@U?$_Simple_types@D@std@@@std@@QAE@XZ 00409120 f i ctpmd.obj
 0001:00008140       ??0?$_Vector_val@U?$_Simple_types@I@std@@@std@@QAE@XZ 00409140 f i ctpmd.obj
 0001:00008160       ??0?$_Vector_val@U?$_Simple_types@U_Grp_t@?$_Tgt_state_t@PBD@std@@@std@@@std@@QAE@XZ 00409160 f i ctpmd.obj
 0001:00008180       ??0?$_Vector_val@U?$_Simple_types@U_Loop_vals_t@std@@@std@@@std@@QAE@XZ 00409180 f i ctpmd.obj
 0001:000081a0       ??0?$_Vector_val@U?$_Simple_types@V?$basic_string@DU?$char_traits@D@std@@V?$allocator@D@2@@std@@@std@@@std@@QAE@XZ 004091a0 f i ctpmd.obj
 0001:000081c0       ??0?$_Vector_val@U?$_Simple_types@V?$sub_match@PBD@std@@@std@@@std@@QAE@XZ 004091c0 f i ctpmd.obj
 0001:000081e0       ??0?$_Wrap_alloc@V?$allocator@D@std@@@std@@QAE@ABV?$allocator@D@1@@Z 004091e0 f i ctpmd.obj
 0001:000081f0       ??0?$_Wrap_alloc@V?$allocator@D@std@@@std@@QAE@XZ 004091f0 f i ctpmd.obj
 0001:00008200       ??0?$_Wrap_alloc@V?$allocator@I@std@@@std@@QAE@ABV?$allocator@I@1@@Z 00409200 f i ctpmd.obj
 0001:00008210       ??0?$_Wrap_alloc@V?$allocator@I@std@@@std@@QAE@XZ 00409210 f i ctpmd.obj
 0001:00008220       ??0?$_Wrap_alloc@V?$allocator@U?$_Tree_node@U?$pair@$$CBV?$basic_string@DU?$char_traits@D@std@@V?$allocator@D@2@@std@@N@std@@PAX@std@@@std@@@std@@QAE@XZ 00409220 f i ctpmd.obj
 0001:00008230       ??0?$_Wrap_alloc@V?$allocator@U?$_Tree_node@U?$pair@$$CBV?$basic_string@DU?$char_traits@D@std@@V?$allocator@D@2@@std@@V12@@std@@PAX@std@@@std@@@std@@QAE@XZ 00409230 f i ctpmd.obj
 0001:00008240       ??0?$_Wrap_alloc@V?$allocator@U?$_Tree_node@V?$basic_string@DU?$char_traits@D@std@@V?$allocator@D@2@@std@@PAX@std@@@std@@@std@@QAE@XZ 00409240 f i ctpmd.obj
 0001:00008250       ??0?$_Wrap_alloc@V?$allocator@U_Grp_t@?$_Tgt_state_t@PBD@std@@@std@@@std@@QAE@ABV?$allocator@U_Grp_t@?$_Tgt_state_t@PBD@std@@@1@@Z 00409250 f i ctpmd.obj
 0001:00008260       ??0?$_Wrap_alloc@V?$allocator@U_Grp_t@?$_Tgt_state_t@PBD@std@@@std@@@std@@QAE@XZ 00409260 f i ctpmd.obj
 0001:00008270       ??0?$_Wrap_alloc@V?$allocator@U_Loop_vals_t@std@@@std@@@std@@QAE@XZ 00409270 f i ctpmd.obj
 0001:00008280       ??0?$_Wrap_alloc@V?$allocator@V?$basic_string@DU?$char_traits@D@std@@V?$allocator@D@2@@std@@@std@@@std@@QAE@XZ 00409280 f i ctpmd.obj
 0001:00008290       ??0?$_Wrap_alloc@V?$allocator@V?$sub_match@PBD@std@@@std@@@std@@QAE@XZ 00409290 f i ctpmd.obj
 0001:000082a0       ??0?$allocator@D@std@@QAE@ABV01@@Z 004092a0 f i ctpmd.obj
 0001:000082b0       ??0?$allocator@D@std@@QAE@XZ 004092b0 f i ctpmd.obj
 0001:000082c0       ??0?$allocator@I@std@@QAE@ABV01@@Z 004092c0 f i ctpmd.obj
 0001:000082d0       ??0?$allocator@I@std@@QAE@XZ 004092d0 f i ctpmd.obj
 0001:000082e0       ??0?$allocator@U?$_Tree_node@U?$pair@$$CBV?$basic_string@DU?$char_traits@D@std@@V?$allocator@D@2@@std@@N@std@@PAX@std@@@std@@QAE@XZ 004092e0 f i ctpmd.obj
 0001:000082f0       ??0?$allocator@U?$_Tree_node@U?$pair@$$CBV?$basic_string@DU?$char_traits@D@std@@V?$allocator@D@2@@std@@V12@@std@@PAX@std@@@std@@QAE@XZ 004092f0 f i ctpmd.obj
 0001:00008300       ??0?$allocator@U?$_Tree_node@V?$basic_string@DU?$char_traits@D@std@@V?$allocator@D@2@@std@@PAX@std@@@std@@QAE@XZ 00409300 f i ctpmd.obj
 0001:00008310       ??0?$allocator@U?$pair@$$CBV?$basic_string@DU?$char_traits@D@std@@V?$allocator@D@2@@std@@N@std@@@std@@QAE@XZ 00409310 f i ctpmd.obj
 0001:00008320       ??0?$allocator@U?$pair@$$CBV?$basic_string@DU?$char_traits@D@std@@V?$allocator@D@2@@std@@V12@@std@@@std@@QAE@XZ 00409320 f i ctpmd.obj
 0001:00008330       ??0?$allocator@U_Grp_t@?$_Tgt_state_t@PBD@std@@@std@@QAE@ABV01@@Z 00409330 f i ctpmd.obj
 0001:00008340       ??0?$allocator@U_Grp_t@?$_Tgt_state_t@PBD@std@@@std@@QAE@XZ 00409340 f i ctpmd.obj
 0001:00008350       ??0?$allocator@U_Loop_vals_t@std@@@std@@QAE@XZ 00409350 f i ctpmd.obj
 0001:00008360       ??0?$allocator@V?$basic_string@DU?$char_traits@D@std@@V?$allocator@D@2@@std@@@std@@QAE@XZ 00409360 f i ctpmd.obj
 0001:00008370       ??0?$allocator@V?$sub_match@PBD@std@@@std@@QAE@XZ 00409370 f i ctpmd.obj
 0001:00008380       ??0?$allocator@_N@std@@QAE@XZ 00409380 f i ctpmd.obj
 0001:00008390       ??0?$back_insert_iterator@V?$basic_string@DU?$char_traits@D@std@@V?$allocator@D@2@@std@@@std@@QAE@AAV?$basic_string@DU?$char_traits@D@std@@V?$allocator@D@2@@1@@Z 00409390 f i ctpmd.obj
 0001:000083a0       ??0?$basic_filebuf@DU?$char_traits@D@std@@@std@@QAE@PAU_iobuf@@@Z 004093a0 f i ctpmd.obj
 0001:00008440       ??0?$basic_fstream@DU?$char_traits@D@std@@@std@@QAE@PBDHH@Z 00409440 f i ctpmd.obj
 0001:00008550       ??0?$basic_regex@DV?$regex_traits@D@std@@@std@@QAE@PBDW4syntax_option_type@regex_constants@1@@Z 00409550 f i ctpmd.obj
 0001:000085f0       ??0?$basic_string@DU?$char_traits@D@std@@V?$allocator@D@2@@std@@QAE@$$QAV01@@Z 004095f0 f i ctpmd.obj
 0001:00008660       ??0?$basic_string@DU?$char_traits@D@std@@V?$allocator@D@2@@std@@QAE@ABV01@@Z 00409660 f i ctpmd.obj
 0001:00008690       ??0?$basic_string@DU?$char_traits@D@std@@V?$allocator@D@2@@std@@QAE@ABV01@IIABV?$allocator@D@1@@Z 00409690 f i ctpmd.obj
 0001:000086c0       ??0?$basic_string@DU?$char_traits@D@std@@V?$allocator@D@2@@std@@QAE@ID@Z 004096c0 f i ctpmd.obj
 0001:000086f0       ??0?$basic_string@DU?$char_traits@D@std@@V?$allocator@D@2@@std@@QAE@PBD@Z 004096f0 f i ctpmd.obj
 0001:00008750       ??0?$basic_string@DU?$char_traits@D@std@@V?$allocator@D@2@@std@@QAE@XZ 00409750 f i ctpmd.obj
 0001:00008770       ??0?$collate@D@std@@QAE@ABV_Locinfo@1@I@Z 00409770 f i ctpmd.obj
 0001:000087a0       ??0?$fpos@H@std@@QAE@H_J@Z 004097a0 f i ctpmd.obj
 0001:000087d0       ??0?$fpos@H@std@@QAE@_J@Z  004097d0 f i ctpmd.obj
 0001:00008800       ??0?$initializer_list@V?$basic_string@DU?$char_traits@D@std@@V?$allocator@D@2@@std@@@std@@QAE@PBV?$basic_string@DU?$char_traits@D@std@@V?$allocator@D@2@@1@0@Z 00409800 f i ctpmd.obj
 0001:00008820       ??0?$map@V?$basic_string@DU?$char_traits@D@std@@V?$allocator@D@2@@std@@NU?$less@V?$basic_string@DU?$char_traits@D@std@@V?$allocator@D@2@@std@@@2@V?$allocator@U?$pair@$$CBV?$basic_string@DU?$char_traits@D@std@@V?$allocator@D@2@@std@@N@std@@@2@@std@@QAE@XZ 00409820 f i ctpmd.obj
 0001:00008840       ??0?$map@V?$basic_string@DU?$char_traits@D@std@@V?$allocator@D@2@@std@@V12@U?$less@V?$basic_string@DU?$char_traits@D@std@@V?$allocator@D@2@@std@@@2@V?$allocator@U?$pair@$$CBV?$basic_string@DU?$char_traits@D@std@@V?$allocator@D@2@@std@@V12@@std@@@2@@std@@QAE@XZ 00409840 f i ctpmd.obj
 0001:00008860       ??0?$match_results@PBDV?$allocator@V?$sub_match@PBD@std@@@std@@@std@@QAE@XZ 00409860 f i ctpmd.obj
 0001:000088c0       ??0?$pair@PBDPBD@std@@QAE@XZ 004098c0 f i ctpmd.obj
 0001:000088d0       ??0?$regex_traits@D@std@@QAE@XZ 004098d0 f i ctpmd.obj
 0001:00008900       ??0?$set@V?$basic_string@DU?$char_traits@D@std@@V?$allocator@D@2@@std@@U?$less@V?$basic_string@DU?$char_traits@D@std@@V?$allocator@D@2@@std@@@2@V?$allocator@V?$basic_string@DU?$char_traits@D@std@@V?$allocator@D@2@@std@@@2@@std@@QAE@XZ 00409900 f i ctpmd.obj
 0001:00008920       ??0?$shared_ptr@VEvent_Log@@@std@@QAE@$$QAV01@@Z 00409920 f i ctpmd.obj
 0001:00008960       ??0?$shared_ptr@VEvent_Log@@@std@@QAE@XZ 00409960 f i ctpmd.obj
 0001:00008970       ??0?$shared_ptr@VEvent_Tick@@@std@@QAE@$$QAV01@@Z 00409970 f i ctpmd.obj
 0001:000089b0       ??0?$shared_ptr@VEvent_Tick@@@std@@QAE@XZ 004099b0 f i ctpmd.obj
 0001:000089c0       ??0?$sub_match@PBD@std@@QAE@XZ 004099c0 f i ctpmd.obj
 0001:000089e0       ??0?$time_point@Usystem_clock@chrono@std@@V?$duration@_JU?$ratio@$00$0JIJGIA@@std@@@23@@chrono@std@@QAE@ABV?$duration@_JU?$ratio@$00$0JIJGIA@@std@@@12@@Z 004099e0 f i ctpmd.obj
 0001:00008a00       ??0?$tuple@$$$V@std@@QAE@ABV01@@Z 00409a00 f i ctpmd.obj
 0001:00008a10       ??0?$tuple@$$$V@std@@QAE@XZ 00409a10 f i ctpmd.obj
 0001:00008a20       ??0?$vector@IV?$allocator@_N@std@@@std@@QAE@ABV01@@Z 00409a20 f i ctpmd.obj
 0001:00008a80       ??0?$vector@IV?$allocator@_N@std@@@std@@QAE@IABIABV?$allocator@_N@1@@Z 00409a80 f i ctpmd.obj
 0001:00008ab0       ??0?$vector@U_Grp_t@?$_Tgt_state_t@PBD@std@@V?$allocator@U_Grp_t@?$_Tgt_state_t@PBD@std@@@3@@std@@QAE@ABV01@@Z 00409ab0 f i ctpmd.obj
 0001:00008b60       ??0?$vector@U_Grp_t@?$_Tgt_state_t@PBD@std@@V?$allocator@U_Grp_t@?$_Tgt_state_t@PBD@std@@@3@@std@@QAE@XZ 00409b60 f i ctpmd.obj
 0001:00008b80       ??0?$vector@U_Loop_vals_t@std@@V?$allocator@U_Loop_vals_t@std@@@2@@std@@QAE@XZ 00409b80 f i ctpmd.obj
 0001:00008ba0       ??0?$vector@V?$basic_string@DU?$char_traits@D@std@@V?$allocator@D@2@@std@@V?$allocator@V?$basic_string@DU?$char_traits@D@std@@V?$allocator@D@2@@std@@@2@@std@@QAE@V?$initializer_list@V?$basic_string@DU?$char_traits@D@std@@V?$allocator@D@2@@std@@@1@ABV?$allocator@V?$basic_string@DU?$char_traits@D@std@@V?$allocator@D@2@@std@@@1@@Z 00409ba0 f i ctpmd.obj
 0001:00008be0       ??0?$vector@V?$sub_match@PBD@std@@V?$allocator@V?$sub_match@PBD@std@@@2@@std@@QAE@XZ 00409be0 f i ctpmd.obj
 0001:00008c00       ??0?$vector@_NV?$allocator@_N@std@@@std@@QAE@ABV01@@Z 00409c00 f i ctpmd.obj
 0001:00008c20       ??0?$vector@_NV?$allocator@_N@std@@@std@@QAE@IAB_N@Z 00409c20 f i ctpmd.obj
 0001:00008cb0       ??0?$vector@_NV?$allocator@_N@std@@@std@@QAE@XZ 00409cb0 f i ctpmd.obj
 0001:00008cf0       ??0CThostFtdcMdSpi@@QAE@XZ 00409cf0 f i ctpmd.obj
 0001:00008d00       ??0CtpConnectData@jsstructs@@QAE@XZ 00409d00 f i ctpmd.obj
 0001:00008d60       ??0Ctpmd@@QAE@PAVEventEngine@@V?$basic_string@DU?$char_traits@D@std@@V?$allocator@D@2@@std@@@Z 00409d60 f   ctpmd.obj
 0001:00009780       ??0_Bitmap@std@@QAE@XZ     0040a780 f i ctpmd.obj
 0001:00009790       ??0_Generic_error_category@std@@QAE@XZ 0040a790 f i ctpmd.obj
 0001:000097a0       ??0_Ignore@std@@QAE@XZ     0040a7a0 f i ctpmd.obj
 0001:000097b0       ??0_Iostream_error_category@std@@QAE@XZ 0040a7b0 f i ctpmd.obj
 0001:000097c0       ??0_Node_assert@std@@QAE@W4_Node_type@1@W4_Node_flags@1@@Z 0040a7c0 f i ctpmd.obj
 0001:000097f0       ??0_Node_back@std@@QAE@I@Z 0040a7f0 f i ctpmd.obj
 0001:00009830       ??0_Node_base@std@@QAE@W4_Node_type@1@W4_Node_flags@1@@Z 0040a830 f i ctpmd.obj
 0001:00009860       ??0_Node_capture@std@@QAE@I@Z 0040a860 f i ctpmd.obj
 0001:000098a0       ??0_Node_end_group@std@@QAE@W4_Node_type@1@W4_Node_flags@1@PAV_Node_base@1@@Z 0040a8a0 f i ctpmd.obj
 0001:000098d0       ??0_Node_end_rep@std@@QAE@XZ 0040a8d0 f i ctpmd.obj
 0001:00009900       ??0_Node_endif@std@@QAE@XZ 0040a900 f i ctpmd.obj
 0001:00009930       ??0_Node_if@std@@QAE@PAV_Node_base@1@@Z 0040a930 f i ctpmd.obj
 0001:00009970       ??0_Node_rep@std@@QAE@_NHHPAV_Node_end_rep@1@H@Z 0040a970 f i ctpmd.obj
 0001:000099d0       ??0_Ref_count_base@std@@IAE@XZ 0040a9d0 f i ctpmd.obj
 0001:000099f0       ??0_Root_node@std@@QAE@XZ  0040a9f0 f i ctpmd.obj
 0001:00009a30       ??0_Sentry_base@?$basic_istream@DU?$char_traits@D@std@@@std@@QAE@AAV12@@Z 0040aa30 f i ctpmd.obj
 0001:00009a60       ??0_System_error_category@std@@QAE@XZ 0040aa60 f i ctpmd.obj
 0001:00009a70       ??0error_category@std@@QAE@XZ 0040aa70 f i ctpmd.obj
 0001:00009a80       ??0error_condition@std@@QAE@HABVerror_category@1@@Z 0040aa80 f i ctpmd.obj
 0001:00009aa0       ??0locale@std@@QAE@ABV01@@Z 0040aaa0 f i ctpmd.obj
 0001:00009ac0       ??0locale@std@@QAE@XZ      0040aac0 f i ctpmd.obj
 0001:00009ae0       ??0sentry@?$basic_istream@DU?$char_traits@D@std@@@std@@QAE@AAV12@_N@Z 0040aae0 f i ctpmd.obj
 0001:00009b50       ??1?$BasicMemoryWriter@DV?$allocator@D@std@@@fmt@@UAE@XZ 0040ab50 f i ctpmd.obj
 0001:00009b80       ??1?$BasicWriter@D@fmt@@UAE@XZ 0040ab80 f i ctpmd.obj
 0001:00009b90       ??1?$Buffer@D@fmt@@UAE@XZ  0040ab90 f i ctpmd.obj
 0001:00009ba0       ??1?$MemoryBuffer@D$0BPE@V?$allocator@D@std@@@internal@fmt@@UAE@XZ 0040aba0 f i ctpmd.obj
 0001:00009bd0       ??1?$_Bt_state_t@PBD@std@@QAE@XZ 0040abd0 f i ctpmd.obj
 0001:00009c10       ??1?$_Buf@D@std@@QAE@XZ    0040ac10 f i ctpmd.obj
 0001:00009c20       ??1?$_Matcher@PBDDV?$regex_traits@D@std@@PBD@std@@QAE@XZ 0040ac20 f i ctpmd.obj
 0001:00009cf0       ??1?$_Node_class@DV?$regex_traits@D@std@@@std@@UAE@XZ 0040acf0 f i ctpmd.obj
 0001:00009d90       ??1?$_Node_str@D@std@@UAE@XZ 0040ad90 f i ctpmd.obj
 0001:00009db0       ??1?$_Parser@PBDDV?$regex_traits@D@std@@@std@@QAE@XZ 0040adb0 f i ctpmd.obj
 0001:00009df0       ??1?$_Ref_count_obj@VEvent_Log@@@std@@UAE@XZ 0040adf0 f i ctpmd.obj
 0001:00009e00       ??1?$_Ref_count_obj@VEvent_Tick@@@std@@UAE@XZ 0040ae00 f i ctpmd.obj
 0001:00009e10       ??1?$_Regex_traits@D@std@@QAE@XZ 0040ae10 f i ctpmd.obj
 0001:00009e30       ??1?$_Sequence@D@std@@QAE@XZ 0040ae30 f i ctpmd.obj
 0001:00009e40       ??1?$_Tgt_state_t@PBD@std@@QAE@XZ 0040ae40 f i ctpmd.obj
 0001:00009ea0       ??1?$_Tree@V?$_Tmap_traits@V?$basic_string@DU?$char_traits@D@std@@V?$allocator@D@2@@std@@NU?$less@V?$basic_string@DU?$char_traits@D@std@@V?$allocator@D@2@@std@@@2@V?$allocator@U?$pair@$$CBV?$basic_string@DU?$char_traits@D@std@@V?$allocator@D@2@@std@@N@std@@@2@$0A@@std@@@std@@QAE@XZ 0040aea0 f i ctpmd.obj
 0001:00009ed0       ??1?$_Tree@V?$_Tmap_traits@V?$basic_string@DU?$char_traits@D@std@@V?$allocator@D@2@@std@@V12@U?$less@V?$basic_string@DU?$char_traits@D@std@@V?$allocator@D@2@@std@@@2@V?$allocator@U?$pair@$$CBV?$basic_string@DU?$char_traits@D@std@@V?$allocator@D@2@@std@@V12@@std@@@2@$0A@@std@@@std@@QAE@XZ 0040aed0 f i ctpmd.obj
 0001:00009f00       ??1?$_Tree@V?$_Tset_traits@V?$basic_string@DU?$char_traits@D@std@@V?$allocator@D@2@@std@@U?$less@V?$basic_string@DU?$char_traits@D@std@@V?$allocator@D@2@@std@@@2@V?$allocator@V?$basic_string@DU?$char_traits@D@std@@V?$allocator@D@2@@std@@@2@$0A@@std@@@std@@QAE@XZ 0040af00 f i ctpmd.obj
 0001:00009f30       ??1?$_Tree_alloc@$0A@U?$_Tree_base_types@U?$pair@$$CBV?$basic_string@DU?$char_traits@D@std@@V?$allocator@D@2@@std@@N@std@@V?$allocator@U?$pair@$$CBV?$basic_string@DU?$char_traits@D@std@@V?$allocator@D@2@@std@@N@std@@@2@@std@@@std@@QAE@XZ 0040af30 f i ctpmd.obj
 0001:00009f40       ??1?$_Tree_alloc@$0A@U?$_Tree_base_types@U?$pair@$$CBV?$basic_string@DU?$char_traits@D@std@@V?$allocator@D@2@@std@@V12@@std@@V?$allocator@U?$pair@$$CBV?$basic_string@DU?$char_traits@D@std@@V?$allocator@D@2@@std@@V12@@std@@@2@@std@@@std@@QAE@XZ 0040af40 f i ctpmd.obj
 0001:00009f50       ??1?$_Tree_alloc@$0A@U?$_Tree_base_types@V?$basic_string@DU?$char_traits@D@std@@V?$allocator@D@2@@std@@V?$allocator@V?$basic_string@DU?$char_traits@D@std@@V?$allocator@D@2@@std@@@2@@std@@@std@@QAE@XZ 0040af50 f i ctpmd.obj
 0001:00009f60       ??1?$_Tree_buy@U?$pair@$$CBV?$basic_string@DU?$char_traits@D@std@@V?$allocator@D@2@@std@@N@std@@V?$allocator@U?$pair@$$CBV?$basic_string@DU?$char_traits@D@std@@V?$allocator@D@2@@std@@N@std@@@2@@std@@QAE@XZ 0040af60 f i ctpmd.obj
 0001:00009f70       ??1?$_Tree_buy@U?$pair@$$CBV?$basic_string@DU?$char_traits@D@std@@V?$allocator@D@2@@std@@V12@@std@@V?$allocator@U?$pair@$$CBV?$basic_string@DU?$char_traits@D@std@@V?$allocator@D@2@@std@@V12@@std@@@2@@std@@QAE@XZ 0040af70 f i ctpmd.obj
 0001:00009f80       ??1?$_Tree_buy@V?$basic_string@DU?$char_traits@D@std@@V?$allocator@D@2@@std@@V?$allocator@V?$basic_string@DU?$char_traits@D@std@@V?$allocator@D@2@@std@@@2@@std@@QAE@XZ 0040af80 f i ctpmd.obj
 0001:00009f90       ??1?$_Tree_comp@$0A@V?$_Tmap_traits@V?$basic_string@DU?$char_traits@D@std@@V?$allocator@D@2@@std@@NU?$less@V?$basic_string@DU?$char_traits@D@std@@V?$allocator@D@2@@std@@@2@V?$allocator@U?$pair@$$CBV?$basic_string@DU?$char_traits@D@std@@V?$allocator@D@2@@std@@N@std@@@2@$0A@@std@@@std@@QAE@XZ 0040af90 f i ctpmd.obj
 0001:00009fa0       ??1?$_Tree_comp@$0A@V?$_Tmap_traits@V?$basic_string@DU?$char_traits@D@std@@V?$allocator@D@2@@std@@V12@U?$less@V?$basic_string@DU?$char_traits@D@std@@V?$allocator@D@2@@std@@@2@V?$allocator@U?$pair@$$CBV?$basic_string@DU?$char_traits@D@std@@V?$allocator@D@2@@std@@V12@@std@@@2@$0A@@std@@@std@@QAE@XZ 0040afa0 f i ctpmd.obj
 0001:00009fb0       ??1?$_Tree_comp@$0A@V?$_Tset_traits@V?$basic_string@DU?$char_traits@D@std@@V?$allocator@D@2@@std@@U?$less@V?$basic_string@DU?$char_traits@D@std@@V?$allocator@D@2@@std@@@2@V?$allocator@V?$basic_string@DU?$char_traits@D@std@@V?$allocator@D@2@@std@@@2@$0A@@std@@@std@@QAE@XZ 0040afb0 f i ctpmd.obj
 0001:00009fc0       ??1?$_Vb_val@V?$allocator@_N@std@@@std@@QAE@XZ 0040afc0 f i ctpmd.obj
 0001:00009ff0       ??1?$basic_filebuf@DU?$char_traits@D@std@@@std@@UAE@XZ 0040aff0 f i ctpmd.obj
 0001:0000a040       ??1?$basic_fstream@DU?$char_traits@D@std@@@std@@UAE@XZ 0040b040 f i ctpmd.obj
 0001:0000a0b0       ??1?$basic_regex@DV?$regex_traits@D@std@@@std@@QAE@XZ 0040b0b0 f i ctpmd.obj
 0001:0000a0f0       ??1?$basic_string@DU?$char_traits@D@std@@V?$allocator@D@2@@std@@QAE@XZ 0040b0f0 f i ctpmd.obj
 0001:0000a120       ??1?$collate@D@std@@MAE@XZ 0040b120 f i ctpmd.obj
 0001:0000a150       ??1?$map@V?$basic_string@DU?$char_traits@D@std@@V?$allocator@D@2@@std@@NU?$less@V?$basic_string@DU?$char_traits@D@std@@V?$allocator@D@2@@std@@@2@V?$allocator@U?$pair@$$CBV?$basic_string@DU?$char_traits@D@std@@V?$allocator@D@2@@std@@N@std@@@2@@std@@QAE@XZ 0040b150 f i ctpmd.obj
 0001:0000a180       ??1?$map@V?$basic_string@DU?$char_traits@D@std@@V?$allocator@D@2@@std@@V12@U?$less@V?$basic_string@DU?$char_traits@D@std@@V?$allocator@D@2@@std@@@2@V?$allocator@U?$pair@$$CBV?$basic_string@DU?$char_traits@D@std@@V?$allocator@D@2@@std@@V12@@std@@@2@@std@@QAE@XZ 0040b180 f i ctpmd.obj
 0001:0000a1b0       ??1?$match_results@PBDV?$allocator@V?$sub_match@PBD@std@@@std@@@std@@QAE@XZ 0040b1b0 f i ctpmd.obj
 0001:0000a1e0       ??1?$pair@$$CBV?$basic_string@DU?$char_traits@D@std@@V?$allocator@D@2@@std@@N@std@@QAE@XZ 0040b1e0 f i ctpmd.obj
 0001:0000a210       ??1?$pair@$$CBV?$basic_string@DU?$char_traits@D@std@@V?$allocator@D@2@@std@@V12@@std@@QAE@XZ 0040b210 f i ctpmd.obj
 0001:0000a260       ??1?$regex_traits@D@std@@QAE@XZ 0040b260 f i ctpmd.obj
 0001:0000a280       ??1?$set@V?$basic_string@DU?$char_traits@D@std@@V?$allocator@D@2@@std@@U?$less@V?$basic_string@DU?$char_traits@D@std@@V?$allocator@D@2@@std@@@2@V?$allocator@V?$basic_string@DU?$char_traits@D@std@@V?$allocator@D@2@@std@@@2@@std@@QAE@XZ 0040b280 f i ctpmd.obj
 0001:0000a2b0       ??1?$shared_ptr@VEvent@@@std@@QAE@XZ 0040b2b0 f i ctpmd.obj
 0001:0000a2f0       ??1?$shared_ptr@VEvent_Log@@@std@@QAE@XZ 0040b2f0 f i ctpmd.obj
 0001:0000a330       ??1?$shared_ptr@VEvent_Tick@@@std@@QAE@XZ 0040b330 f i ctpmd.obj
 0001:0000a370       ??1?$vector@DV?$allocator@D@std@@@std@@QAE@XZ 0040b370 f i ctpmd.obj
 0001:0000a3a0       ??1?$vector@IV?$allocator@_N@std@@@std@@QAE@XZ 0040b3a0 f i ctpmd.obj
 0001:0000a3d0       ??1?$vector@U_Grp_t@?$_Tgt_state_t@PBD@std@@V?$allocator@U_Grp_t@?$_Tgt_state_t@PBD@std@@@3@@std@@QAE@XZ 0040b3d0 f i ctpmd.obj
 0001:0000a400       ??1?$vector@U_Loop_vals_t@std@@V?$allocator@U_Loop_vals_t@std@@@2@@std@@QAE@XZ 0040b400 f i ctpmd.obj
 0001:0000a430       ??1?$vector@V?$basic_string@DU?$char_traits@D@std@@V?$allocator@D@2@@std@@V?$allocator@V?$basic_string@DU?$char_traits@D@std@@V?$allocator@D@2@@std@@@2@@std@@QAE@XZ 0040b430 f i ctpmd.obj
 0001:0000a470       ??1?$vector@V?$sub_match@PBD@std@@V?$allocator@V?$sub_match@PBD@std@@@2@@std@@QAE@XZ 0040b470 f i ctpmd.obj
 0001:0000a4a0       ??1?$vector@_NV?$allocator@_N@std@@@std@@QAE@XZ 0040b4a0 f i ctpmd.obj
 0001:0000a4d0       ??1CtpConnectData@jsstructs@@QAE@XZ 0040b4d0 f i ctpmd.obj
 0001:0000a590       ??1Ctpmd@@QAE@XZ           0040b590 f   ctpmd.obj
 0001:0000a690       ??1_Generic_error_category@std@@UAE@XZ 0040b690 f i ctpmd.obj
 0001:0000a6a0       ??1_Iostream_error_category@std@@UAE@XZ 0040b6a0 f i ctpmd.obj
 0001:0000a6b0       ??1_Node_assert@std@@UAE@XZ 0040b6b0 f i ctpmd.obj
 0001:0000a6f0       ??1_Node_back@std@@UAE@XZ  0040b6f0 f i ctpmd.obj
 0001:0000a700       ??1_Node_base@std@@UAE@XZ  0040b700 f i ctpmd.obj
 0001:0000a710       ??1_Node_capture@std@@UAE@XZ 0040b710 f i ctpmd.obj
 0001:0000a720       ??1_Node_end_group@std@@UAE@XZ 0040b720 f i ctpmd.obj
 0001:0000a730       ??1_Node_end_rep@std@@UAE@XZ 0040b730 f i ctpmd.obj
 0001:0000a740       ??1_Node_endif@std@@UAE@XZ 0040b740 f i ctpmd.obj
 0001:0000a750       ??1_Node_if@std@@UAE@XZ    0040b750 f i ctpmd.obj
 0001:0000a7b0       ??1_Node_rep@std@@UAE@XZ   0040b7b0 f i ctpmd.obj
 0001:0000a7c0       ??1_Ref_count_base@std@@UAE@XZ 0040b7c0 f i ctpmd.obj
 0001:0000a7d0       ??1_Root_node@std@@UAE@XZ  0040b7d0 f i ctpmd.obj
 0001:0000a7e0       ??1_Sentry_base@?$basic_istream@DU?$char_traits@D@std@@@std@@QAE@XZ 0040b7e0 f i ctpmd.obj
 0001:0000a800       ??1_System_error_category@std@@UAE@XZ 0040b800 f i ctpmd.obj
 0001:0000a810       ??1async_msg@async_log_helper@details@spdlog@@QAE@XZ 0040b810 f i ctpmd.obj
 0001:0000a860       ??1cell_t@?$mpmc_bounded_queue@Uasync_msg@async_log_helper@details@spdlog@@@details@spdlog@@QAE@XZ 0040b860 f i ctpmd.obj
 0001:0000a8b0       ??1error_category@std@@UAE@XZ 0040b8b0 f i ctpmd.obj
 0001:0000a8c0       ??1locale@std@@QAE@XZ      0040b8c0 f i ctpmd.obj
 0001:0000a8e0       ??1sentry@?$basic_istream@DU?$char_traits@D@std@@@std@@QAE@XZ 0040b8e0 f i ctpmd.obj
 0001:0000a900       ??2@YAPAXIPAX@Z            0040b900 f i ctpmd.obj
 0001:0000a910       ??3@YAXPAX0@Z              0040b910 f i ctpmd.obj
 0001:0000a920       ??4?$_Bt_state_t@PBD@std@@QAEAAV01@ABV01@@Z 0040b920 f i ctpmd.obj
 0001:0000a950       ??4?$_Tgt_state_t@PBD@std@@QAEAAV01@ABV01@@Z 0040b950 f i ctpmd.obj
 0001:0000a990       ??4?$_Tgt_state_t@PBD@std@@QAEXABV?$_Bt_state_t@PBD@1@@Z 0040b990 f i ctpmd.obj
 0001:0000a9b0       ??4?$_Vb_reference@U?$_Wrap_alloc@V?$allocator@I@std@@@std@@@std@@QAEAAV01@ABV01@@Z 0040b9b0 f i ctpmd.obj
 0001:0000a9f0       ??4?$_Vb_reference@U?$_Wrap_alloc@V?$allocator@I@std@@@std@@@std@@QAEAAV01@_N@Z 0040b9f0 f i ctpmd.obj
 0001:0000aa20       ??4?$back_insert_iterator@V?$basic_string@DU?$char_traits@D@std@@V?$allocator@D@2@@std@@@std@@QAEAAV01@$$QAD@Z 0040ba20 f i ctpmd.obj
 0001:0000aa80       ??4?$back_insert_iterator@V?$basic_string@DU?$char_traits@D@std@@V?$allocator@D@2@@std@@@std@@QAEAAV01@ABD@Z 0040ba80 f i ctpmd.obj
 0001:0000aae0       ??4?$basic_string@DU?$char_traits@D@std@@V?$allocator@D@2@@std@@QAEAAV01@$$QAV01@@Z 0040bae0 f i ctpmd.obj
 0001:0000ab20       ??4?$basic_string@DU?$char_traits@D@std@@V?$allocator@D@2@@std@@QAEAAV01@ABV01@@Z 0040bb20 f i ctpmd.obj
 0001:0000ab40       ??4?$basic_string@DU?$char_traits@D@std@@V?$allocator@D@2@@std@@QAEAAV01@PBD@Z 0040bb40 f i ctpmd.obj
 0001:0000ab80       ??4?$vector@IV?$allocator@_N@std@@@std@@QAEAAV01@ABV01@@Z 0040bb80 f i ctpmd.obj
 0001:0000aca0       ??4?$vector@U_Grp_t@?$_Tgt_state_t@PBD@std@@V?$allocator@U_Grp_t@?$_Tgt_state_t@PBD@std@@@3@@std@@QAEAAV01@ABV01@@Z 0040bca0 f i ctpmd.obj
 0001:0000ade0       ??4?$vector@_NV?$allocator@_N@std@@@std@@QAEAAV01@ABV01@@Z 0040bde0 f i ctpmd.obj
 0001:0000ae10       ??6?$BasicWriter@D@fmt@@QAEAAV01@H@Z 0040be10 f i ctpmd.obj
 0001:0000ae40       ??6?$BasicWriter@D@fmt@@QAEAAV01@V?$BasicStringRef@D@1@@Z 0040be40 f i ctpmd.obj
 0001:0000aea0       ??8?$_String_const_iterator@V?$_String_val@U?$_Simple_types@D@std@@@std@@@std@@QBE_NABV01@@Z 0040bea0 f i ctpmd.obj
 0001:0000aec0       ??8?$_Tree_const_iterator@V?$_Tree_val@U?$_Tree_simple_types@U?$pair@$$CBV?$basic_string@DU?$char_traits@D@std@@V?$allocator@D@2@@std@@N@std@@@std@@@std@@@std@@QBE_NABV01@@Z 0040bec0 f i ctpmd.obj
 0001:0000aee0       ??8?$_Tree_const_iterator@V?$_Tree_val@U?$_Tree_simple_types@U?$pair@$$CBV?$basic_string@DU?$char_traits@D@std@@V?$allocator@D@2@@std@@V12@@std@@@std@@@std@@@std@@QBE_NABV01@@Z 0040bee0 f i ctpmd.obj
 0001:0000af00       ??8?$_Tree_const_iterator@V?$_Tree_val@U?$_Tree_simple_types@V?$basic_string@DU?$char_traits@D@std@@V?$allocator@D@2@@std@@@std@@@std@@@std@@QBE_NABV01@@Z 0040bf00 f i ctpmd.obj
 0001:0000af20       ??8?$_Vb_const_iterator@U?$_Wrap_alloc@V?$allocator@I@std@@@std@@@std@@QBE_NABV01@@Z 0040bf20 f i ctpmd.obj
 0001:0000af40       ??8?$_Vector_const_iterator@V?$_Vector_val@U?$_Simple_types@I@std@@@std@@@std@@QBE_NABV01@@Z 0040bf40 f i ctpmd.obj
 0001:0000af60       ??8?$_Vector_const_iterator@V?$_Vector_val@U?$_Simple_types@V?$basic_string@DU?$char_traits@D@std@@V?$allocator@D@2@@std@@@std@@@std@@@std@@QBE_NABV01@@Z 0040bf60 f i ctpmd.obj
 0001:0000af80       ??8error_category@std@@QBE_NABV01@@Z 0040bf80 f i ctpmd.obj
 0001:0000af90       ??8error_condition@std@@QBE_NABV01@@Z 0040bf90 f i ctpmd.obj
 0001:0000afb0       ??9?$_String_const_iterator@V?$_String_val@U?$_Simple_types@D@std@@@std@@@std@@QBE_NABV01@@Z 0040bfb0 f i ctpmd.obj
 0001:0000afd0       ??9?$_Tree_const_iterator@V?$_Tree_val@U?$_Tree_simple_types@U?$pair@$$CBV?$basic_string@DU?$char_traits@D@std@@V?$allocator@D@2@@std@@N@std@@@std@@@std@@@std@@QBE_NABV01@@Z 0040bfd0 f i ctpmd.obj
 0001:0000aff0       ??9?$_Tree_const_iterator@V?$_Tree_val@U?$_Tree_simple_types@U?$pair@$$CBV?$basic_string@DU?$char_traits@D@std@@V?$allocator@D@2@@std@@V12@@std@@@std@@@std@@@std@@QBE_NABV01@@Z 0040bff0 f i ctpmd.obj
 0001:0000b010       ??9?$_Tree_const_iterator@V?$_Tree_val@U?$_Tree_simple_types@V?$basic_string@DU?$char_traits@D@std@@V?$allocator@D@2@@std@@@std@@@std@@@std@@QBE_NABV01@@Z 0040c010 f i ctpmd.obj
 0001:0000b030       ??9?$_Vb_const_iterator@U?$_Wrap_alloc@V?$allocator@I@std@@@std@@@std@@QBE_NABV01@@Z 0040c030 f i ctpmd.obj
 0001:0000b070       ??9?$_Vector_const_iterator@V?$_Vector_val@U?$_Simple_types@I@std@@@std@@@std@@QBE_NABV01@@Z 0040c070 f i ctpmd.obj
 0001:0000b090       ??9?$_Vector_const_iterator@V?$_Vector_val@U?$_Simple_types@V?$basic_string@DU?$char_traits@D@std@@V?$allocator@D@2@@std@@@std@@@std@@@std@@QBE_NABV01@@Z 0040c090 f i ctpmd.obj
 0001:0000b0b0       ??A?$Buffer@D@fmt@@QAEAADI@Z 0040c0b0 f i ctpmd.obj
 0001:0000b0c0       ??A?$basic_string@DU?$char_traits@D@std@@V?$allocator@D@2@@std@@QAEAADI@Z 0040c0c0 f i ctpmd.obj
 0001:0000b0e0       ??A?$map@V?$basic_string@DU?$char_traits@D@std@@V?$allocator@D@2@@std@@NU?$less@V?$basic_string@DU?$char_traits@D@std@@V?$allocator@D@2@@std@@@2@V?$allocator@U?$pair@$$CBV?$basic_string@DU?$char_traits@D@std@@V?$allocator@D@2@@std@@N@std@@@2@@std@@QAEAAN$$QAV?$basic_string@DU?$char_traits@D@std@@V?$allocator@D@2@@1@@Z 0040c0e0 f i ctpmd.obj
 0001:0000b160       ??A?$map@V?$basic_string@DU?$char_traits@D@std@@V?$allocator@D@2@@std@@V12@U?$less@V?$basic_string@DU?$char_traits@D@std@@V?$allocator@D@2@@std@@@2@V?$allocator@U?$pair@$$CBV?$basic_string@DU?$char_traits@D@std@@V?$allocator@D@2@@std@@V12@@std@@@2@@std@@QAEAAV?$basic_string@DU?$char_traits@D@std@@V?$allocator@D@2@@1@$$QAV21@@Z 0040c160 f i ctpmd.obj
 0001:0000b1e0       ??A?$match_results@PBDV?$allocator@V?$sub_match@PBD@std@@@std@@@std@@QBEABV?$sub_match@PBD@1@I@Z 0040c1e0 f i ctpmd.obj
 0001:0000b220       ??A?$vector@IV?$allocator@_N@std@@@std@@QAEAAII@Z 0040c220 f i ctpmd.obj
 0001:0000b230       ??A?$vector@U_Grp_t@?$_Tgt_state_t@PBD@std@@V?$allocator@U_Grp_t@?$_Tgt_state_t@PBD@std@@@3@@std@@QAEAAU_Grp_t@?$_Tgt_state_t@PBD@1@I@Z 0040c230 f i ctpmd.obj
 0001:0000b240       ??A?$vector@U_Loop_vals_t@std@@V?$allocator@U_Loop_vals_t@std@@@2@@std@@QAEAAU_Loop_vals_t@1@I@Z 0040c240 f i ctpmd.obj
 0001:0000b250       ??A?$vector@V?$sub_match@PBD@std@@V?$allocator@V?$sub_match@PBD@std@@@2@@std@@QAEAAV?$sub_match@PBD@1@I@Z 0040c250 f i ctpmd.obj
 0001:0000b270       ??A?$vector@V?$sub_match@PBD@std@@V?$allocator@V?$sub_match@PBD@std@@@2@@std@@QBEABV?$sub_match@PBD@1@I@Z 0040c270 f i ctpmd.obj
 0001:0000b290       ??A?$vector@_NV?$allocator@_N@std@@@std@@QAE?AV?$_Vb_reference@U?$_Wrap_alloc@V?$allocator@I@std@@@std@@@1@I@Z 0040c290 f i ctpmd.obj
 0001:0000b2b0       ??B?$_Vb_reference@U?$_Wrap_alloc@V?$allocator@I@std@@@std@@@std@@QBE_NXZ 0040c2b0 f i ctpmd.obj
 0001:0000b2d0       ??B?$fpos@H@std@@QBE_JXZ   0040c2d0 f i ctpmd.obj
 0001:0000b2e0       ??Bsentry@?$basic_istream@DU?$char_traits@D@std@@@std@@QBE_NXZ 0040c2e0 f i ctpmd.obj
 0001:0000b2f0       ??C?$_Tree_iterator@V?$_Tree_val@U?$_Tree_simple_types@U?$pair@$$CBV?$basic_string@DU?$char_traits@D@std@@V?$allocator@D@2@@std@@N@std@@@std@@@std@@@std@@QBEPAU?$pair@$$CBV?$basic_string@DU?$char_traits@D@std@@V?$allocator@D@2@@std@@N@1@XZ 0040c2f0 f i ctpmd.obj
 0001:0000b300       ??C?$_Tree_iterator@V?$_Tree_val@U?$_Tree_simple_types@U?$pair@$$CBV?$basic_string@DU?$char_traits@D@std@@V?$allocator@D@2@@std@@V12@@std@@@std@@@std@@@std@@QBEPAU?$pair@$$CBV?$basic_string@DU?$char_traits@D@std@@V?$allocator@D@2@@std@@V12@@1@XZ 0040c300 f i ctpmd.obj
 0001:0000b310       ??C?$shared_ptr@VEvent_Log@@@std@@QBEPAVEvent_Log@@XZ 0040c310 f i ctpmd.obj
 0001:0000b320       ??C?$shared_ptr@VEvent_Tick@@@std@@QBEPAVEvent_Tick@@XZ 0040c320 f i ctpmd.obj
 0001:0000b330       ??D?$_String_const_iterator@V?$_String_val@U?$_Simple_types@D@std@@@std@@@std@@QBEABDXZ 0040c330 f i ctpmd.obj
 0001:0000b340       ??D?$_String_iterator@V?$_String_val@U?$_Simple_types@D@std@@@std@@@std@@QBEAADXZ 0040c340 f i ctpmd.obj
 0001:0000b350       ??D?$_Tree_const_iterator@V?$_Tree_val@U?$_Tree_simple_types@U?$pair@$$CBV?$basic_string@DU?$char_traits@D@std@@V?$allocator@D@2@@std@@N@std@@@std@@@std@@@std@@QBEABU?$pair@$$CBV?$basic_string@DU?$char_traits@D@std@@V?$allocator@D@2@@std@@N@1@XZ 0040c350 f i ctpmd.obj
 0001:0000b360       ??D?$_Tree_const_iterator@V?$_Tree_val@U?$_Tree_simple_types@U?$pair@$$CBV?$basic_string@DU?$char_traits@D@std@@V?$allocator@D@2@@std@@V12@@std@@@std@@@std@@@std@@QBEABU?$pair@$$CBV?$basic_string@DU?$char_traits@D@std@@V?$allocator@D@2@@std@@V12@@1@XZ 0040c360 f i ctpmd.obj
 0001:0000b370       ??D?$_Tree_const_iterator@V?$_Tree_val@U?$_Tree_simple_types@V?$basic_string@DU?$char_traits@D@std@@V?$allocator@D@2@@std@@@std@@@std@@@std@@QBEABV?$basic_string@DU?$char_traits@D@std@@V?$allocator@D@2@@1@XZ 0040c370 f i ctpmd.obj
 0001:0000b380       ??D?$_Tree_iterator@V?$_Tree_val@U?$_Tree_simple_types@U?$pair@$$CBV?$basic_string@DU?$char_traits@D@std@@V?$allocator@D@2@@std@@N@std@@@std@@@std@@@std@@QBEAAU?$pair@$$CBV?$basic_string@DU?$char_traits@D@std@@V?$allocator@D@2@@std@@N@1@XZ 0040c380 f i ctpmd.obj
 0001:0000b390       ??D?$_Tree_iterator@V?$_Tree_val@U?$_Tree_simple_types@U?$pair@$$CBV?$basic_string@DU?$char_traits@D@std@@V?$allocator@D@2@@std@@V12@@std@@@std@@@std@@@std@@QBEAAU?$pair@$$CBV?$basic_string@DU?$char_traits@D@std@@V?$allocator@D@2@@std@@V12@@1@XZ 0040c390 f i ctpmd.obj
 0001:0000b3a0       ??D?$_Vb_iterator@U?$_Wrap_alloc@V?$allocator@I@std@@@std@@@std@@QBE?AV?$_Vb_reference@U?$_Wrap_alloc@V?$allocator@I@std@@@std@@@1@XZ 0040c3a0 f i ctpmd.obj
 0001:0000b3c0       ??D?$_Vector_const_iterator@V?$_Vector_val@U?$_Simple_types@D@std@@@std@@@std@@QBEABDXZ 0040c3c0 f i ctpmd.obj
 0001:0000b3d0       ??D?$_Vector_const_iterator@V?$_Vector_val@U?$_Simple_types@V?$basic_string@DU?$char_traits@D@std@@V?$allocator@D@2@@std@@@std@@@std@@@std@@QBEABV?$basic_string@DU?$char_traits@D@std@@V?$allocator@D@2@@1@XZ 0040c3d0 f i ctpmd.obj
 0001:0000b3e0       ??D?$_Vector_iterator@V?$_Vector_val@U?$_Simple_types@D@std@@@std@@@std@@QBEAADXZ 0040c3e0 f i ctpmd.obj
 0001:0000b3f0       ??D?$_Vector_iterator@V?$_Vector_val@U?$_Simple_types@V?$basic_string@DU?$char_traits@D@std@@V?$allocator@D@2@@std@@@std@@@std@@@std@@QBEAAV?$basic_string@DU?$char_traits@D@std@@V?$allocator@D@2@@1@XZ 0040c3f0 f i ctpmd.obj
 0001:0000b400       ??D?$back_insert_iterator@V?$basic_string@DU?$char_traits@D@std@@V?$allocator@D@2@@std@@@std@@QAEAAV01@XZ 0040c400 f i ctpmd.obj
 0001:0000b410       ??E?$_Tree_const_iterator@V?$_Tree_val@U?$_Tree_simple_types@U?$pair@$$CBV?$basic_string@DU?$char_traits@D@std@@V?$allocator@D@2@@std@@N@std@@@std@@@std@@@std@@QAE?AV01@H@Z 0040c410 f i ctpmd.obj
 0001:0000b430       ??E?$_Tree_const_iterator@V?$_Tree_val@U?$_Tree_simple_types@U?$pair@$$CBV?$basic_string@DU?$char_traits@D@std@@V?$allocator@D@2@@std@@N@std@@@std@@@std@@@std@@QAEAAV01@XZ 0040c430 f i ctpmd.obj
 0001:0000b440       ??E?$_Tree_const_iterator@V?$_Tree_val@U?$_Tree_simple_types@U?$pair@$$CBV?$basic_string@DU?$char_traits@D@std@@V?$allocator@D@2@@std@@V12@@std@@@std@@@std@@@std@@QAE?AV01@H@Z 0040c440 f i ctpmd.obj
 0001:0000b460       ??E?$_Tree_const_iterator@V?$_Tree_val@U?$_Tree_simple_types@U?$pair@$$CBV?$basic_string@DU?$char_traits@D@std@@V?$allocator@D@2@@std@@V12@@std@@@std@@@std@@@std@@QAEAAV01@XZ 0040c460 f i ctpmd.obj
 0001:0000b470       ??E?$_Tree_const_iterator@V?$_Tree_val@U?$_Tree_simple_types@V?$basic_string@DU?$char_traits@D@std@@V?$allocator@D@2@@std@@@std@@@std@@@std@@QAE?AV01@H@Z 0040c470 f i ctpmd.obj
 0001:0000b490       ??E?$_Tree_const_iterator@V?$_Tree_val@U?$_Tree_simple_types@V?$basic_string@DU?$char_traits@D@std@@V?$allocator@D@2@@std@@@std@@@std@@@std@@QAEAAV01@XZ 0040c490 f i ctpmd.obj
 0001:0000b4a0       ??E?$_Tree_unchecked_const_iterator@V?$_Tree_val@U?$_Tree_simple_types@U?$pair@$$CBV?$basic_string@DU?$char_traits@D@std@@V?$allocator@D@2@@std@@N@std@@@std@@@std@@U_Iterator_base0@2@@std@@QAEAAV01@XZ 0040c4a0 f i ctpmd.obj
 0001:0000b4f0       ??E?$_Tree_unchecked_const_iterator@V?$_Tree_val@U?$_Tree_simple_types@U?$pair@$$CBV?$basic_string@DU?$char_traits@D@std@@V?$allocator@D@2@@std@@V12@@std@@@std@@@std@@U_Iterator_base0@2@@std@@QAEAAV01@XZ 0040c4f0 f i ctpmd.obj
 0001:0000b540       ??E?$_Tree_unchecked_const_iterator@V?$_Tree_val@U?$_Tree_simple_types@V?$basic_string@DU?$char_traits@D@std@@V?$allocator@D@2@@std@@@std@@@std@@U_Iterator_base0@2@@std@@QAEAAV01@XZ 0040c540 f i ctpmd.obj
 0001:0000b590       ??E?$_Vb_const_iterator@U?$_Wrap_alloc@V?$allocator@I@std@@@std@@@std@@QAEAAV01@XZ 0040c590 f i ctpmd.obj
 0001:0000b5b0       ??E?$_Vb_iterator@U?$_Wrap_alloc@V?$allocator@I@std@@@std@@@std@@QAEAAV01@XZ 0040c5b0 f i ctpmd.obj
 0001:0000b5d0       ??E?$_Vector_const_iterator@V?$_Vector_val@U?$_Simple_types@V?$basic_string@DU?$char_traits@D@std@@V?$allocator@D@2@@std@@@std@@@std@@@std@@QAEAAV01@XZ 0040c5d0 f i ctpmd.obj
 0001:0000b5e0       ??E?$_Vector_iterator@V?$_Vector_val@U?$_Simple_types@V?$basic_string@DU?$char_traits@D@std@@V?$allocator@D@2@@std@@@std@@@std@@@std@@QAEAAV01@XZ 0040c5e0 f i ctpmd.obj
 0001:0000b5f0       ??E?$back_insert_iterator@V?$basic_string@DU?$char_traits@D@std@@V?$allocator@D@2@@std@@@std@@QAE?AV01@H@Z 0040c5f0 f i ctpmd.obj
 0001:0000b600       ??E?$back_insert_iterator@V?$basic_string@DU?$char_traits@D@std@@V?$allocator@D@2@@std@@@std@@QAEAAV01@XZ 0040c600 f i ctpmd.obj
 0001:0000b610       ??F?$_Tree_const_iterator@V?$_Tree_val@U?$_Tree_simple_types@U?$pair@$$CBV?$basic_string@DU?$char_traits@D@std@@V?$allocator@D@2@@std@@N@std@@@std@@@std@@@std@@QAEAAV01@XZ 0040c610 f i ctpmd.obj
 0001:0000b620       ??F?$_Tree_const_iterator@V?$_Tree_val@U?$_Tree_simple_types@U?$pair@$$CBV?$basic_string@DU?$char_traits@D@std@@V?$allocator@D@2@@std@@V12@@std@@@std@@@std@@@std@@QAEAAV01@XZ 0040c620 f i ctpmd.obj
 0001:0000b630       ??F?$_Tree_const_iterator@V?$_Tree_val@U?$_Tree_simple_types@V?$basic_string@DU?$char_traits@D@std@@V?$allocator@D@2@@std@@@std@@@std@@@std@@QAEAAV01@XZ 0040c630 f i ctpmd.obj
 0001:0000b640       ??F?$_Tree_iterator@V?$_Tree_val@U?$_Tree_simple_types@U?$pair@$$CBV?$basic_string@DU?$char_traits@D@std@@V?$allocator@D@2@@std@@N@std@@@std@@@std@@@std@@QAEAAV01@XZ 0040c640 f i ctpmd.obj
 0001:0000b650       ??F?$_Tree_iterator@V?$_Tree_val@U?$_Tree_simple_types@U?$pair@$$CBV?$basic_string@DU?$char_traits@D@std@@V?$allocator@D@2@@std@@V12@@std@@@std@@@std@@@std@@QAEAAV01@XZ 0040c650 f i ctpmd.obj
 0001:0000b660       ??F?$_Tree_unchecked_const_iterator@V?$_Tree_val@U?$_Tree_simple_types@U?$pair@$$CBV?$basic_string@DU?$char_traits@D@std@@V?$allocator@D@2@@std@@N@std@@@std@@@std@@U_Iterator_base0@2@@std@@QAEAAV01@XZ 0040c660 f i ctpmd.obj
 0001:0000b6c0       ??F?$_Tree_unchecked_const_iterator@V?$_Tree_val@U?$_Tree_simple_types@U?$pair@$$CBV?$basic_string@DU?$char_traits@D@std@@V?$allocator@D@2@@std@@V12@@std@@@std@@@std@@U_Iterator_base0@2@@std@@QAEAAV01@XZ 0040c6c0 f i ctpmd.obj
 0001:0000b720       ??F?$_Tree_unchecked_const_iterator@V?$_Tree_val@U?$_Tree_simple_types@V?$basic_string@DU?$char_traits@D@std@@V?$allocator@D@2@@std@@@std@@@std@@U_Iterator_base0@2@@std@@QAEAAV01@XZ 0040c720 f i ctpmd.obj
 0001:0000b780       ??F?$_Vb_const_iterator@U?$_Wrap_alloc@V?$allocator@I@std@@@std@@@std@@QAEAAV01@XZ 0040c780 f i ctpmd.obj
 0001:0000b7a0       ??F?$_Vb_iterator@U?$_Wrap_alloc@V?$allocator@I@std@@@std@@@std@@QAEAAV01@XZ 0040c7a0 f i ctpmd.obj
 0001:0000b7c0       ??G?$_String_const_iterator@V?$_String_val@U?$_Simple_types@D@std@@@std@@@std@@QBEHABV01@@Z 0040c7c0 f i ctpmd.obj
 0001:0000b7d0       ??G?$_String_iterator@V?$_String_val@U?$_Simple_types@D@std@@@std@@@std@@QBEHABV?$_String_const_iterator@V?$_String_val@U?$_Simple_types@D@std@@@std@@@1@@Z 0040c7d0 f i ctpmd.obj
 0001:0000b7e0       ??G?$_Vb_const_iterator@U?$_Wrap_alloc@V?$allocator@I@std@@@std@@@std@@QBEHABV01@@Z 0040c7e0 f i ctpmd.obj
 0001:0000b800       ??G?$_Vb_iterator@U?$_Wrap_alloc@V?$allocator@I@std@@@std@@@std@@QBEHABV?$_Vb_const_iterator@U?$_Wrap_alloc@V?$allocator@I@std@@@std@@@1@@Z 0040c800 f i ctpmd.obj
 0001:0000b820       ??H?$_String_iterator@V?$_String_val@U?$_Simple_types@D@std@@@std@@@std@@QBE?AV01@H@Z 0040c820 f i ctpmd.obj
 0001:0000b840       ??H?$_Vb_iterator@U?$_Wrap_alloc@V?$allocator@I@std@@@std@@@std@@QBE?AV01@H@Z 0040c840 f i ctpmd.obj
 0001:0000b8a0       ??H?$_Vector_iterator@V?$_Vector_val@U?$_Simple_types@I@std@@@std@@@std@@QBE?AV01@H@Z 0040c8a0 f i ctpmd.obj
 0001:0000b8c0       ??H?$_Vector_iterator@V?$_Vector_val@U?$_Simple_types@V?$basic_string@DU?$char_traits@D@std@@V?$allocator@D@2@@std@@@std@@@std@@@std@@QBE?AV01@H@Z 0040c8c0 f i ctpmd.obj
 0001:0000b8e0       ??Iregex_constants@std@@YA?AW4match_flag_type@01@W4201@0@Z 0040c8e0 f i ctpmd.obj
 0001:0000b8f0       ??Iregex_constants@std@@YA?AW4syntax_option_type@01@W4201@0@Z 0040c8f0 f i ctpmd.obj
 0001:0000b910       ??R?$_Cmp_collate@V?$regex_traits@D@std@@@std@@QAE_NDD@Z 0040c910 f i ctpmd.obj
 0001:0000b940       ??R?$_Cmp_cs@V?$regex_traits@D@std@@@std@@QAE_NDD@Z 0040c940 f i ctpmd.obj
 0001:0000b960       ??R?$_Cmp_icase@V?$_Regex_traits@D@std@@@std@@QAE_NDD@Z 0040c960 f i ctpmd.obj
 0001:0000ba50       ??R?$_Cmp_icase@V?$regex_traits@D@std@@@std@@QAE_NDD@Z 0040ca50 f i ctpmd.obj
 0001:0000bb40       ??R?$less@V?$basic_string@DU?$char_traits@D@std@@V?$allocator@D@2@@std@@@std@@QBE_NABV?$basic_string@DU?$char_traits@D@std@@V?$allocator@D@2@@1@0@Z 0040cb40 f i ctpmd.obj
 0001:0000bb70       ??Sregex_constants@std@@YA?AW4match_flag_type@01@W4201@@Z 0040cb70 f i ctpmd.obj
 0001:0000bb80       ??Uregex_constants@std@@YA?AW4match_flag_type@01@W4201@0@Z 0040cb80 f i ctpmd.obj
 0001:0000bb90       ??Y?$_String_const_iterator@V?$_String_val@U?$_Simple_types@D@std@@@std@@@std@@QAEAAV01@H@Z 0040cb90 f i ctpmd.obj
 0001:0000bba0       ??Y?$_String_iterator@V?$_String_val@U?$_Simple_types@D@std@@@std@@@std@@QAEAAV01@H@Z 0040cba0 f i ctpmd.obj
 0001:0000bbb0       ??Y?$_Vb_const_iterator@U?$_Wrap_alloc@V?$allocator@I@std@@@std@@@std@@QAEAAV01@H@Z 0040cbb0 f i ctpmd.obj
 0001:0000bc10       ??Y?$_Vb_iterator@U?$_Wrap_alloc@V?$allocator@I@std@@@std@@@std@@QAEAAV01@H@Z 0040cc10 f i ctpmd.obj
 0001:0000bc70       ??Y?$_Vector_const_iterator@V?$_Vector_val@U?$_Simple_types@I@std@@@std@@@std@@QAEAAV01@H@Z 0040cc70 f i ctpmd.obj
 0001:0000bc90       ??Y?$_Vector_const_iterator@V?$_Vector_val@U?$_Simple_types@V?$basic_string@DU?$char_traits@D@std@@V?$allocator@D@2@@std@@@std@@@std@@@std@@QAEAAV01@H@Z 0040cc90 f i ctpmd.obj
 0001:0000bcb0       ??Y?$_Vector_iterator@V?$_Vector_val@U?$_Simple_types@I@std@@@std@@@std@@QAEAAV01@H@Z 0040ccb0 f i ctpmd.obj
 0001:0000bcd0       ??Y?$_Vector_iterator@V?$_Vector_val@U?$_Simple_types@V?$basic_string@DU?$char_traits@D@std@@V?$allocator@D@2@@std@@@std@@@std@@@std@@QAEAAV01@H@Z 0040ccd0 f i ctpmd.obj
 0001:0000bcf0       ??Y?$basic_string@DU?$char_traits@D@std@@V?$allocator@D@2@@std@@QAEAAV01@ABV01@@Z 0040ccf0 f i ctpmd.obj
 0001:0000bd10       ??Y?$basic_string@DU?$char_traits@D@std@@V?$allocator@D@2@@std@@QAEAAV01@D@Z 0040cd10 f i ctpmd.obj
 0001:0000bd30       ??Y?$basic_string@DU?$char_traits@D@std@@V?$allocator@D@2@@std@@QAEAAV01@PBD@Z 0040cd30 f i ctpmd.obj
 0001:0000bd70       ??_4regex_constants@std@@YAAAW4match_flag_type@01@AAW4201@W4201@@Z 0040cd70 f i ctpmd.obj
 0001:0000bd80       ??_5regex_constants@std@@YAAAW4match_flag_type@01@AAW4201@W4201@@Z 0040cd80 f i ctpmd.obj
 0001:0000bd90       ??_5std@@YA?AW4_Node_flags@0@AAW410@W410@@Z 0040cd90 f i ctpmd.obj
 0001:0000bda0       ??_6std@@YA?AW4_Node_flags@0@AAW410@W410@@Z 0040cda0 f i ctpmd.obj
 0001:0000bdb0       ??_D?$basic_fstream@DU?$char_traits@D@std@@@std@@QAEXXZ 0040cdb0 f i ctpmd.obj
 0001:0000bdd5       ??_E?$basic_fstream@DU?$char_traits@D@std@@@std@@$4PPPPPPPM@A@AEPAXI@Z 0040cdd5 f i ctpmd.obj
 0001:0000bde0       ??_Ecell_t@?$mpmc_bounded_queue@Uasync_msg@async_log_helper@details@spdlog@@@details@spdlog@@QAEPAXI@Z 0040cde0 f i ctpmd.obj
 0001:0000be80       ??_E?$BasicMemoryWriter@DV?$allocator@D@std@@@fmt@@UAEPAXI@Z 0040ce80 f i ctpmd.obj
 0001:0000be80       ??_G?$BasicMemoryWriter@DV?$allocator@D@std@@@fmt@@UAEPAXI@Z 0040ce80 f i ctpmd.obj
 0001:0000bed0       ??_E?$BasicWriter@D@fmt@@UAEPAXI@Z 0040ced0 f i ctpmd.obj
 0001:0000bed0       ??_G?$BasicWriter@D@fmt@@UAEPAXI@Z 0040ced0 f i ctpmd.obj
 0001:0000bf00       ??_G?$Buffer@D@fmt@@UAEPAXI@Z 0040cf00 f i ctpmd.obj
 0001:0000bf00       ??_E?$Buffer@D@fmt@@UAEPAXI@Z 0040cf00 f i ctpmd.obj
 0001:0000bf30       ??_G?$MemoryBuffer@D$0BPE@V?$allocator@D@std@@@internal@fmt@@UAEPAXI@Z 0040cf30 f i ctpmd.obj
 0001:0000bf30       ??_E?$MemoryBuffer@D$0BPE@V?$allocator@D@std@@@internal@fmt@@UAEPAXI@Z 0040cf30 f i ctpmd.obj
 0001:0000bf70       ??_G?$_Buf@D@std@@QAEPAXI@Z 0040cf70 f i ctpmd.obj
 0001:0000bfa0       ??_G?$_Node_class@DV?$regex_traits@D@std@@@std@@UAEPAXI@Z 0040cfa0 f i ctpmd.obj
 0001:0000bfa0       ??_E?$_Node_class@DV?$regex_traits@D@std@@@std@@UAEPAXI@Z 0040cfa0 f i ctpmd.obj
 0001:0000bfd0       ??_G?$_Node_str@D@std@@UAEPAXI@Z 0040cfd0 f i ctpmd.obj
 0001:0000bfd0       ??_E?$_Node_str@D@std@@UAEPAXI@Z 0040cfd0 f i ctpmd.obj
 0001:0000c000       ??_E?$_Ref_count_obj@VEvent_Log@@@std@@UAEPAXI@Z 0040d000 f i ctpmd.obj
 0001:0000c000       ??_G?$_Ref_count_obj@VEvent_Log@@@std@@UAEPAXI@Z 0040d000 f i ctpmd.obj
 0001:0000c030       ??_E?$_Ref_count_obj@VEvent_Tick@@@std@@UAEPAXI@Z 0040d030 f i ctpmd.obj
 0001:0000c030       ??_G?$_Ref_count_obj@VEvent_Tick@@@std@@UAEPAXI@Z 0040d030 f i ctpmd.obj
 0001:0000c060       ??_G?$_Sequence@D@std@@QAEPAXI@Z 0040d060 f i ctpmd.obj
 0001:0000c090       ??_E?$basic_filebuf@DU?$char_traits@D@std@@@std@@UAEPAXI@Z 0040d090 f i ctpmd.obj
 0001:0000c090       ??_G?$basic_filebuf@DU?$char_traits@D@std@@@std@@UAEPAXI@Z 0040d090 f i ctpmd.obj
 0001:0000c0f0       ??_E?$basic_fstream@DU?$char_traits@D@std@@@std@@UAEPAXI@Z 0040d0f0 f i ctpmd.obj
 0001:0000c0f0       ??_G?$basic_fstream@DU?$char_traits@D@std@@@std@@UAEPAXI@Z 0040d0f0 f i ctpmd.obj
 0001:0000c140       ??_G?$basic_string@DU?$char_traits@D@std@@V?$allocator@D@2@@std@@QAEPAXI@Z 0040d140 f i ctpmd.obj
 0001:0000c180       ??_G?$collate@D@std@@MAEPAXI@Z 0040d180 f i ctpmd.obj
 0001:0000c180       ??_E?$collate@D@std@@MAEPAXI@Z 0040d180 f i ctpmd.obj
 0001:0000c1c0       ??_G?$pair@$$CBV?$basic_string@DU?$char_traits@D@std@@V?$allocator@D@2@@std@@N@std@@QAEPAXI@Z 0040d1c0 f i ctpmd.obj
 0001:0000c200       ??_G?$pair@$$CBV?$basic_string@DU?$char_traits@D@std@@V?$allocator@D@2@@std@@V12@@std@@QAEPAXI@Z 0040d200 f i ctpmd.obj
 0001:0000c260       ??_GEvent_Log@@QAEPAXI@Z   0040d260 f i ctpmd.obj
 0001:0000c290       ??_GEvent_Tick@@QAEPAXI@Z  0040d290 f i ctpmd.obj
 0001:0000c2c0       ??_E_Generic_error_category@std@@UAEPAXI@Z 0040d2c0 f i ctpmd.obj
 0001:0000c2c0       ??_G_Generic_error_category@std@@UAEPAXI@Z 0040d2c0 f i ctpmd.obj
 0001:0000c2f0       ??_E_Iostream_error_category@std@@UAEPAXI@Z 0040d2f0 f i ctpmd.obj
 0001:0000c2f0       ??_G_Iostream_error_category@std@@UAEPAXI@Z 0040d2f0 f i ctpmd.obj
 0001:0000c320       ??_G_Node_assert@std@@UAEPAXI@Z 0040d320 f i ctpmd.obj
 0001:0000c320       ??_E_Node_assert@std@@UAEPAXI@Z 0040d320 f i ctpmd.obj
 0001:0000c370       ??_G_Node_back@std@@UAEPAXI@Z 0040d370 f i ctpmd.obj
 0001:0000c370       ??_E_Node_back@std@@UAEPAXI@Z 0040d370 f i ctpmd.obj
 0001:0000c3a0       ??_G_Node_base@std@@UAEPAXI@Z 0040d3a0 f i ctpmd.obj
 0001:0000c3a0       ??_E_Node_base@std@@UAEPAXI@Z 0040d3a0 f i ctpmd.obj
 0001:0000c3d0       ??_E_Node_capture@std@@UAEPAXI@Z 0040d3d0 f i ctpmd.obj
 0001:0000c3d0       ??_G_Node_capture@std@@UAEPAXI@Z 0040d3d0 f i ctpmd.obj
 0001:0000c400       ??_E_Node_end_group@std@@UAEPAXI@Z 0040d400 f i ctpmd.obj
 0001:0000c400       ??_G_Node_end_group@std@@UAEPAXI@Z 0040d400 f i ctpmd.obj
 0001:0000c430       ??_E_Node_end_rep@std@@UAEPAXI@Z 0040d430 f i ctpmd.obj
 0001:0000c430       ??_G_Node_end_rep@std@@UAEPAXI@Z 0040d430 f i ctpmd.obj
 0001:0000c460       ??_E_Node_endif@std@@UAEPAXI@Z 0040d460 f i ctpmd.obj
 0001:0000c460       ??_G_Node_endif@std@@UAEPAXI@Z 0040d460 f i ctpmd.obj
 0001:0000c490       ??_E_Node_if@std@@UAEPAXI@Z 0040d490 f i ctpmd.obj
 0001:0000c490       ??_G_Node_if@std@@UAEPAXI@Z 0040d490 f i ctpmd.obj
 0001:0000c4c0       ??_G_Node_rep@std@@UAEPAXI@Z 0040d4c0 f i ctpmd.obj
 0001:0000c4c0       ??_E_Node_rep@std@@UAEPAXI@Z 0040d4c0 f i ctpmd.obj
 0001:0000c4f0       ??_G_Ref_count_base@std@@UAEPAXI@Z 0040d4f0 f i ctpmd.obj
 0001:0000c4f0       ??_E_Ref_count_base@std@@UAEPAXI@Z 0040d4f0 f i ctpmd.obj
 0001:0000c520       ??_G_Root_node@std@@UAEPAXI@Z 0040d520 f i ctpmd.obj
 0001:0000c520       ??_E_Root_node@std@@UAEPAXI@Z 0040d520 f i ctpmd.obj
 0001:0000c550       ??_G_System_error_category@std@@UAEPAXI@Z 0040d550 f i ctpmd.obj
 0001:0000c550       ??_E_System_error_category@std@@UAEPAXI@Z 0040d550 f i ctpmd.obj
 0001:0000c580       ??_Eerror_category@std@@UAEPAXI@Z 0040d580 f i ctpmd.obj
 0001:0000c580       ??_Gerror_category@std@@UAEPAXI@Z 0040d580 f i ctpmd.obj
 0001:0000c5b0       ?Int2String@Utils@@SA?AV?$basic_string@DU?$char_traits@D@std@@V?$allocator@D@2@@std@@HH@Z 0040d5b0 f i ctpmd.obj
 0001:0000c7c0       ?IsErrorRspInfo@Ctpmd@@ABE_NPAUCThostFtdcRspInfoField@@@Z 0040d7c0 f i ctpmd.obj
 0001:0000c7e0       ?OnFrontConnected@CThostFtdcMdSpi@@UAEXXZ 0040d7e0 f i ctpmd.obj
 0001:0000c7f0       ?OnFrontConnected@Ctpmd@@MAEXXZ 0040d7f0 f   ctpmd.obj
 0001:0000c8a0       ?OnFrontDisconnected@CThostFtdcMdSpi@@UAEXH@Z 0040d8a0 f i ctpmd.obj
 0001:0000c8b0       ?OnFrontDisconnected@Ctpmd@@MAEXH@Z 0040d8b0 f   ctpmd.obj
 0001:0000c970       ?OnHeartBeatWarning@CThostFtdcMdSpi@@UAEXH@Z 0040d970 f i ctpmd.obj
 0001:0000c980       ?OnRspError@CThostFtdcMdSpi@@UAEXPAUCThostFtdcRspInfoField@@H_N@Z 0040d980 f i ctpmd.obj
 0001:0000c990       ?OnRspError@Ctpmd@@MAEXPAUCThostFtdcRspInfoField@@H_N@Z 0040d990 f   ctpmd.obj
 0001:0000ca40       ?OnRspSubForQuoteRsp@CThostFtdcMdSpi@@UAEXPAUCThostFtdcSpecificInstrumentField@@PAUCThostFtdcRspInfoField@@H_N@Z 0040da40 f i ctpmd.obj
 0001:0000ca50       ?OnRspSubMarketData@CThostFtdcMdSpi@@UAEXPAUCThostFtdcSpecificInstrumentField@@PAUCThostFtdcRspInfoField@@H_N@Z 0040da50 f i ctpmd.obj
 0001:0000ca60       ?OnRspUnSubForQuoteRsp@CThostFtdcMdSpi@@UAEXPAUCThostFtdcSpecificInstrumentField@@PAUCThostFtdcRspInfoField@@H_N@Z 0040da60 f i ctpmd.obj
 0001:0000ca70       ?OnRspUnSubMarketData@CThostFtdcMdSpi@@UAEXPAUCThostFtdcSpecificInstrumentField@@PAUCThostFtdcRspInfoField@@H_N@Z 0040da70 f i ctpmd.obj
 0001:0000ca80       ?OnRspUserLogin@CThostFtdcMdSpi@@UAEXPAUCThostFtdcRspUserLoginField@@PAUCThostFtdcRspInfoField@@H_N@Z 0040da80 f i ctpmd.obj
 0001:0000ca90       ?OnRspUserLogin@Ctpmd@@MAEXPAUCThostFtdcRspUserLoginField@@PAUCThostFtdcRspInfoField@@H_N@Z 0040da90 f   ctpmd.obj
 0001:0000cc60       ?OnRspUserLogout@CThostFtdcMdSpi@@UAEXPAUCThostFtdcUserLogoutField@@PAUCThostFtdcRspInfoField@@H_N@Z 0040dc60 f i ctpmd.obj
 0001:0000cc70       ?OnRspUserLogout@Ctpmd@@MAEXPAUCThostFtdcUserLogoutField@@PAUCThostFtdcRspInfoField@@H_N@Z 0040dc70 f   ctpmd.obj
 0001:0000cd70       ?OnRtnDepthMarketData@CThostFtdcMdSpi@@UAEXPAUCThostFtdcDepthMarketDataField@@@Z 0040dd70 f i ctpmd.obj
 0001:0000cd80       ?OnRtnDepthMarketData@Ctpmd@@MAEXPAUCThostFtdcDepthMarketDataField@@@Z 0040dd80 f   ctpmd.obj
 0001:0000dad0       ?OnRtnForQuoteRsp@CThostFtdcMdSpi@@UAEXPAUCThostFtdcForQuoteRspField@@@Z 0040ead0 f i ctpmd.obj
 0001:0000dae0       ?_Add_backreference@?$_Builder@PBDDV?$regex_traits@D@std@@@std@@QAEXI@Z 0040eae0 f i ctpmd.obj
 0001:0000db50       ?_Add_bol@?$_Builder@PBDDV?$regex_traits@D@std@@@std@@QAEXXZ 0040eb50 f i ctpmd.obj
 0001:0000db60       ?_Add_char@?$_Builder@PBDDV?$regex_traits@D@std@@@std@@QAEXD@Z 0040eb60 f i ctpmd.obj
 0001:0000dbf0       ?_Add_char_to_array@?$_Builder@PBDDV?$regex_traits@D@std@@@std@@AAEXD@Z 0040ebf0 f i ctpmd.obj
 0001:0000dc90       ?_Add_char_to_bitmap@?$_Builder@PBDDV?$regex_traits@D@std@@@std@@AAEXD@Z 0040ec90 f i ctpmd.obj
 0001:0000dd00       ?_Add_char_to_class@?$_Builder@PBDDV?$regex_traits@D@std@@@std@@QAEXD@Z 0040ed00 f i ctpmd.obj
 0001:0000dd30       ?_Add_class@?$_Builder@PBDDV?$regex_traits@D@std@@@std@@QAEXXZ 0040ed30 f i ctpmd.obj
 0001:0000ddc0       ?_Add_coll@?$_Builder@PBDDV?$regex_traits@D@std@@@std@@QAEXPBD0H@Z 0040edc0 f i ctpmd.obj
 0001:0000dde0       ?_Add_dot@?$_Builder@PBDDV?$regex_traits@D@std@@@std@@QAEXXZ 0040ede0 f i ctpmd.obj
 0001:0000ddf0       ?_Add_elts@?$_Builder@PBDDV?$regex_traits@D@std@@@std@@AAEXPAV?$_Node_class@DV?$regex_traits@D@std@@@2@FABV?$regex_traits@D@2@@Z 0040edf0 f i ctpmd.obj
 0001:0000de60       ?_Add_eol@?$_Builder@PBDDV?$regex_traits@D@std@@@std@@QAEXXZ 0040ee60 f i ctpmd.obj
 0001:0000de70       ?_Add_equiv@?$_Builder@PBDDV?$regex_traits@D@std@@@std@@QAEXPBD0H@Z 0040ee70 f i ctpmd.obj
 0001:0000e050       ?_Add_named_class@?$_Builder@PBDDV?$regex_traits@D@std@@@std@@QAEXF@Z 0040f050 f i ctpmd.obj
 0001:0000e080       ?_Add_range@?$_Builder@PBDDV?$regex_traits@D@std@@@std@@QAEXDD@Z 0040f080 f i ctpmd.obj
 0001:0000e210       ?_Add_rep@?$_Builder@PBDDV?$regex_traits@D@std@@@std@@QAEXHH_N@Z 0040f210 f i ctpmd.obj
 0001:0000e350       ?_Add_str_node@?$_Builder@PBDDV?$regex_traits@D@std@@@std@@AAEXXZ 0040f350 f i ctpmd.obj
 0001:0000e3d0       ?_Add_wbound@?$_Builder@PBDDV?$regex_traits@D@std@@@std@@QAEXXZ 0040f3d0 f i ctpmd.obj
 0001:0000e3e0       ?_Adopt@_Iterator_base0@std@@QAEXPBX@Z 0040f3e0 f i ctpmd.obj
 0001:0000e3f0       ?_Advance@?$_Vb_iter_base@U?$_Wrap_alloc@V?$allocator@I@std@@@std@@@std@@QAEXI@Z 0040f3f0 f i ctpmd.obj
 0001:0000e410       ?_Alloc_proxy@?$_Vb_val@V?$allocator@_N@std@@@std@@QAEXXZ 0040f410 f i ctpmd.obj
 0001:0000e420       ?_Alternative@?$_Parser@PBDDV?$regex_traits@D@std@@@std@@AAE_NXZ 0040f420 f i ctpmd.obj
 0001:0000e7e0       ?_Assign_rv@?$_Ptr_base@VEvent_Log@@@std@@QAEX$$QAV12@@Z 0040f7e0 f i ctpmd.obj
 0001:0000e810       ?_Assign_rv@?$_Ptr_base@VEvent_Tick@@@std@@QAEX$$QAV12@@Z 0040f810 f i ctpmd.obj
 0001:0000e840       ?_Assign_rv@?$basic_string@DU?$char_traits@D@std@@V?$allocator@D@2@@std@@QAEX$$QAV12@@Z 0040f840 f i ctpmd.obj
 0001:0000e8a0       ?_At@?$_Buf@D@std@@QBEDI@Z 0040f8a0 f i ctpmd.obj
 0001:0000e8b0       ?_At@?$match_results@PBDV?$allocator@V?$sub_match@PBD@std@@@std@@@std@@QAEAAV?$sub_match@PBD@2@I@Z 0040f8b0 f i ctpmd.obj
 0001:0000e8d0       ?_At@?$match_results@PBDV?$allocator@V?$sub_match@PBD@std@@@std@@@std@@QBE?AV?$sub_match@PBD@2@I@Z 0040f8d0 f i ctpmd.obj
 0001:0000e900       ?_AtomEscape@?$_Parser@PBDDV?$regex_traits@D@std@@@std@@AAEXXZ 0040f900 f i ctpmd.obj
 0001:0000e9d0       ?_Beg_expr@?$_Builder@PBDDV?$regex_traits@D@std@@@std@@ABE_NPAV_Node_base@2@@Z 0040f9d0 f i ctpmd.obj
 0001:0000ea00       ?_Beg_expr@?$_Builder@PBDDV?$regex_traits@D@std@@@std@@QBE_NXZ 0040fa00 f i ctpmd.obj
 0001:0000ea40       ?_Begin_assert_group@?$_Builder@PBDDV?$regex_traits@D@std@@@std@@QAEPAV_Node_base@2@_N@Z 0040fa40 f i ctpmd.obj
 0001:0000eb50       ?_Begin_capture_group@?$_Builder@PBDDV?$regex_traits@D@std@@@std@@QAEPAV_Node_base@2@I@Z 0040fb50 f i ctpmd.obj
 0001:0000ebc0       ?_Begin_group@?$_Builder@PBDDV?$regex_traits@D@std@@@std@@QAEPAV_Node_base@2@XZ 0040fbc0 f i ctpmd.obj
 0001:0000ebd0       ?_Begin_if@?$_Builder@PBDDV?$regex_traits@D@std@@@std@@QAEPAV_Node_base@2@PAV32@@Z 0040fbd0 f i ctpmd.obj
 0001:0000ec90       ?_Better_match@?$_Matcher@PBDDV?$regex_traits@D@std@@PBD@std@@AAE_NXZ 0040fc90 f i ctpmd.obj
 0001:0000ed30       ?_Buy@?$vector@DV?$allocator@D@std@@@std@@IAE_NI@Z 0040fd30 f i ctpmd.obj
 0001:0000ed90       ?_Buy@?$vector@IV?$allocator@_N@std@@@std@@IAE_NI@Z 0040fd90 f i ctpmd.obj
 0001:0000ee00       ?_Buy@?$vector@U_Grp_t@?$_Tgt_state_t@PBD@std@@V?$allocator@U_Grp_t@?$_Tgt_state_t@PBD@std@@@3@@std@@IAE_NI@Z 0040fe00 f i ctpmd.obj
 0001:0000ee70       ?_Buyheadnode@?$_Tree_alloc@$0A@U?$_Tree_base_types@U?$pair@$$CBV?$basic_string@DU?$char_traits@D@std@@V?$allocator@D@2@@std@@N@std@@V?$allocator@U?$pair@$$CBV?$basic_string@DU?$char_traits@D@std@@V?$allocator@D@2@@std@@N@std@@@2@@std@@@std@@QAEPAU?$_Tree_node@U?$pair@$$CBV?$basic_string@DU?$char_traits@D@std@@V?$allocator@D@2@@std@@N@std@@PAX@2@XZ 0040fe70 f i ctpmd.obj
 0001:0000eea0       ?_Buyheadnode@?$_Tree_alloc@$0A@U?$_Tree_base_types@U?$pair@$$CBV?$basic_string@DU?$char_traits@D@std@@V?$allocator@D@2@@std@@V12@@std@@V?$allocator@U?$pair@$$CBV?$basic_string@DU?$char_traits@D@std@@V?$allocator@D@2@@std@@V12@@std@@@2@@std@@@std@@QAEPAU?$_Tree_node@U?$pair@$$CBV?$basic_string@DU?$char_traits@D@std@@V?$allocator@D@2@@std@@V12@@std@@PAX@2@XZ 0040fea0 f i ctpmd.obj
 0001:0000eed0       ?_Buyheadnode@?$_Tree_alloc@$0A@U?$_Tree_base_types@V?$basic_string@DU?$char_traits@D@std@@V?$allocator@D@2@@std@@V?$allocator@V?$basic_string@DU?$char_traits@D@std@@V?$allocator@D@2@@std@@@2@@std@@@std@@QAEPAU?$_Tree_node@V?$basic_string@DU?$char_traits@D@std@@V?$allocator@D@2@@std@@PAX@2@XZ 0040fed0 f i ctpmd.obj
 0001:0000ef00       ?_Buynode0@?$_Tree_buy@U?$pair@$$CBV?$basic_string@DU?$char_traits@D@std@@V?$allocator@D@2@@std@@N@std@@V?$allocator@U?$pair@$$CBV?$basic_string@DU?$char_traits@D@std@@V?$allocator@D@2@@std@@N@std@@@2@@std@@QAEPAU?$_Tree_node@U?$pair@$$CBV?$basic_string@DU?$char_traits@D@std@@V?$allocator@D@2@@std@@N@std@@PAX@2@XZ 0040ff00 f i ctpmd.obj
 0001:0000ef40       ?_Buynode0@?$_Tree_buy@U?$pair@$$CBV?$basic_string@DU?$char_traits@D@std@@V?$allocator@D@2@@std@@V12@@std@@V?$allocator@U?$pair@$$CBV?$basic_string@DU?$char_traits@D@std@@V?$allocator@D@2@@std@@V12@@std@@@2@@std@@QAEPAU?$_Tree_node@U?$pair@$$CBV?$basic_string@DU?$char_traits@D@std@@V?$allocator@D@2@@std@@V12@@std@@PAX@2@XZ 0040ff40 f i ctpmd.obj
 0001:0000ef80       ?_Buynode0@?$_Tree_buy@V?$basic_string@DU?$char_traits@D@std@@V?$allocator@D@2@@std@@V?$allocator@V?$basic_string@DU?$char_traits@D@std@@V?$allocator@D@2@@std@@@2@@std@@QAEPAU?$_Tree_node@V?$basic_string@DU?$char_traits@D@std@@V?$allocator@D@2@@std@@PAX@2@XZ 0040ff80 f i ctpmd.obj
 0001:0000efc0       ?_Change_alloc@?$_String_alloc@$0A@U?$_String_base_types@DV?$allocator@D@std@@@std@@@std@@QAEXABU?$_Wrap_alloc@V?$allocator@D@std@@@2@@Z 0040ffc0 f i ctpmd.obj
 0001:0000efd0       ?_Change_alloc@?$_Vector_alloc@$0A@U?$_Vec_base_types@IV?$allocator@_N@std@@@std@@@std@@QAEXABU?$_Wrap_alloc@V?$allocator@I@std@@@2@@Z 0040ffd0 f i ctpmd.obj
 0001:0000efe0       ?_Change_alloc@?$_Vector_alloc@$0A@U?$_Vec_base_types@U_Grp_t@?$_Tgt_state_t@PBD@std@@V?$allocator@U_Grp_t@?$_Tgt_state_t@PBD@std@@@3@@std@@@std@@QAEXABU?$_Wrap_alloc@V?$allocator@U_Grp_t@?$_Tgt_state_t@PBD@std@@@std@@@2@@Z 0040ffe0 f i ctpmd.obj
 0001:0000eff0       ?_Char_to_elts@?$_Builder@PBDDV?$regex_traits@D@std@@@std@@AAEXPBD0HPAPAU?$_Sequence@D@2@@Z 0040fff0 f i ctpmd.obj
 0001:0000f060       ?_CharacterClass@?$_Parser@PBDDV?$regex_traits@D@std@@@std@@AAEXXZ 00410060 f i ctpmd.obj
 0001:0000f120       ?_CharacterClassEscape@?$_Parser@PBDDV?$regex_traits@D@std@@@std@@AAE_N_N@Z 00410120 f i ctpmd.obj
 0001:0000f1c0       ?_CharacterEscape@?$_Parser@PBDDV?$regex_traits@D@std@@@std@@AAE_NXZ 004101c0 f i ctpmd.obj
 0001:0000f310       ?_Chassign@?$basic_string@DU?$char_traits@D@std@@V?$allocator@D@2@@std@@QAEXIID@Z 00410310 f i ctpmd.obj
 0001:0000f360       ?_ClassAtom@?$_Parser@PBDDV?$regex_traits@D@std@@@std@@AAE?AW4_Prs_ret@2@XZ 00410360 f i ctpmd.obj
 0001:0000f480       ?_ClassEscape@?$_Parser@PBDDV?$regex_traits@D@std@@@std@@AAE?AW4_Prs_ret@2@_N@Z 00410480 f i ctpmd.obj
 0001:0000f510       ?_ClassRanges@?$_Parser@PBDDV?$regex_traits@D@std@@@std@@AAEXXZ 00410510 f i ctpmd.obj
 0001:0000f6b0       ?_Clearf@?$_Matcher@PBDDV?$regex_traits@D@std@@PBD@std@@QAEXW4match_flag_type@regex_constants@2@@Z 004106b0 f i ctpmd.obj
 0001:0000f6c0       ?_Color@?$_Tree_val@U?$_Tree_simple_types@U?$pair@$$CBV?$basic_string@DU?$char_traits@D@std@@V?$allocator@D@2@@std@@N@std@@@std@@@std@@SAAADPAU?$_Tree_node@U?$pair@$$CBV?$basic_string@DU?$char_traits@D@std@@V?$allocator@D@2@@std@@N@std@@PAX@2@@Z 004106c0 f i ctpmd.obj
 0001:0000f6d0       ?_Color@?$_Tree_val@U?$_Tree_simple_types@U?$pair@$$CBV?$basic_string@DU?$char_traits@D@std@@V?$allocator@D@2@@std@@V12@@std@@@std@@@std@@SAAADPAU?$_Tree_node@U?$pair@$$CBV?$basic_string@DU?$char_traits@D@std@@V?$allocator@D@2@@std@@V12@@std@@PAX@2@@Z 004106d0 f i ctpmd.obj
 0001:0000f6e0       ?_Color@?$_Tree_val@U?$_Tree_simple_types@V?$basic_string@DU?$char_traits@D@std@@V?$allocator@D@2@@std@@@std@@@std@@SAAADPAU?$_Tree_node@V?$basic_string@DU?$char_traits@D@std@@V?$allocator@D@2@@std@@PAX@2@@Z 004106e0 f i ctpmd.obj
 0001:0000f6f0       ?_Compat@?$_String_const_iterator@V?$_String_val@U?$_Simple_types@D@std@@@std@@@std@@QBEXABV12@@Z 004106f0 f i ctpmd.obj
 0001:0000f700       ?_Compat@?$_Vb_const_iterator@U?$_Wrap_alloc@V?$allocator@I@std@@@std@@@std@@QBEXABV12@@Z 00410700 f i ctpmd.obj
 0001:0000f710       ?_Compat@?$_Vector_const_iterator@V?$_Vector_val@U?$_Simple_types@I@std@@@std@@@std@@QBEXABV12@@Z 00410710 f i ctpmd.obj
 0001:0000f720       ?_Compat@?$_Vector_const_iterator@V?$_Vector_val@U?$_Simple_types@V?$basic_string@DU?$char_traits@D@std@@V?$allocator@D@2@@std@@@std@@@std@@@std@@QBEXABV12@@Z 00410720 f i ctpmd.obj
 0001:0000f730       ?_Compile@?$_Parser@PBDDV?$regex_traits@D@std@@@std@@QAEPAV_Root_node@2@XZ 00410730 f i ctpmd.obj
 0001:0000f7e0       ?_Construct_n@?$vector@IV?$allocator@_N@std@@@std@@QAEXIPBI@Z 004107e0 f i ctpmd.obj
 0001:0000f820       ?_Copy@?$basic_string@DU?$char_traits@D@std@@V?$allocator@D@2@@std@@QAEXII@Z 00410820 f i ctpmd.obj
 0001:0000f970       ?_Dec@?$_Vb_const_iterator@U?$_Wrap_alloc@V?$allocator@I@std@@@std@@@std@@QAEXXZ 00410970 f i ctpmd.obj
 0001:0000f990       ?_DecimalDigits@?$_Parser@PBDDV?$regex_traits@D@std@@@std@@AAE_NXZ 00410990 f i ctpmd.obj
 0001:0000f9b0       ?_Decref@?$_Ptr_base@VEvent@@@std@@QAEXXZ 004109b0 f i ctpmd.obj
 0001:0000f9f0       ?_Decref@?$_Ptr_base@VEvent_Log@@@std@@QAEXXZ 004109f0 f i ctpmd.obj
 0001:0000fa30       ?_Decref@?$_Ptr_base@VEvent_Tick@@@std@@QAEXXZ 00410a30 f i ctpmd.obj
 0001:0000fa70       ?_Decref@_Ref_count_base@std@@QAEXXZ 00410a70 f i ctpmd.obj
 0001:0000faa0       ?_Decwref@_Ref_count_base@std@@QAEXXZ 00410aa0 f i ctpmd.obj
 0001:0000fac0       ?_Del@?$_Buf@D@std@@QAEDXZ 00410ac0 f i ctpmd.obj
 0001:0000fad0       ?_Delete_this@?$_Ref_count_obj@VEvent_Log@@@std@@EAEXXZ 00410ad0 f i ctpmd.obj
 0001:0000fae0       ?_Delete_this@?$_Ref_count_obj@VEvent_Tick@@@std@@EAEXXZ 00410ae0 f i ctpmd.obj
 0001:0000faf0       ?_Destroy@?$_Ref_count_obj@VEvent_Log@@@std@@EAEXXZ 00410af0 f i ctpmd.obj
 0001:0000fb00       ?_Destroy@?$_Ref_count_obj@VEvent_Tick@@@std@@EAEXXZ 00410b00 f i ctpmd.obj
 0001:0000fb10       ?_Destroy@?$vector@DV?$allocator@D@std@@@std@@IAEXPAD0@Z 00410b10 f i ctpmd.obj
 0001:0000fb20       ?_Destroy@?$vector@IV?$allocator@_N@std@@@std@@IAEXPAI0@Z 00410b20 f i ctpmd.obj
 0001:0000fb30       ?_Destroy@?$vector@U_Grp_t@?$_Tgt_state_t@PBD@std@@V?$allocator@U_Grp_t@?$_Tgt_state_t@PBD@std@@@3@@std@@IAEXPAU_Grp_t@?$_Tgt_state_t@PBD@2@0@Z 00410b30 f i ctpmd.obj
 0001:0000fb40       ?_Destroy@?$vector@U_Loop_vals_t@std@@V?$allocator@U_Loop_vals_t@std@@@2@@std@@IAEXPAU_Loop_vals_t@2@0@Z 00410b40 f i ctpmd.obj
 0001:0000fb50       ?_Destroy@?$vector@V?$basic_string@DU?$char_traits@D@std@@V?$allocator@D@2@@std@@V?$allocator@V?$basic_string@DU?$char_traits@D@std@@V?$allocator@D@2@@std@@@2@@std@@IAEXPAV?$basic_string@DU?$char_traits@D@std@@V?$allocator@D@2@@2@0@Z 00410b50 f i ctpmd.obj
 0001:0000fb90       ?_Destroy@?$vector@V?$sub_match@PBD@std@@V?$allocator@V?$sub_match@PBD@std@@@2@@std@@IAEXPAV?$sub_match@PBD@2@0@Z 00410b90 f i ctpmd.obj
 0001:0000fba0       ?_Destroy_if_not_nil@?$_Tree@V?$_Tmap_traits@V?$basic_string@DU?$char_traits@D@std@@V?$allocator@D@2@@std@@NU?$less@V?$basic_string@DU?$char_traits@D@std@@V?$allocator@D@2@@std@@@2@V?$allocator@U?$pair@$$CBV?$basic_string@DU?$char_traits@D@std@@V?$allocator@D@2@@std@@N@std@@@2@$0A@@std@@@std@@IAEXPAU?$_Tree_node@U?$pair@$$CBV?$basic_string@DU?$char_traits@D@std@@V?$allocator@D@2@@std@@N@std@@PAX@2@@Z 00410ba0 f i ctpmd.obj
 0001:0000fbe0       ?_Destroy_if_not_nil@?$_Tree@V?$_Tmap_traits@V?$basic_string@DU?$char_traits@D@std@@V?$allocator@D@2@@std@@V12@U?$less@V?$basic_string@DU?$char_traits@D@std@@V?$allocator@D@2@@std@@@2@V?$allocator@U?$pair@$$CBV?$basic_string@DU?$char_traits@D@std@@V?$allocator@D@2@@std@@V12@@std@@@2@$0A@@std@@@std@@IAEXPAU?$_Tree_node@U?$pair@$$CBV?$basic_string@DU?$char_traits@D@std@@V?$allocator@D@2@@std@@V12@@std@@PAX@2@@Z 00410be0 f i ctpmd.obj
 0001:0000fc40       ?_Destroy_if_not_nil@?$_Tree@V?$_Tset_traits@V?$basic_string@DU?$char_traits@D@std@@V?$allocator@D@2@@std@@U?$less@V?$basic_string@DU?$char_traits@D@std@@V?$allocator@D@2@@std@@@2@V?$allocator@V?$basic_string@DU?$char_traits@D@std@@V?$allocator@D@2@@std@@@2@$0A@@std@@@std@@IAEXPAU?$_Tree_node@V?$basic_string@DU?$char_traits@D@std@@V?$allocator@D@2@@std@@PAX@2@@Z 00410c40 f i ctpmd.obj
 0001:0000fc80       ?_Destroy_if_not_nil@?$_Tree@V?$_Tset_traits@V?$basic_string@DU?$char_traits@D@std@@V?$allocator@D@2@@std@@U?$less@V?$basic_string@DU?$char_traits@D@std@@V?$allocator@D@2@@std@@@2@V?$allocator@V?$basic_string@DU?$char_traits@D@std@@V?$allocator@D@2@@std@@@2@$0A@@std@@@std@@IAEXU_Nil@2@@Z 00410c80 f i ctpmd.obj
 0001:0000fc90       ?_Destroy_node@std@@YAXPAV_Node_base@1@0@Z 00410c90 f i ctpmd.obj
 0001:0000fcc0       ?_Discard_pattern@?$_Builder@PBDDV?$regex_traits@D@std@@@std@@QAEXXZ 00410cc0 f i ctpmd.obj
 0001:0000fcf0       ?_Disjunction@?$_Parser@PBDDV?$regex_traits@D@std@@@std@@AAEXXZ 00410cf0 f i ctpmd.obj
 0001:0000fe10       ?_Do_assert_group@?$_Parser@PBDDV?$regex_traits@D@std@@@std@@AAEX_N@Z 00410e10 f i ctpmd.obj
 0001:0000fe40       ?_Do_capture_group@?$_Parser@PBDDV?$regex_traits@D@std@@@std@@AAEXXZ 00410e40 f i ctpmd.obj
 0001:0000fea0       ?_Do_class@?$_Matcher@PBDDV?$regex_traits@D@std@@PBD@std@@AAE_NPAV_Node_base@2@@Z 00410ea0 f i ctpmd.obj
 0001:00010030       ?_Do_digits@?$_Parser@PBDDV?$regex_traits@D@std@@@std@@AAEHHH@Z 00411030 f i ctpmd.obj
 0001:00010110       ?_Do_ex_class@?$_Parser@PBDDV?$regex_traits@D@std@@@std@@AAEXW4_Meta_type@2@@Z 00411110 f i ctpmd.obj
 0001:00010280       ?_Do_ffn@?$_Parser@PBDDV?$regex_traits@D@std@@@std@@AAE_ND@Z 00411280 f i ctpmd.obj
 0001:00010300       ?_Do_ffnx@?$_Parser@PBDDV?$regex_traits@D@std@@@std@@AAE_ND@Z 00411300 f i ctpmd.obj
 0001:00010320       ?_Do_if@?$_Matcher@PBDDV?$regex_traits@D@std@@PBD@std@@AAE_NPAV_Node_if@2@@Z 00411320 f i ctpmd.obj
 0001:000104d0       ?_Do_noncapture_group@?$_Parser@PBDDV?$regex_traits@D@std@@@std@@AAEXXZ 004114d0 f i ctpmd.obj
 0001:00010500       ?_Do_rep0@?$_Matcher@PBDDV?$regex_traits@D@std@@PBD@std@@AAE_NPAV_Node_rep@2@_N@Z 00411500 f i ctpmd.obj
 0001:00010750       ?_Do_rep@?$_Matcher@PBDDV?$regex_traits@D@std@@PBD@std@@AAE_NPAV_Node_rep@2@_NH@Z 00411750 f i ctpmd.obj
 0001:00010990       ?_Else_if@?$_Builder@PBDDV?$regex_traits@D@std@@@std@@QAEXPAV_Node_base@2@0@Z 00411990 f i ctpmd.obj
 0001:00010a30       ?_Empty@?$basic_regex@DV?$regex_traits@D@std@@@std@@QBE_NXZ 00411a30 f i ctpmd.obj
 0001:00010a40       ?_Enable_shared@std@@YAXPDX0@Z 00411a40 f i ctpmd.obj
 0001:00010a50       ?_End_assert_group@?$_Builder@PBDDV?$regex_traits@D@std@@@std@@QAEXPAV_Node_base@2@@Z 00411a50 f i ctpmd.obj
 0001:00010a70       ?_End_group@?$_Builder@PBDDV?$regex_traits@D@std@@@std@@QAEXPAV_Node_base@2@@Z 00411a70 f i ctpmd.obj
 0001:00010b10       ?_End_pattern@?$_Builder@PBDDV?$regex_traits@D@std@@@std@@QAEPAV_Root_node@2@XZ 00411b10 f i ctpmd.obj
 0001:00010b20       ?_Endwrite@?$basic_filebuf@DU?$char_traits@D@std@@@std@@IAE_NXZ 00411b20 f i ctpmd.obj
 0001:00010c70       ?_Eos@?$basic_string@DU?$char_traits@D@std@@V?$allocator@D@2@@std@@QAEXI@Z 00411c70 f i ctpmd.obj
 0001:00010ca0       ?_Erase@?$_Tree@V?$_Tmap_traits@V?$basic_string@DU?$char_traits@D@std@@V?$allocator@D@2@@std@@NU?$less@V?$basic_string@DU?$char_traits@D@std@@V?$allocator@D@2@@std@@@2@V?$allocator@U?$pair@$$CBV?$basic_string@DU?$char_traits@D@std@@V?$allocator@D@2@@std@@N@std@@@2@$0A@@std@@@std@@IAEXPAU?$_Tree_node@U?$pair@$$CBV?$basic_string@DU?$char_traits@D@std@@V?$allocator@D@2@@std@@N@std@@PAX@2@@Z 00411ca0 f i ctpmd.obj
 0001:00010d00       ?_Erase@?$_Tree@V?$_Tmap_traits@V?$basic_string@DU?$char_traits@D@std@@V?$allocator@D@2@@std@@V12@U?$less@V?$basic_string@DU?$char_traits@D@std@@V?$allocator@D@2@@std@@@2@V?$allocator@U?$pair@$$CBV?$basic_string@DU?$char_traits@D@std@@V?$allocator@D@2@@std@@V12@@std@@@2@$0A@@std@@@std@@IAEXPAU?$_Tree_node@U?$pair@$$CBV?$basic_string@DU?$char_traits@D@std@@V?$allocator@D@2@@std@@V12@@std@@PAX@2@@Z 00411d00 f i ctpmd.obj
 0001:00010d80       ?_Erase@?$_Tree@V?$_Tset_traits@V?$basic_string@DU?$char_traits@D@std@@V?$allocator@D@2@@std@@U?$less@V?$basic_string@DU?$char_traits@D@std@@V?$allocator@D@2@@std@@@2@V?$allocator@V?$basic_string@DU?$char_traits@D@std@@V?$allocator@D@2@@std@@@2@$0A@@std@@@std@@IAEXPAU?$_Tree_node@V?$basic_string@DU?$char_traits@D@std@@V?$allocator@D@2@@std@@PAX@2@@Z 00411d80 f i ctpmd.obj
 0001:00010de0       ?_Error@?$_Parser@PBDDV?$regex_traits@D@std@@@std@@AAEXW4error_type@regex_constants@2@@Z 00411de0 f i ctpmd.obj
 0001:00010df0       ?_Expand@?$_Buf@D@std@@AAEXH@Z 00411df0 f i ctpmd.obj
 0001:00010e20       ?_Expect@?$_Parser@PBDDV?$regex_traits@D@std@@@std@@AAEXW4_Meta_type@2@W4error_type@regex_constants@2@@Z 00411e20 f i ctpmd.obj
 0001:00010e80       ?_Find@_Bitmap@std@@QBE_NI@Z 00411e80 f i ctpmd.obj
 0001:00010eb0       ?_Free_proxy@?$_Vb_val@V?$allocator@_N@std@@@std@@QAEXXZ 00411eb0 f i ctpmd.obj
 0001:00010ec0       ?_Freeheadnode@?$_Tree_alloc@$0A@U?$_Tree_base_types@U?$pair@$$CBV?$basic_string@DU?$char_traits@D@std@@V?$allocator@D@2@@std@@N@std@@V?$allocator@U?$pair@$$CBV?$basic_string@DU?$char_traits@D@std@@V?$allocator@D@2@@std@@N@std@@@2@@std@@@std@@QAEXPAU?$_Tree_node@U?$pair@$$CBV?$basic_string@DU?$char_traits@D@std@@V?$allocator@D@2@@std@@N@std@@PAX@2@@Z 00411ec0 f i ctpmd.obj
 0001:00010ee0       ?_Freeheadnode@?$_Tree_alloc@$0A@U?$_Tree_base_types@U?$pair@$$CBV?$basic_string@DU?$char_traits@D@std@@V?$allocator@D@2@@std@@V12@@std@@V?$allocator@U?$pair@$$CBV?$basic_string@DU?$char_traits@D@std@@V?$allocator@D@2@@std@@V12@@std@@@2@@std@@@std@@QAEXPAU?$_Tree_node@U?$pair@$$CBV?$basic_string@DU?$char_traits@D@std@@V?$allocator@D@2@@std@@V12@@std@@PAX@2@@Z 00411ee0 f i ctpmd.obj
 0001:00010f00       ?_Freeheadnode@?$_Tree_alloc@$0A@U?$_Tree_base_types@V?$basic_string@DU?$char_traits@D@std@@V?$allocator@D@2@@std@@V?$allocator@V?$basic_string@DU?$char_traits@D@std@@V?$allocator@D@2@@std@@@2@@std@@@std@@QAEXPAU?$_Tree_node@V?$basic_string@DU?$char_traits@D@std@@V?$allocator@D@2@@std@@PAX@2@@Z 00411f00 f i ctpmd.obj
 0001:00010f20       ?_Freenode0@?$_Tree_buy@U?$pair@$$CBV?$basic_string@DU?$char_traits@D@std@@V?$allocator@D@2@@std@@N@std@@V?$allocator@U?$pair@$$CBV?$basic_string@DU?$char_traits@D@std@@V?$allocator@D@2@@std@@N@std@@@2@@std@@QAEXPAU?$_Tree_node@U?$pair@$$CBV?$basic_string@DU?$char_traits@D@std@@V?$allocator@D@2@@std@@N@std@@PAX@2@@Z 00411f20 f i ctpmd.obj
 0001:00010f40       ?_Freenode0@?$_Tree_buy@U?$pair@$$CBV?$basic_string@DU?$char_traits@D@std@@V?$allocator@D@2@@std@@V12@@std@@V?$allocator@U?$pair@$$CBV?$basic_string@DU?$char_traits@D@std@@V?$allocator@D@2@@std@@V12@@std@@@2@@std@@QAEXPAU?$_Tree_node@U?$pair@$$CBV?$basic_string@DU?$char_traits@D@std@@V?$allocator@D@2@@std@@V12@@std@@PAX@2@@Z 00411f40 f i ctpmd.obj
 0001:00010f60       ?_Freenode0@?$_Tree_buy@V?$basic_string@DU?$char_traits@D@std@@V?$allocator@D@2@@std@@V?$allocator@V?$basic_string@DU?$char_traits@D@std@@V?$allocator@D@2@@std@@@2@@std@@QAEXPAU?$_Tree_node@V?$basic_string@DU?$char_traits@D@std@@V?$allocator@D@2@@std@@PAX@2@@Z 00411f60 f i ctpmd.obj
 0001:00010f80       ?_Get@?$_Ptr_base@VEvent_Log@@@std@@QBEPAVEvent_Log@@XZ 00411f80 f i ctpmd.obj
 0001:00010f90       ?_Get@?$_Ptr_base@VEvent_Tick@@@std@@QBEPAVEvent_Tick@@XZ 00411f90 f i ctpmd.obj
 0001:00010fa0       ?_Get@?$basic_regex@DV?$regex_traits@D@std@@@std@@QBEPAV_Root_node@2@XZ 00411fa0 f i ctpmd.obj
 0001:00010fb0       ?_Get_deleter@_Ref_count_base@std@@UBEPAXABVtype_info@@@Z 00411fb0 f i ctpmd.obj
 0001:00010fc0       ?_Get_rest@?$tuple@$$QAV?$basic_string@DU?$char_traits@D@std@@V?$allocator@D@2@@std@@@std@@QAEAAV?$tuple@$$$V@2@XZ 00411fc0 f i ctpmd.obj
 0001:00010fd0       ?_Get_traits@?$basic_regex@DV?$regex_traits@D@std@@@std@@QBEABV?$regex_traits@D@2@XZ 00411fd0 f i ctpmd.obj
 0001:00010fe0       ?_Getal@?$_String_alloc@$0A@U?$_String_base_types@DV?$allocator@D@std@@@std@@@std@@QBE?AU?$_Wrap_alloc@V?$allocator@D@std@@@2@XZ 00411fe0 f i ctpmd.obj
 0001:00010ff0       ?_Getal@?$_Tree_alloc@$0A@U?$_Tree_base_types@U?$pair@$$CBV?$basic_string@DU?$char_traits@D@std@@V?$allocator@D@2@@std@@N@std@@V?$allocator@U?$pair@$$CBV?$basic_string@DU?$char_traits@D@std@@V?$allocator@D@2@@std@@N@std@@@2@@std@@@std@@QBE?AU?$_Wrap_alloc@V?$allocator@U?$_Tree_node@U?$pair@$$CBV?$basic_string@DU?$char_traits@D@std@@V?$allocator@D@2@@std@@N@std@@PAX@std@@@std@@@2@XZ 00411ff0 f i ctpmd.obj
 0001:00011000       ?_Getal@?$_Tree_alloc@$0A@U?$_Tree_base_types@U?$pair@$$CBV?$basic_string@DU?$char_traits@D@std@@V?$allocator@D@2@@std@@V12@@std@@V?$allocator@U?$pair@$$CBV?$basic_string@DU?$char_traits@D@std@@V?$allocator@D@2@@std@@V12@@std@@@2@@std@@@std@@QBE?AU?$_Wrap_alloc@V?$allocator@U?$_Tree_node@U?$pair@$$CBV?$basic_string@DU?$char_traits@D@std@@V?$allocator@D@2@@std@@V12@@std@@PAX@std@@@std@@@2@XZ 00412000 f i ctpmd.obj
 0001:00011010       ?_Getal@?$_Tree_alloc@$0A@U?$_Tree_base_types@V?$basic_string@DU?$char_traits@D@std@@V?$allocator@D@2@@std@@V?$allocator@V?$basic_string@DU?$char_traits@D@std@@V?$allocator@D@2@@std@@@2@@std@@@std@@QBE?AU?$_Wrap_alloc@V?$allocator@U?$_Tree_node@V?$basic_string@DU?$char_traits@D@std@@V?$allocator@D@2@@std@@PAX@std@@@std@@@2@XZ 00412010 f i ctpmd.obj
 0001:00011020       ?_Getal@?$_Vector_alloc@$0A@U?$_Vec_base_types@DV?$allocator@D@std@@@std@@@std@@QBE?AU?$_Wrap_alloc@V?$allocator@D@std@@@2@XZ 00412020 f i ctpmd.obj
 0001:00011030       ?_Getal@?$_Vector_alloc@$0A@U?$_Vec_base_types@IV?$allocator@_N@std@@@std@@@std@@QBE?AU?$_Wrap_alloc@V?$allocator@I@std@@@2@XZ 00412030 f i ctpmd.obj
 0001:00011040       ?_Getal@?$_Vector_alloc@$0A@U?$_Vec_base_types@U_Grp_t@?$_Tgt_state_t@PBD@std@@V?$allocator@U_Grp_t@?$_Tgt_state_t@PBD@std@@@3@@std@@@std@@QBE?AU?$_Wrap_alloc@V?$allocator@U_Grp_t@?$_Tgt_state_t@PBD@std@@@std@@@2@XZ 00412040 f i ctpmd.obj
 0001:00011050       ?_Getal@?$_Vector_alloc@$0A@U?$_Vec_base_types@U_Loop_vals_t@std@@V?$allocator@U_Loop_vals_t@std@@@2@@std@@@std@@QBE?AU?$_Wrap_alloc@V?$allocator@U_Loop_vals_t@std@@@std@@@2@XZ 00412050 f i ctpmd.obj
 0001:00011060       ?_Getal@?$_Vector_alloc@$0A@U?$_Vec_base_types@V?$basic_string@DU?$char_traits@D@std@@V?$allocator@D@2@@std@@V?$allocator@V?$basic_string@DU?$char_traits@D@std@@V?$allocator@D@2@@std@@@2@@std@@@std@@QBE?AU?$_Wrap_alloc@V?$allocator@V?$basic_string@DU?$char_traits@D@std@@V?$allocator@D@2@@std@@@std@@@2@XZ 00412060 f i ctpmd.obj
 0001:00011070       ?_Getal@?$_Vector_alloc@$0A@U?$_Vec_base_types@V?$sub_match@PBD@std@@V?$allocator@V?$sub_match@PBD@std@@@2@@std@@@std@@QBE?AU?$_Wrap_alloc@V?$allocator@V?$sub_match@PBD@std@@@std@@@2@XZ 00412070 f i ctpmd.obj
 0001:00011080       ?_Getcat@?$collate@D@std@@SAIPAPBVfacet@locale@2@PBV42@@Z 00412080 f i ctpmd.obj
 0001:00011190       ?_Getcoll@?$_Regex_traits@D@std@@QBEPBV?$collate@D@2@XZ 00412190 f i ctpmd.obj
 0001:00011210       ?_Getcomp@?$_Tree_comp@$0A@V?$_Tmap_traits@V?$basic_string@DU?$char_traits@D@std@@V?$allocator@D@2@@std@@NU?$less@V?$basic_string@DU?$char_traits@D@std@@V?$allocator@D@2@@std@@@2@V?$allocator@U?$pair@$$CBV?$basic_string@DU?$char_traits@D@std@@V?$allocator@D@2@@std@@N@std@@@2@$0A@@std@@@std@@QBE?AU?$less@V?$basic_string@DU?$char_traits@D@std@@V?$allocator@D@2@@std@@@2@XZ 00412210 f i ctpmd.obj
 0001:00011220       ?_Getcomp@?$_Tree_comp@$0A@V?$_Tmap_traits@V?$basic_string@DU?$char_traits@D@std@@V?$allocator@D@2@@std@@V12@U?$less@V?$basic_string@DU?$char_traits@D@std@@V?$allocator@D@2@@std@@@2@V?$allocator@U?$pair@$$CBV?$basic_string@DU?$char_traits@D@std@@V?$allocator@D@2@@std@@V12@@std@@@2@$0A@@std@@@std@@QBE?AU?$less@V?$basic_string@DU?$char_traits@D@std@@V?$allocator@D@2@@std@@@2@XZ 00412220 f i ctpmd.obj
 0001:00011230       ?_Getcomp@?$_Tree_comp@$0A@V?$_Tset_traits@V?$basic_string@DU?$char_traits@D@std@@V?$allocator@D@2@@std@@U?$less@V?$basic_string@DU?$char_traits@D@std@@V?$allocator@D@2@@std@@@2@V?$allocator@V?$basic_string@DU?$char_traits@D@std@@V?$allocator@D@2@@std@@@2@$0A@@std@@@std@@QBE?AU?$less@V?$basic_string@DU?$char_traits@D@std@@V?$allocator@D@2@@std@@@2@XZ 00412230 f i ctpmd.obj
 0001:00011240       ?_Getcont@_Iterator_base0@std@@QBEPBU_Container_base0@2@XZ 00412240 f i ctpmd.obj
 0001:00011250       ?_Getctype@?$_Regex_traits@D@std@@QBEPBV?$ctype@D@2@XZ 00412250 f i ctpmd.obj
 0001:000112d0       ?_Getfacet@locale@std@@QBEPBVfacet@12@I@Z 004122d0 f i ctpmd.obj
 0001:00011310       ?_Getmark@?$_Builder@PBDDV?$regex_traits@D@std@@@std@@QBEPAV_Node_base@2@XZ 00412310 f i ctpmd.obj
 0001:00011320       ?_Getptr@?$_Ref_count_obj@VEvent_Log@@@std@@QBEPAVEvent_Log@@XZ 00412320 f i ctpmd.obj
 0001:00011330       ?_Getptr@?$_Ref_count_obj@VEvent_Tick@@@std@@QBEPAVEvent_Tick@@XZ 00412330 f i ctpmd.obj
 0001:00011340       ?_Getptr@?$_Vb_reference@U?$_Wrap_alloc@V?$allocator@I@std@@@std@@@std@@QBEPBIXZ 00412340 f i ctpmd.obj
 0001:00011350       ?_Grow@?$basic_string@DU?$char_traits@D@std@@V?$allocator@D@2@@std@@QAE_NI_N@Z 00412350 f i ctpmd.obj
 0001:00011400       ?_Grow_to@?$vector@IV?$allocator@_N@std@@@std@@IBEII@Z 00412400 f i ctpmd.obj
 0001:00011440       ?_Grow_to@?$vector@U_Grp_t@?$_Tgt_state_t@PBD@std@@V?$allocator@U_Grp_t@?$_Tgt_state_t@PBD@std@@@3@@std@@IBEII@Z 00412440 f i ctpmd.obj
 0001:00011480       ?_Grow_to@?$vector@U_Loop_vals_t@std@@V?$allocator@U_Loop_vals_t@std@@@2@@std@@IBEII@Z 00412480 f i ctpmd.obj
 0001:000114c0       ?_Grow_to@?$vector@V?$basic_string@DU?$char_traits@D@std@@V?$allocator@D@2@@std@@V?$allocator@V?$basic_string@DU?$char_traits@D@std@@V?$allocator@D@2@@std@@@2@@std@@IBEII@Z 004124c0 f i ctpmd.obj
 0001:00011510       ?_Grow_to@?$vector@V?$sub_match@PBD@std@@V?$allocator@V?$sub_match@PBD@std@@@2@@std@@IBEII@Z 00412510 f i ctpmd.obj
 0001:00011560       ?_Hash_seq@std@@YAIPBEI@Z  00412560 f i ctpmd.obj
 0001:00011590       ?_HexDigits@?$_Parser@PBDDV?$regex_traits@D@std@@@std@@AAEXH@Z 00412590 f i ctpmd.obj
 0001:000115b0       ?_IdentityEscape@?$_Parser@PBDDV?$regex_traits@D@std@@@std@@AAE_NXZ 004125b0 f i ctpmd.obj
 0001:00011690       ?_Inc@?$_Vb_const_iterator@U?$_Wrap_alloc@V?$allocator@I@std@@@std@@@std@@QAEXXZ 00412690 f i ctpmd.obj
 0001:000116b0       ?_Incref@_Ref_count_base@std@@QAEXXZ 004126b0 f i ctpmd.obj
 0001:000116c0       ?_Init@?$basic_filebuf@DU?$char_traits@D@std@@@std@@IAEXPAU_iobuf@@W4_Initfl@12@@Z 004126c0 f i ctpmd.obj
 0001:00011710       ?_Init@?$collate@D@std@@IAEXABV_Locinfo@2@@Z 00412710 f i ctpmd.obj
 0001:00011730       ?_Init_atomic_counter@std@@YAXAAKK@Z 00412730 f i ctpmd.obj
 0001:00011740       ?_Initcvt@?$basic_filebuf@DU?$char_traits@D@std@@@std@@IAEXPBV?$codecvt@DDH@2@@Z 00412740 f i ctpmd.obj
 0001:00011780       ?_Insert@?$_Buf@D@std@@QAEXD@Z 00412780 f i ctpmd.obj
 0001:000117d0       ?_Insert_n@?$vector@_NV?$allocator@_N@std@@@std@@QAE?AV?$_Vb_iterator@U?$_Wrap_alloc@V?$allocator@I@std@@@std@@@2@V?$_Vb_const_iterator@U?$_Wrap_alloc@V?$allocator@I@std@@@std@@@2@IAB_N@Z 004127d0 f i ctpmd.obj
 0001:000118d0       ?_Insert_x@?$vector@_NV?$allocator@_N@std@@@std@@QAEIV?$_Vb_const_iterator@U?$_Wrap_alloc@V?$allocator@I@std@@@std@@@2@I@Z 004128d0 f i ctpmd.obj
 0001:000119a0       ?_Inside@?$basic_string@DU?$char_traits@D@std@@V?$allocator@D@2@@std@@QAE_NPBD@Z 004129a0 f i ctpmd.obj
 0001:000119e0       ?_Inside@?$vector@IV?$allocator@_N@std@@@std@@IBE_NPBI@Z 004129e0 f i ctpmd.obj
 0001:00011a00       ?_Is_esc@?$_Parser@PBDDV?$regex_traits@D@std@@@std@@ABE_NXZ 00412a00 f i ctpmd.obj
 0001:00011a40       ?_Is_wc@?$_Matcher@PBDDV?$regex_traits@D@std@@PBD@std@@AAE_NPBDH@Z 00412a40 f i ctpmd.obj
 0001:00011a90       ?_Isnil@?$_Tree_val@U?$_Tree_simple_types@U?$pair@$$CBV?$basic_string@DU?$char_traits@D@std@@V?$allocator@D@2@@std@@N@std@@@std@@@std@@SAAADPAU?$_Tree_node@U?$pair@$$CBV?$basic_string@DU?$char_traits@D@std@@V?$allocator@D@2@@std@@N@std@@PAX@2@@Z 00412a90 f i ctpmd.obj
 0001:00011aa0       ?_Isnil@?$_Tree_val@U?$_Tree_simple_types@U?$pair@$$CBV?$basic_string@DU?$char_traits@D@std@@V?$allocator@D@2@@std@@V12@@std@@@std@@@std@@SAAADPAU?$_Tree_node@U?$pair@$$CBV?$basic_string@DU?$char_traits@D@std@@V?$allocator@D@2@@std@@V12@@std@@PAX@2@@Z 00412aa0 f i ctpmd.obj
 0001:00011ab0       ?_Isnil@?$_Tree_val@U?$_Tree_simple_types@V?$basic_string@DU?$char_traits@D@std@@V?$allocator@D@2@@std@@@std@@@std@@SAAADPAU?$_Tree_node@V?$basic_string@DU?$char_traits@D@std@@V?$allocator@D@2@@std@@PAX@2@@Z 00412ab0 f i ctpmd.obj
 0001:00011ac0       ?_Key@?$_Tree@V?$_Tmap_traits@V?$basic_string@DU?$char_traits@D@std@@V?$allocator@D@2@@std@@NU?$less@V?$basic_string@DU?$char_traits@D@std@@V?$allocator@D@2@@std@@@2@V?$allocator@U?$pair@$$CBV?$basic_string@DU?$char_traits@D@std@@V?$allocator@D@2@@std@@N@std@@@2@$0A@@std@@@std@@IBEABV?$basic_string@DU?$char_traits@D@std@@V?$allocator@D@2@@2@PAU?$_Tree_node@U?$pair@$$CBV?$basic_string@DU?$char_traits@D@std@@V?$allocator@D@2@@std@@N@std@@PAX@2@@Z 00412ac0 f i ctpmd.obj
 0001:00011ad0       ?_Key@?$_Tree@V?$_Tmap_traits@V?$basic_string@DU?$char_traits@D@std@@V?$allocator@D@2@@std@@V12@U?$less@V?$basic_string@DU?$char_traits@D@std@@V?$allocator@D@2@@std@@@2@V?$allocator@U?$pair@$$CBV?$basic_string@DU?$char_traits@D@std@@V?$allocator@D@2@@std@@V12@@std@@@2@$0A@@std@@@std@@IBEABV?$basic_string@DU?$char_traits@D@std@@V?$allocator@D@2@@2@PAU?$_Tree_node@U?$pair@$$CBV?$basic_string@DU?$char_traits@D@std@@V?$allocator@D@2@@std@@V12@@std@@PAX@2@@Z 00412ad0 f i ctpmd.obj
 0001:00011ae0       ?_Key@?$_Tree@V?$_Tset_traits@V?$basic_string@DU?$char_traits@D@std@@V?$allocator@D@2@@std@@U?$less@V?$basic_string@DU?$char_traits@D@std@@V?$allocator@D@2@@std@@@2@V?$allocator@V?$basic_string@DU?$char_traits@D@std@@V?$allocator@D@2@@std@@@2@$0A@@std@@@std@@IBEABV?$basic_string@DU?$char_traits@D@std@@V?$allocator@D@2@@2@PAU?$_Tree_node@V?$basic_string@DU?$char_traits@D@std@@V?$allocator@D@2@@std@@PAX@2@@Z 00412ae0 f i ctpmd.obj
 0001:00011af0       ?_Kfn@?$_Tree@V?$_Tmap_traits@V?$basic_string@DU?$char_traits@D@std@@V?$allocator@D@2@@std@@NU?$less@V?$basic_string@DU?$char_traits@D@std@@V?$allocator@D@2@@std@@@2@V?$allocator@U?$pair@$$CBV?$basic_string@DU?$char_traits@D@std@@V?$allocator@D@2@@std@@N@std@@@2@$0A@@std@@@std@@IBEABV?$basic_string@DU?$char_traits@D@std@@V?$allocator@D@2@@2@ABU?$pair@$$CBV?$basic_string@DU?$char_traits@D@std@@V?$allocator@D@2@@std@@N@2@@Z 00412af0 f i ctpmd.obj
 0001:00011b00       ?_Kfn@?$_Tree@V?$_Tmap_traits@V?$basic_string@DU?$char_traits@D@std@@V?$allocator@D@2@@std@@V12@U?$less@V?$basic_string@DU?$char_traits@D@std@@V?$allocator@D@2@@std@@@2@V?$allocator@U?$pair@$$CBV?$basic_string@DU?$char_traits@D@std@@V?$allocator@D@2@@std@@V12@@std@@@2@$0A@@std@@@std@@IBEABV?$basic_string@DU?$char_traits@D@std@@V?$allocator@D@2@@2@ABU?$pair@$$CBV?$basic_string@DU?$char_traits@D@std@@V?$allocator@D@2@@std@@V12@@2@@Z 00412b00 f i ctpmd.obj
 0001:00011b10       ?_Kfn@?$_Tree@V?$_Tset_traits@V?$basic_string@DU?$char_traits@D@std@@V?$allocator@D@2@@std@@U?$less@V?$basic_string@DU?$char_traits@D@std@@V?$allocator@D@2@@std@@@2@V?$allocator@V?$basic_string@DU?$char_traits@D@std@@V?$allocator@D@2@@std@@@2@$0A@@std@@@std@@IBEABV?$basic_string@DU?$char_traits@D@std@@V?$allocator@D@2@@2@ABV32@@Z 00412b10 f i ctpmd.obj
 0001:00011b20       ?_Kfn@?$_Tset_traits@V?$basic_string@DU?$char_traits@D@std@@V?$allocator@D@2@@std@@U?$less@V?$basic_string@DU?$char_traits@D@std@@V?$allocator@D@2@@std@@@2@V?$allocator@V?$basic_string@DU?$char_traits@D@std@@V?$allocator@D@2@@std@@@2@$0A@@std@@SAABV?$basic_string@DU?$char_traits@D@std@@V?$allocator@D@2@@2@ABV32@@Z 00412b20 f i ctpmd.obj
 0001:00011b30       ?_Lbound@?$_Tree@V?$_Tmap_traits@V?$basic_string@DU?$char_traits@D@std@@V?$allocator@D@2@@std@@NU?$less@V?$basic_string@DU?$char_traits@D@std@@V?$allocator@D@2@@std@@@2@V?$allocator@U?$pair@$$CBV?$basic_string@DU?$char_traits@D@std@@V?$allocator@D@2@@std@@N@std@@@2@$0A@@std@@@std@@IAEPAU?$_Tree_node@U?$pair@$$CBV?$basic_string@DU?$char_traits@D@std@@V?$allocator@D@2@@std@@N@std@@PAX@2@ABV?$basic_string@DU?$char_traits@D@std@@V?$allocator@D@2@@2@@Z 00412b30 f i ctpmd.obj
 0001:00011c10       ?_Lbound@?$_Tree@V?$_Tmap_traits@V?$basic_string@DU?$char_traits@D@std@@V?$allocator@D@2@@std@@V12@U?$less@V?$basic_string@DU?$char_traits@D@std@@V?$allocator@D@2@@std@@@2@V?$allocator@U?$pair@$$CBV?$basic_string@DU?$char_traits@D@std@@V?$allocator@D@2@@std@@V12@@std@@@2@$0A@@std@@@std@@IAEPAU?$_Tree_node@U?$pair@$$CBV?$basic_string@DU?$char_traits@D@std@@V?$allocator@D@2@@std@@V12@@std@@PAX@2@ABV?$basic_string@DU?$char_traits@D@std@@V?$allocator@D@2@@2@@Z 00412c10 f i ctpmd.obj
 0001:00011cf0       ?_Lbound@?$_Tree@V?$_Tset_traits@V?$basic_string@DU?$char_traits@D@std@@V?$allocator@D@2@@std@@U?$less@V?$basic_string@DU?$char_traits@D@std@@V?$allocator@D@2@@std@@@2@V?$allocator@V?$basic_string@DU?$char_traits@D@std@@V?$allocator@D@2@@std@@@2@$0A@@std@@@std@@IAEPAU?$_Tree_node@V?$basic_string@DU?$char_traits@D@std@@V?$allocator@D@2@@std@@PAX@2@ABV?$basic_string@DU?$char_traits@D@std@@V?$allocator@D@2@@2@@Z 00412cf0 f i ctpmd.obj
 0001:00011dd0       ?_Left@?$_Tree_val@U?$_Tree_simple_types@U?$pair@$$CBV?$basic_string@DU?$char_traits@D@std@@V?$allocator@D@2@@std@@N@std@@@std@@@std@@SAAAPAU?$_Tree_node@U?$pair@$$CBV?$basic_string@DU?$char_traits@D@std@@V?$allocator@D@2@@std@@N@std@@PAX@2@PAU32@@Z 00412dd0 f i ctpmd.obj
 0001:00011de0       ?_Left@?$_Tree_val@U?$_Tree_simple_types@U?$pair@$$CBV?$basic_string@DU?$char_traits@D@std@@V?$allocator@D@2@@std@@V12@@std@@@std@@@std@@SAAAPAU?$_Tree_node@U?$pair@$$CBV?$basic_string@DU?$char_traits@D@std@@V?$allocator@D@2@@std@@V12@@std@@PAX@2@PAU32@@Z 00412de0 f i ctpmd.obj
 0001:00011df0       ?_Left@?$_Tree_val@U?$_Tree_simple_types@V?$basic_string@DU?$char_traits@D@std@@V?$allocator@D@2@@std@@@std@@@std@@SAAAPAU?$_Tree_node@V?$basic_string@DU?$char_traits@D@std@@V?$allocator@D@2@@std@@PAX@2@PAU32@@Z 00412df0 f i ctpmd.obj
 0001:00011e00       ?_Link_node@?$_Builder@PBDDV?$regex_traits@D@std@@@std@@AAEPAV_Node_base@2@PAV32@@Z 00412e00 f i ctpmd.obj
 0001:00011e40       ?_Lmost@?$_Tree@V?$_Tmap_traits@V?$basic_string@DU?$char_traits@D@std@@V?$allocator@D@2@@std@@NU?$less@V?$basic_string@DU?$char_traits@D@std@@V?$allocator@D@2@@std@@@2@V?$allocator@U?$pair@$$CBV?$basic_string@DU?$char_traits@D@std@@V?$allocator@D@2@@std@@N@std@@@2@$0A@@std@@@std@@IBEAAPAU?$_Tree_node@U?$pair@$$CBV?$basic_string@DU?$char_traits@D@std@@V?$allocator@D@2@@std@@N@std@@PAX@2@XZ 00412e40 f i ctpmd.obj
 0001:00011e50       ?_Lmost@?$_Tree@V?$_Tmap_traits@V?$basic_string@DU?$char_traits@D@std@@V?$allocator@D@2@@std@@V12@U?$less@V?$basic_string@DU?$char_traits@D@std@@V?$allocator@D@2@@std@@@2@V?$allocator@U?$pair@$$CBV?$basic_string@DU?$char_traits@D@std@@V?$allocator@D@2@@std@@V12@@std@@@2@$0A@@std@@@std@@IBEAAPAU?$_Tree_node@U?$pair@$$CBV?$basic_string@DU?$char_traits@D@std@@V?$allocator@D@2@@std@@V12@@std@@PAX@2@XZ 00412e50 f i ctpmd.obj
 0001:00011e60       ?_Lmost@?$_Tree@V?$_Tset_traits@V?$basic_string@DU?$char_traits@D@std@@V?$allocator@D@2@@std@@U?$less@V?$basic_string@DU?$char_traits@D@std@@V?$allocator@D@2@@std@@@2@V?$allocator@V?$basic_string@DU?$char_traits@D@std@@V?$allocator@D@2@@std@@@2@$0A@@std@@@std@@IBEAAPAU?$_Tree_node@V?$basic_string@DU?$char_traits@D@std@@V?$allocator@D@2@@std@@PAX@2@XZ 00412e60 f i ctpmd.obj
 0001:00011e70       ?_Lock@?$basic_filebuf@DU?$char_traits@D@std@@@std@@UAEXXZ 00412e70 f i ctpmd.obj
 0001:00011e80       ?_Lrotate@?$_Tree@V?$_Tmap_traits@V?$basic_string@DU?$char_traits@D@std@@V?$allocator@D@2@@std@@NU?$less@V?$basic_string@DU?$char_traits@D@std@@V?$allocator@D@2@@std@@@2@V?$allocator@U?$pair@$$CBV?$basic_string@DU?$char_traits@D@std@@V?$allocator@D@2@@std@@N@std@@@2@$0A@@std@@@std@@IAEXPAU?$_Tree_node@U?$pair@$$CBV?$basic_string@DU?$char_traits@D@std@@V?$allocator@D@2@@std@@N@std@@PAX@2@@Z 00412e80 f i ctpmd.obj
 0001:00011ee0       ?_Lrotate@?$_Tree@V?$_Tmap_traits@V?$basic_string@DU?$char_traits@D@std@@V?$allocator@D@2@@std@@V12@U?$less@V?$basic_string@DU?$char_traits@D@std@@V?$allocator@D@2@@std@@@2@V?$allocator@U?$pair@$$CBV?$basic_string@DU?$char_traits@D@std@@V?$allocator@D@2@@std@@V12@@std@@@2@$0A@@std@@@std@@IAEXPAU?$_Tree_node@U?$pair@$$CBV?$basic_string@DU?$char_traits@D@std@@V?$allocator@D@2@@std@@V12@@std@@PAX@2@@Z 00412ee0 f i ctpmd.obj
 0001:00011f40       ?_Lrotate@?$_Tree@V?$_Tset_traits@V?$basic_string@DU?$char_traits@D@std@@V?$allocator@D@2@@std@@U?$less@V?$basic_string@DU?$char_traits@D@std@@V?$allocator@D@2@@std@@@2@V?$allocator@V?$basic_string@DU?$char_traits@D@std@@V?$allocator@D@2@@std@@@2@$0A@@std@@@std@@IAEXPAU?$_Tree_node@V?$basic_string@DU?$char_traits@D@std@@V?$allocator@D@2@@std@@PAX@2@@Z 00412f40 f i ctpmd.obj
 0001:00011fa0       ?_Make_iter@?$vector@IV?$allocator@_N@std@@@std@@QBE?AV?$_Vector_iterator@V?$_Vector_val@U?$_Simple_types@I@std@@@std@@@2@V?$_Vector_const_iterator@V?$_Vector_val@U?$_Simple_types@I@std@@@std@@@2@@Z 00412fa0 f i ctpmd.obj
 0001:00011fb0       ?_Make_iter@?$vector@_NV?$allocator@_N@std@@@std@@QAE?AV?$_Vb_iterator@U?$_Wrap_alloc@V?$allocator@I@std@@@std@@@2@V?$_Vb_const_iterator@U?$_Wrap_alloc@V?$allocator@I@std@@@std@@@2@@Z 00412fb0 f i ctpmd.obj
 0001:00012020       ?_Mark@_Bitmap@std@@QAEXI@Z 00413020 f i ctpmd.obj
 0001:00012040       ?_Mark_count@?$_Parser@PBDDV?$regex_traits@D@std@@@std@@QBEIXZ 00413040 f i ctpmd.obj
 0001:00012050       ?_Mark_final@?$_Builder@PBDDV?$regex_traits@D@std@@@std@@QAEXXZ 00413050 f i ctpmd.obj
 0001:00012060       ?_Mask@?$_Vb_reference@U?$_Wrap_alloc@V?$allocator@I@std@@@std@@@std@@IBEIXZ 00413060 f i ctpmd.obj
 0001:00012070       ?_Match_pat@?$_Matcher@PBDDV?$regex_traits@D@std@@PBD@std@@AAE_NPAV_Node_base@2@@Z 00413070 f i ctpmd.obj
 0001:00012530       ?_Max@?$_Tree_val@U?$_Tree_simple_types@U?$pair@$$CBV?$basic_string@DU?$char_traits@D@std@@V?$allocator@D@2@@std@@N@std@@@std@@@std@@SAPAU?$_Tree_node@U?$pair@$$CBV?$basic_string@DU?$char_traits@D@std@@V?$allocator@D@2@@std@@N@std@@PAX@2@PAU32@@Z 00413530 f i ctpmd.obj
 0001:00012550       ?_Max@?$_Tree_val@U?$_Tree_simple_types@U?$pair@$$CBV?$basic_string@DU?$char_traits@D@std@@V?$allocator@D@2@@std@@V12@@std@@@std@@@std@@SAPAU?$_Tree_node@U?$pair@$$CBV?$basic_string@DU?$char_traits@D@std@@V?$allocator@D@2@@std@@V12@@std@@PAX@2@PAU32@@Z 00413550 f i ctpmd.obj
 0001:00012570       ?_Max@?$_Tree_val@U?$_Tree_simple_types@V?$basic_string@DU?$char_traits@D@std@@V?$allocator@D@2@@std@@@std@@@std@@SAPAU?$_Tree_node@V?$basic_string@DU?$char_traits@D@std@@V?$allocator@D@2@@std@@PAX@2@PAU32@@Z 00413570 f i ctpmd.obj
 0001:00012590       ?_Min@?$_Tree_val@U?$_Tree_simple_types@U?$pair@$$CBV?$basic_string@DU?$char_traits@D@std@@V?$allocator@D@2@@std@@N@std@@@std@@@std@@SAPAU?$_Tree_node@U?$pair@$$CBV?$basic_string@DU?$char_traits@D@std@@V?$allocator@D@2@@std@@N@std@@PAX@2@PAU32@@Z 00413590 f i ctpmd.obj
 0001:000125b0       ?_Min@?$_Tree_val@U?$_Tree_simple_types@U?$pair@$$CBV?$basic_string@DU?$char_traits@D@std@@V?$allocator@D@2@@std@@V12@@std@@@std@@@std@@SAPAU?$_Tree_node@U?$pair@$$CBV?$basic_string@DU?$char_traits@D@std@@V?$allocator@D@2@@std@@V12@@std@@PAX@2@PAU32@@Z 004135b0 f i ctpmd.obj
 0001:000125d0       ?_Min@?$_Tree_val@U?$_Tree_simple_types@V?$basic_string@DU?$char_traits@D@std@@V?$allocator@D@2@@std@@@std@@@std@@SAPAU?$_Tree_node@V?$basic_string@DU?$char_traits@D@std@@V?$allocator@D@2@@std@@PAX@2@PAU32@@Z 004135d0 f i ctpmd.obj
 0001:000125f0       ?_Mynode@?$_Tree_unchecked_const_iterator@V?$_Tree_val@U?$_Tree_simple_types@U?$pair@$$CBV?$basic_string@DU?$char_traits@D@std@@V?$allocator@D@2@@std@@N@std@@@std@@@std@@U_Iterator_base0@2@@std@@QBEPAU?$_Tree_node@U?$pair@$$CBV?$basic_string@DU?$char_traits@D@std@@V?$allocator@D@2@@std@@N@std@@PAX@2@XZ 004135f0 f i ctpmd.obj
 0001:00012600       ?_Mynode@?$_Tree_unchecked_const_iterator@V?$_Tree_val@U?$_Tree_simple_types@U?$pair@$$CBV?$basic_string@DU?$char_traits@D@std@@V?$allocator@D@2@@std@@V12@@std@@@std@@@std@@U_Iterator_base0@2@@std@@QBEPAU?$_Tree_node@U?$pair@$$CBV?$basic_string@DU?$char_traits@D@std@@V?$allocator@D@2@@std@@V12@@std@@PAX@2@XZ 00413600 f i ctpmd.obj
 0001:00012610       ?_Mynode@?$_Tree_unchecked_const_iterator@V?$_Tree_val@U?$_Tree_simple_types@V?$basic_string@DU?$char_traits@D@std@@V?$allocator@D@2@@std@@@std@@@std@@U_Iterator_base0@2@@std@@QBEPAU?$_Tree_node@V?$basic_string@DU?$char_traits@D@std@@V?$allocator@D@2@@std@@PAX@2@XZ 00413610 f i ctpmd.obj
 0001:00012620       ?_Myptr@?$_String_val@U?$_Simple_types@D@std@@@std@@QAEPADXZ 00413620 f i ctpmd.obj
 0001:00012630       ?_Myptr@?$_String_val@U?$_Simple_types@D@std@@@std@@QBEPBDXZ 00413630 f i ctpmd.obj
 0001:00012640       ?_Myval@?$_Tree_val@U?$_Tree_simple_types@U?$pair@$$CBV?$basic_string@DU?$char_traits@D@std@@V?$allocator@D@2@@std@@N@std@@@std@@@std@@SAAAU?$pair@$$CBV?$basic_string@DU?$char_traits@D@std@@V?$allocator@D@2@@std@@N@2@PAU?$_Tree_node@U?$pair@$$CBV?$basic_string@DU?$char_traits@D@std@@V?$allocator@D@2@@std@@N@std@@PAX@2@@Z 00413640 f i ctpmd.obj
 0001:00012650       ?_Myval@?$_Tree_val@U?$_Tree_simple_types@U?$pair@$$CBV?$basic_string@DU?$char_traits@D@std@@V?$allocator@D@2@@std@@V12@@std@@@std@@@std@@SAAAU?$pair@$$CBV?$basic_string@DU?$char_traits@D@std@@V?$allocator@D@2@@std@@V12@@2@PAU?$_Tree_node@U?$pair@$$CBV?$basic_string@DU?$char_traits@D@std@@V?$allocator@D@2@@std@@V12@@std@@PAX@2@@Z 00413650 f i ctpmd.obj
 0001:00012660       ?_Myval@?$_Tree_val@U?$_Tree_simple_types@V?$basic_string@DU?$char_traits@D@std@@V?$allocator@D@2@@std@@@std@@@std@@SAAAV?$basic_string@DU?$char_traits@D@std@@V?$allocator@D@2@@2@PAU?$_Tree_node@V?$basic_string@DU?$char_traits@D@std@@V?$allocator@D@2@@std@@PAX@2@@Z 00413660 f i ctpmd.obj
 0001:00012670       ?_Negate@?$_Builder@PBDDV?$regex_traits@D@std@@@std@@QAEXXZ 00413670 f i ctpmd.obj
 0001:00012680       ?_New_node@?$_Builder@PBDDV?$regex_traits@D@std@@@std@@AAEPAV_Node_base@2@W4_Node_type@2@@Z 00413680 f i ctpmd.obj
 0001:000126f0       ?_Next@?$_Parser@PBDDV?$regex_traits@D@std@@@std@@AAEXXZ 004136f0 f i ctpmd.obj
 0001:00012740       ?_Null@?$match_results@PBDV?$allocator@V?$sub_match@PBD@std@@@std@@@std@@QAEAAV?$sub_match@PBD@2@XZ 00413740 f i ctpmd.obj
 0001:00012750       ?_Nw@?$_Vb_val@V?$allocator@_N@std@@@std@@SAII@Z 00413750 f i ctpmd.obj
 0001:00012760       ?_OctalDigits@?$_Parser@PBDDV?$regex_traits@D@std@@@std@@AAE_NXZ 00413760 f i ctpmd.obj
 0001:00012780       ?_Orphan_range@?$vector@V?$basic_string@DU?$char_traits@D@std@@V?$allocator@D@2@@std@@V?$allocator@V?$basic_string@DU?$char_traits@D@std@@V?$allocator@D@2@@std@@@2@@std@@IBEXPAV?$basic_string@DU?$char_traits@D@std@@V?$allocator@D@2@@2@0@Z 00413780 f i ctpmd.obj
 0001:00012790       ?_Parent@?$_Tree_val@U?$_Tree_simple_types@U?$pair@$$CBV?$basic_string@DU?$char_traits@D@std@@V?$allocator@D@2@@std@@N@std@@@std@@@std@@SAAAPAU?$_Tree_node@U?$pair@$$CBV?$basic_string@DU?$char_traits@D@std@@V?$allocator@D@2@@std@@N@std@@PAX@2@PAU32@@Z 00413790 f i ctpmd.obj
 0001:000127a0       ?_Parent@?$_Tree_val@U?$_Tree_simple_types@U?$pair@$$CBV?$basic_string@DU?$char_traits@D@std@@V?$allocator@D@2@@std@@V12@@std@@@std@@@std@@SAAAPAU?$_Tree_node@U?$pair@$$CBV?$basic_string@DU?$char_traits@D@std@@V?$allocator@D@2@@std@@V12@@std@@PAX@2@PAU32@@Z 004137a0 f i ctpmd.obj
 0001:000127b0       ?_Parent@?$_Tree_val@U?$_Tree_simple_types@V?$basic_string@DU?$char_traits@D@std@@V?$allocator@D@2@@std@@@std@@@std@@SAAAPAU?$_Tree_node@V?$basic_string@DU?$char_traits@D@std@@V?$allocator@D@2@@std@@PAX@2@PAU32@@Z 004137b0 f i ctpmd.obj
 0001:000127c0       ?_Pdif@?$basic_string@DU?$char_traits@D@std@@V?$allocator@D@2@@std@@SAIV?$_String_const_iterator@V?$_String_val@U?$_Simple_types@D@std@@@std@@@2@0@Z 004137c0 f i ctpmd.obj
 0001:000127e0       ?_Pfx@?$match_results@PBDV?$allocator@V?$sub_match@PBD@std@@@std@@@std@@QAEAAV?$sub_match@PBD@2@XZ 004137e0 f i ctpmd.obj
 0001:000127f0       ?_Pop_back_n@?$vector@IV?$allocator@_N@std@@@std@@QAEXI@Z 004137f0 f i ctpmd.obj
 0001:00012810       ?_Pop_back_n@?$vector@U_Grp_t@?$_Tgt_state_t@PBD@std@@V?$allocator@U_Grp_t@?$_Tgt_state_t@PBD@std@@@3@@std@@QAEXI@Z 00413810 f i ctpmd.obj
 0001:00012830       ?_Pop_back_n@?$vector@U_Loop_vals_t@std@@V?$allocator@U_Loop_vals_t@std@@@2@@std@@QAEXI@Z 00413830 f i ctpmd.obj
 0001:00012850       ?_Pop_back_n@?$vector@V?$sub_match@PBD@std@@V?$allocator@V?$sub_match@PBD@std@@@2@@std@@QAEXI@Z 00413850 f i ctpmd.obj
 0001:00012870       ?_Quantifier@?$_Parser@PBDDV?$regex_traits@D@std@@@std@@AAEXXZ 00413870 f i ctpmd.obj
 0001:000129a0       ?_Reallocate@?$vector@IV?$allocator@_N@std@@@std@@IAEXI@Z 004139a0 f i ctpmd.obj
 0001:00012a20       ?_Reallocate@?$vector@U_Grp_t@?$_Tgt_state_t@PBD@std@@V?$allocator@U_Grp_t@?$_Tgt_state_t@PBD@std@@@3@@std@@IAEXI@Z 00413a20 f i ctpmd.obj
 0001:00012b00       ?_Reallocate@?$vector@U_Loop_vals_t@std@@V?$allocator@U_Loop_vals_t@std@@@2@@std@@IAEXI@Z 00413b00 f i ctpmd.obj
 0001:00012be0       ?_Reallocate@?$vector@V?$sub_match@PBD@std@@V?$allocator@V?$sub_match@PBD@std@@@2@@std@@IAEXI@Z 00413be0 f i ctpmd.obj
 0001:00012cd0       ?_Reserve@?$vector@IV?$allocator@_N@std@@@std@@IAEXI@Z 00413cd0 f i ctpmd.obj
 0001:00012d50       ?_Reserve@?$vector@U_Grp_t@?$_Tgt_state_t@PBD@std@@V?$allocator@U_Grp_t@?$_Tgt_state_t@PBD@std@@@3@@std@@IAEXI@Z 00413d50 f i ctpmd.obj
 0001:00012dd0       ?_Reserve@?$vector@U_Loop_vals_t@std@@V?$allocator@U_Loop_vals_t@std@@@2@@std@@IAEXI@Z 00413dd0 f i ctpmd.obj
 0001:00012e50       ?_Reserve@?$vector@V?$sub_match@PBD@std@@V?$allocator@V?$sub_match@PBD@std@@@2@@std@@IAEXI@Z 00413e50 f i ctpmd.obj
 0001:00012ef0       ?_Reset0@?$_Ptr_base@VEvent@@@std@@QAEXPAVEvent@@PAV_Ref_count_base@2@@Z 00413ef0 f i ctpmd.obj
 0001:00012f50       ?_Reset0@?$_Ptr_base@VEvent_Log@@@std@@QAEXPAVEvent_Log@@PAV_Ref_count_base@2@@Z 00413f50 f i ctpmd.obj
 0001:00012fb0       ?_Reset0@?$_Ptr_base@VEvent_Tick@@@std@@QAEXPAVEvent_Tick@@PAV_Ref_count_base@2@@Z 00413fb0 f i ctpmd.obj
 0001:00013010       ?_Reset@?$_Ptr_base@VEvent@@@std@@QAEXPAVEvent@@PAV_Ref_count_base@2@@Z 00414010 f i ctpmd.obj
 0001:00013070       ?_Reset@?$basic_regex@DV?$regex_traits@D@std@@@std@@AAEXPAV_Root_node@2@@Z 00414070 f i ctpmd.obj
 0001:000130a0       ?_Reset_back@?$basic_filebuf@DU?$char_traits@D@std@@@std@@AAEXXZ 004140a0 f i ctpmd.obj
 0001:000130d0       ?_Resize@?$match_results@PBDV?$allocator@V?$sub_match@PBD@std@@@std@@@std@@QAEXI@Z 004140d0 f i ctpmd.obj
 0001:000130e0       ?_Right@?$_Tree_val@U?$_Tree_simple_types@U?$pair@$$CBV?$basic_string@DU?$char_traits@D@std@@V?$allocator@D@2@@std@@N@std@@@std@@@std@@SAAAPAU?$_Tree_node@U?$pair@$$CBV?$basic_string@DU?$char_traits@D@std@@V?$allocator@D@2@@std@@N@std@@PAX@2@PAU32@@Z 004140e0 f i ctpmd.obj
 0001:000130f0       ?_Right@?$_Tree_val@U?$_Tree_simple_types@U?$pair@$$CBV?$basic_string@DU?$char_traits@D@std@@V?$allocator@D@2@@std@@V12@@std@@@std@@@std@@SAAAPAU?$_Tree_node@U?$pair@$$CBV?$basic_string@DU?$char_traits@D@std@@V?$allocator@D@2@@std@@V12@@std@@PAX@2@PAU32@@Z 004140f0 f i ctpmd.obj
 0001:00013100       ?_Right@?$_Tree_val@U?$_Tree_simple_types@V?$basic_string@DU?$char_traits@D@std@@V?$allocator@D@2@@std@@@std@@@std@@SAAAPAU?$_Tree_node@V?$basic_string@DU?$char_traits@D@std@@V?$allocator@D@2@@std@@PAX@2@PAU32@@Z 00414100 f i ctpmd.obj
 0001:00013110       ?_Rmost@?$_Tree@V?$_Tmap_traits@V?$basic_string@DU?$char_traits@D@std@@V?$allocator@D@2@@std@@NU?$less@V?$basic_string@DU?$char_traits@D@std@@V?$allocator@D@2@@std@@@2@V?$allocator@U?$pair@$$CBV?$basic_string@DU?$char_traits@D@std@@V?$allocator@D@2@@std@@N@std@@@2@$0A@@std@@@std@@IBEAAPAU?$_Tree_node@U?$pair@$$CBV?$basic_string@DU?$char_traits@D@std@@V?$allocator@D@2@@std@@N@std@@PAX@2@XZ 00414110 f i ctpmd.obj
 0001:00013120       ?_Rmost@?$_Tree@V?$_Tmap_traits@V?$basic_string@DU?$char_traits@D@std@@V?$allocator@D@2@@std@@V12@U?$less@V?$basic_string@DU?$char_traits@D@std@@V?$allocator@D@2@@std@@@2@V?$allocator@U?$pair@$$CBV?$basic_string@DU?$char_traits@D@std@@V?$allocator@D@2@@std@@V12@@std@@@2@$0A@@std@@@std@@IBEAAPAU?$_Tree_node@U?$pair@$$CBV?$basic_string@DU?$char_traits@D@std@@V?$allocator@D@2@@std@@V12@@std@@PAX@2@XZ 00414120 f i ctpmd.obj
 0001:00013130       ?_Rmost@?$_Tree@V?$_Tset_traits@V?$basic_string@DU?$char_traits@D@std@@V?$allocator@D@2@@std@@U?$less@V?$basic_string@DU?$char_traits@D@std@@V?$allocator@D@2@@std@@@2@V?$allocator@V?$basic_string@DU?$char_traits@D@std@@V?$allocator@D@2@@std@@@2@$0A@@std@@@std@@IBEAAPAU?$_Tree_node@V?$basic_string@DU?$char_traits@D@std@@V?$allocator@D@2@@std@@PAX@2@XZ 00414130 f i ctpmd.obj
 0001:00013140       ?_Root@?$_Tree@V?$_Tmap_traits@V?$basic_string@DU?$char_traits@D@std@@V?$allocator@D@2@@std@@NU?$less@V?$basic_string@DU?$char_traits@D@std@@V?$allocator@D@2@@std@@@2@V?$allocator@U?$pair@$$CBV?$basic_string@DU?$char_traits@D@std@@V?$allocator@D@2@@std@@N@std@@@2@$0A@@std@@@std@@IBEAAPAU?$_Tree_node@U?$pair@$$CBV?$basic_string@DU?$char_traits@D@std@@V?$allocator@D@2@@std@@N@std@@PAX@2@XZ 00414140 f i ctpmd.obj
 0001:00013150       ?_Root@?$_Tree@V?$_Tmap_traits@V?$basic_string@DU?$char_traits@D@std@@V?$allocator@D@2@@std@@V12@U?$less@V?$basic_string@DU?$char_traits@D@std@@V?$allocator@D@2@@std@@@2@V?$allocator@U?$pair@$$CBV?$basic_string@DU?$char_traits@D@std@@V?$allocator@D@2@@std@@V12@@std@@@2@$0A@@std@@@std@@IBEAAPAU?$_Tree_node@U?$pair@$$CBV?$basic_string@DU?$char_traits@D@std@@V?$allocator@D@2@@std@@V12@@std@@PAX@2@XZ 00414150 f i ctpmd.obj
 0001:00013160       ?_Root@?$_Tree@V?$_Tset_traits@V?$basic_string@DU?$char_traits@D@std@@V?$allocator@D@2@@std@@U?$less@V?$basic_string@DU?$char_traits@D@std@@V?$allocator@D@2@@std@@@2@V?$allocator@V?$basic_string@DU?$char_traits@D@std@@V?$allocator@D@2@@std@@@2@$0A@@std@@@std@@IBEAAPAU?$_Tree_node@V?$basic_string@DU?$char_traits@D@std@@V?$allocator@D@2@@std@@PAX@2@XZ 00414160 f i ctpmd.obj
 0001:00013170       ?_Rrotate@?$_Tree@V?$_Tmap_traits@V?$basic_string@DU?$char_traits@D@std@@V?$allocator@D@2@@std@@NU?$less@V?$basic_string@DU?$char_traits@D@std@@V?$allocator@D@2@@std@@@2@V?$allocator@U?$pair@$$CBV?$basic_string@DU?$char_traits@D@std@@V?$allocator@D@2@@std@@N@std@@@2@$0A@@std@@@std@@IAEXPAU?$_Tree_node@U?$pair@$$CBV?$basic_string@DU?$char_traits@D@std@@V?$allocator@D@2@@std@@N@std@@PAX@2@@Z 00414170 f i ctpmd.obj
 0001:000131d0       ?_Rrotate@?$_Tree@V?$_Tmap_traits@V?$basic_string@DU?$char_traits@D@std@@V?$allocator@D@2@@std@@V12@U?$less@V?$basic_string@DU?$char_traits@D@std@@V?$allocator@D@2@@std@@@2@V?$allocator@U?$pair@$$CBV?$basic_string@DU?$char_traits@D@std@@V?$allocator@D@2@@std@@V12@@std@@@2@$0A@@std@@@std@@IAEXPAU?$_Tree_node@U?$pair@$$CBV?$basic_string@DU?$char_traits@D@std@@V?$allocator@D@2@@std@@V12@@std@@PAX@2@@Z 004141d0 f i ctpmd.obj
 0001:00013230       ?_Rrotate@?$_Tree@V?$_Tset_traits@V?$basic_string@DU?$char_traits@D@std@@V?$allocator@D@2@@std@@U?$less@V?$basic_string@DU?$char_traits@D@std@@V?$allocator@D@2@@std@@@2@V?$allocator@V?$basic_string@DU?$char_traits@D@std@@V?$allocator@D@2@@std@@@2@$0A@@std@@@std@@IAEXPAU?$_Tree_node@V?$basic_string@DU?$char_traits@D@std@@V?$allocator@D@2@@std@@PAX@2@@Z 00414230 f i ctpmd.obj
 0001:00013290       ?_Set_back@?$basic_filebuf@DU?$char_traits@D@std@@@std@@AAEXXZ 00414290 f i ctpmd.obj
 0001:000132d0       ?_Setf@?$_Matcher@PBDDV?$regex_traits@D@std@@PBD@std@@QAEXW4match_flag_type@regex_constants@2@@Z 004142d0 f i ctpmd.obj
 0001:000132e0       ?_Setlong@?$_Builder@PBDDV?$regex_traits@D@std@@@std@@QAEXXZ 004142e0 f i ctpmd.obj
 0001:000132f0       ?_Sfx@?$match_results@PBDV?$allocator@V?$sub_match@PBD@std@@@std@@@std@@QAEAAV?$sub_match@PBD@2@XZ 004142f0 f i ctpmd.obj
 0001:00013300       ?_Size@?$_Buf@D@std@@QBEHXZ 00414300 f i ctpmd.obj
 0001:00013310       ?_Skip@?$_Matcher@PBDDV?$regex_traits@D@std@@PBD@std@@QAEPBDPBD0PAV_Node_base@2@@Z 00414310 f i ctpmd.obj
 0001:00013590       ?_Str@?$_Buf@D@std@@QBEPBDXZ 00414590 f i ctpmd.obj
 0001:000135a0       ?_Swap@?$_Ptr_base@VEvent_Log@@@std@@QAEXAAV12@@Z 004145a0 f i ctpmd.obj
 0001:000135d0       ?_Swap@?$_Ptr_base@VEvent_Tick@@@std@@QAEXAAV12@@Z 004145d0 f i ctpmd.obj
 0001:00013600       ?_Swap_alloc@?$_String_alloc@$0A@U?$_String_base_types@DV?$allocator@D@std@@@std@@@std@@QAEXAAV12@@Z 00414600 f i ctpmd.obj
 0001:00013610       ?_Swap_bx@?$basic_string@DU?$char_traits@D@std@@V?$allocator@D@2@@std@@QAEXAAV12@@Z 00414610 f i ctpmd.obj
 0001:00013690       ?_Tidy@?$_Node_class@DV?$regex_traits@D@std@@@std@@QAEXPAU?$_Sequence@D@2@@Z 00414690 f i ctpmd.obj
 0001:000136d0       ?_Tidy@?$_Tree@V?$_Tmap_traits@V?$basic_string@DU?$char_traits@D@std@@V?$allocator@D@2@@std@@NU?$less@V?$basic_string@DU?$char_traits@D@std@@V?$allocator@D@2@@std@@@2@V?$allocator@U?$pair@$$CBV?$basic_string@DU?$char_traits@D@std@@V?$allocator@D@2@@std@@N@std@@@2@$0A@@std@@@std@@IAEXXZ 004146d0 f i ctpmd.obj
 0001:000136f0       ?_Tidy@?$_Tree@V?$_Tmap_traits@V?$basic_string@DU?$char_traits@D@std@@V?$allocator@D@2@@std@@V12@U?$less@V?$basic_string@DU?$char_traits@D@std@@V?$allocator@D@2@@std@@@2@V?$allocator@U?$pair@$$CBV?$basic_string@DU?$char_traits@D@std@@V?$allocator@D@2@@std@@V12@@std@@@2@$0A@@std@@@std@@IAEXXZ 004146f0 f i ctpmd.obj
 0001:00013710       ?_Tidy@?$_Tree@V?$_Tset_traits@V?$basic_string@DU?$char_traits@D@std@@V?$allocator@D@2@@std@@U?$less@V?$basic_string@DU?$char_traits@D@std@@V?$allocator@D@2@@std@@@2@V?$allocator@V?$basic_string@DU?$char_traits@D@std@@V?$allocator@D@2@@std@@@2@$0A@@std@@@std@@IAEXXZ 00414710 f i ctpmd.obj
 0001:00013730       ?_Tidy@?$basic_regex@DV?$regex_traits@D@std@@@std@@AAEXXZ 00414730 f i ctpmd.obj
 0001:00013760       ?_Tidy@?$basic_string@DU?$char_traits@D@std@@V?$allocator@D@2@@std@@QAEX_NI@Z 00414760 f i ctpmd.obj
 0001:000137b0       ?_Tidy@?$vector@DV?$allocator@D@std@@@std@@IAEXXZ 004147b0 f i ctpmd.obj
 0001:000137e0       ?_Tidy@?$vector@IV?$allocator@_N@std@@@std@@IAEXXZ 004147e0 f i ctpmd.obj
 0001:00013810       ?_Tidy@?$vector@U_Grp_t@?$_Tgt_state_t@PBD@std@@V?$allocator@U_Grp_t@?$_Tgt_state_t@PBD@std@@@3@@std@@IAEXXZ 00414810 f i ctpmd.obj
 0001:00013840       ?_Tidy@?$vector@U_Loop_vals_t@std@@V?$allocator@U_Loop_vals_t@std@@@2@@std@@IAEXXZ 00414840 f i ctpmd.obj
 0001:00013870       ?_Tidy@?$vector@V?$basic_string@DU?$char_traits@D@std@@V?$allocator@D@2@@std@@V?$allocator@V?$basic_string@DU?$char_traits@D@std@@V?$allocator@D@2@@std@@@2@@std@@IAEXXZ 00414870 f i ctpmd.obj
 0001:000138b0       ?_Tidy@?$vector@V?$sub_match@PBD@std@@V?$allocator@V?$sub_match@PBD@std@@@2@@std@@IAEXXZ 004148b0 f i ctpmd.obj
 0001:000138e0       ?_Trans@?$_Parser@PBDDV?$regex_traits@D@std@@@std@@AAEXXZ 004148e0 f i ctpmd.obj
 0001:00013a90       ?_Trim@?$vector@_NV?$allocator@_N@std@@@std@@QAEXI@Z 00414a90 f i ctpmd.obj
 0001:00013b00       ?_Ufill@?$vector@IV?$allocator@_N@std@@@std@@IAEPAIPAIIPBI@Z 00414b00 f i ctpmd.obj
 0001:00013b30       ?_Unchecked@?$_String_const_iterator@V?$_String_val@U?$_Simple_types@D@std@@@std@@@std@@QBEPBDXZ 00414b30 f i ctpmd.obj
 0001:00013b40       ?_Unchecked@?$_String_iterator@V?$_String_val@U?$_Simple_types@D@std@@@std@@@std@@QBEPADXZ 00414b40 f i ctpmd.obj
 0001:00013b50       ?_Unchecked@?$_Vector_const_iterator@V?$_Vector_val@U?$_Simple_types@I@std@@@std@@@std@@QBEPBIXZ 00414b50 f i ctpmd.obj
 0001:00013b60       ?_Unchecked@?$_Vector_const_iterator@V?$_Vector_val@U?$_Simple_types@U_Grp_t@?$_Tgt_state_t@PBD@std@@@std@@@std@@@std@@QBEPBU_Grp_t@?$_Tgt_state_t@PBD@2@XZ 00414b60 f i ctpmd.obj
 0001:00013b70       ?_Unlock@?$basic_filebuf@DU?$char_traits@D@std@@@std@@UAEXXZ 00414b70 f i ctpmd.obj
 0001:00013b80       ?_Unused_capacity@?$vector@IV?$allocator@_N@std@@@std@@QBEIXZ 00414b80 f i ctpmd.obj
 0001:00013b90       ?_Unused_capacity@?$vector@U_Grp_t@?$_Tgt_state_t@PBD@std@@V?$allocator@U_Grp_t@?$_Tgt_state_t@PBD@std@@@3@@std@@QBEIXZ 00414b90 f i ctpmd.obj
 0001:00013ba0       ?_Unused_capacity@?$vector@U_Loop_vals_t@std@@V?$allocator@U_Loop_vals_t@std@@@2@@std@@QBEIXZ 00414ba0 f i ctpmd.obj
 0001:00013bb0       ?_Unused_capacity@?$vector@V?$basic_string@DU?$char_traits@D@std@@V?$allocator@D@2@@std@@V?$allocator@V?$basic_string@DU?$char_traits@D@std@@V?$allocator@D@2@@std@@@2@@std@@QBEIXZ 00414bb0 f i ctpmd.obj
 0001:00013bd0       ?_Unused_capacity@?$vector@V?$sub_match@PBD@std@@V?$allocator@V?$sub_match@PBD@std@@@2@@std@@QBEIXZ 00414bd0 f i ctpmd.obj
 0001:00013bf0       ?_Wrapped_disjunction@?$_Parser@PBDDV?$regex_traits@D@std@@@std@@AAE_NXZ 00414bf0 f i ctpmd.obj
 0001:00013ca0       ?_Xlen@?$basic_string@DU?$char_traits@D@std@@V?$allocator@D@2@@std@@QBEXXZ 00414ca0 f i ctpmd.obj
 0001:00013cb0       ?_Xlen@?$vector@DV?$allocator@D@std@@@std@@IBEXXZ 00414cb0 f i ctpmd.obj
 0001:00013cc0       ?_Xlen@?$vector@IV?$allocator@_N@std@@@std@@IBEXXZ 00414cc0 f i ctpmd.obj
 0001:00013cd0       ?_Xlen@?$vector@U_Grp_t@?$_Tgt_state_t@PBD@std@@V?$allocator@U_Grp_t@?$_Tgt_state_t@PBD@std@@@3@@std@@IBEXXZ 00414cd0 f i ctpmd.obj
 0001:00013ce0       ?_Xlen@?$vector@U_Loop_vals_t@std@@V?$allocator@U_Loop_vals_t@std@@@2@@std@@IBEXXZ 00414ce0 f i ctpmd.obj
 0001:00013cf0       ?_Xlen@?$vector@V?$basic_string@DU?$char_traits@D@std@@V?$allocator@D@2@@std@@V?$allocator@V?$basic_string@DU?$char_traits@D@std@@V?$allocator@D@2@@std@@@2@@std@@IBEXXZ 00414cf0 f i ctpmd.obj
 0001:00013d00       ?_Xlen@?$vector@V?$sub_match@PBD@std@@V?$allocator@V?$sub_match@PBD@std@@@2@@std@@IBEXXZ 00414d00 f i ctpmd.obj
 0001:00013d10       ?_Xlen@?$vector@_NV?$allocator@_N@std@@@std@@QBEXXZ 00414d10 f i ctpmd.obj
 0001:00013d20       ?_Xran@?$basic_string@DU?$char_traits@D@std@@V?$allocator@D@2@@std@@QBEXXZ 00414d20 f i ctpmd.obj
 0001:00013d30       ?allocate@?$_Wrap_alloc@V?$allocator@D@std@@@std@@QAEPADI@Z 00414d30 f i ctpmd.obj
 0001:00013d60       ?allocate@?$_Wrap_alloc@V?$allocator@I@std@@@std@@QAEPAII@Z 00414d60 f i ctpmd.obj
 0001:00013da0       ?allocate@?$_Wrap_alloc@V?$allocator@U?$_Tree_node@U?$pair@$$CBV?$basic_string@DU?$char_traits@D@std@@V?$allocator@D@2@@std@@N@std@@PAX@std@@@std@@@std@@QAEPAU?$_Tree_node@U?$pair@$$CBV?$basic_string@DU?$char_traits@D@std@@V?$allocator@D@2@@std@@N@std@@PAX@2@I@Z 00414da0 f i ctpmd.obj
 0001:00013de0       ?allocate@?$_Wrap_alloc@V?$allocator@U?$_Tree_node@U?$pair@$$CBV?$basic_string@DU?$char_traits@D@std@@V?$allocator@D@2@@std@@V12@@std@@PAX@std@@@std@@@std@@QAEPAU?$_Tree_node@U?$pair@$$CBV?$basic_string@DU?$char_traits@D@std@@V?$allocator@D@2@@std@@V12@@std@@PAX@2@I@Z 00414de0 f i ctpmd.obj
 0001:00013e20       ?allocate@?$_Wrap_alloc@V?$allocator@U?$_Tree_node@V?$basic_string@DU?$char_traits@D@std@@V?$allocator@D@2@@std@@PAX@std@@@std@@@std@@QAEPAU?$_Tree_node@V?$basic_string@DU?$char_traits@D@std@@V?$allocator@D@2@@std@@PAX@2@I@Z 00414e20 f i ctpmd.obj
 0001:00013e60       ?allocate@?$_Wrap_alloc@V?$allocator@U_Grp_t@?$_Tgt_state_t@PBD@std@@@std@@@std@@QAEPAU_Grp_t@?$_Tgt_state_t@PBD@2@I@Z 00414e60 f i ctpmd.obj
 0001:00013ea0       ?allocate@?$_Wrap_alloc@V?$allocator@U_Loop_vals_t@std@@@std@@@std@@QAEPAU_Loop_vals_t@2@I@Z 00414ea0 f i ctpmd.obj
 0001:00013ee0       ?allocate@?$_Wrap_alloc@V?$allocator@V?$basic_string@DU?$char_traits@D@std@@V?$allocator@D@2@@std@@@std@@@std@@QAEPAV?$basic_string@DU?$char_traits@D@std@@V?$allocator@D@2@@2@I@Z 00414ee0 f i ctpmd.obj
 0001:00013f20       ?allocate@?$_Wrap_alloc@V?$allocator@V?$sub_match@PBD@std@@@std@@@std@@QAEPAV?$sub_match@PBD@2@I@Z 00414f20 f i ctpmd.obj
 0001:00013f60       ?allocate@?$allocator@D@std@@QAEPADI@Z 00414f60 f i ctpmd.obj
 0001:00013f90       ?allocate@?$allocator@I@std@@QAEPAII@Z 00414f90 f i ctpmd.obj
 0001:00013fd0       ?allocate@?$allocator@U?$_Tree_node@U?$pair@$$CBV?$basic_string@DU?$char_traits@D@std@@V?$allocator@D@2@@std@@N@std@@PAX@std@@@std@@QAEPAU?$_Tree_node@U?$pair@$$CBV?$basic_string@DU?$char_traits@D@std@@V?$allocator@D@2@@std@@N@std@@PAX@2@I@Z 00414fd0 f i ctpmd.obj
 0001:00014010       ?allocate@?$allocator@U?$_Tree_node@U?$pair@$$CBV?$basic_string@DU?$char_traits@D@std@@V?$allocator@D@2@@std@@V12@@std@@PAX@std@@@std@@QAEPAU?$_Tree_node@U?$pair@$$CBV?$basic_string@DU?$char_traits@D@std@@V?$allocator@D@2@@std@@V12@@std@@PAX@2@I@Z 00415010 f i ctpmd.obj
 0001:00014050       ?allocate@?$allocator@U?$_Tree_node@V?$basic_string@DU?$char_traits@D@std@@V?$allocator@D@2@@std@@PAX@std@@@std@@QAEPAU?$_Tree_node@V?$basic_string@DU?$char_traits@D@std@@V?$allocator@D@2@@std@@PAX@2@I@Z 00415050 f i ctpmd.obj
 0001:00014090       ?allocate@?$allocator@U_Grp_t@?$_Tgt_state_t@PBD@std@@@std@@QAEPAU_Grp_t@?$_Tgt_state_t@PBD@2@I@Z 00415090 f i ctpmd.obj
 0001:000140d0       ?allocate@?$allocator@U_Loop_vals_t@std@@@std@@QAEPAU_Loop_vals_t@2@I@Z 004150d0 f i ctpmd.obj
 0001:00014110       ?allocate@?$allocator@V?$basic_string@DU?$char_traits@D@std@@V?$allocator@D@2@@std@@@std@@QAEPAV?$basic_string@DU?$char_traits@D@std@@V?$allocator@D@2@@2@I@Z 00415110 f i ctpmd.obj
 0001:00014150       ?allocate@?$allocator@V?$sub_match@PBD@std@@@std@@QAEPAV?$sub_match@PBD@2@I@Z 00415150 f i ctpmd.obj
 0001:00014190       ?append@?$basic_string@DU?$char_traits@D@std@@V?$allocator@D@2@@std@@QAEAAV12@ABV12@@Z 00415190 f i ctpmd.obj
 0001:000141b0       ?append@?$basic_string@DU?$char_traits@D@std@@V?$allocator@D@2@@std@@QAEAAV12@ABV12@II@Z 004151b0 f i ctpmd.obj
 0001:00014270       ?append@?$basic_string@DU?$char_traits@D@std@@V?$allocator@D@2@@std@@QAEAAV12@ID@Z 00415270 f i ctpmd.obj
 0001:00014320       ?append@?$basic_string@DU?$char_traits@D@std@@V?$allocator@D@2@@std@@QAEAAV12@PBD@Z 00415320 f i ctpmd.obj
 0001:00014360       ?append@?$basic_string@DU?$char_traits@D@std@@V?$allocator@D@2@@std@@QAEAAV12@PBDI@Z 00415360 f i ctpmd.obj
 0001:00014450       ?assign@?$basic_string@DU?$char_traits@D@std@@V?$allocator@D@2@@std@@QAEAAV12@ABV12@@Z 00415450 f i ctpmd.obj
 0001:00014470       ?assign@?$basic_string@DU?$char_traits@D@std@@V?$allocator@D@2@@std@@QAEAAV12@ABV12@II@Z 00415470 f i ctpmd.obj
 0001:00014590       ?assign@?$basic_string@DU?$char_traits@D@std@@V?$allocator@D@2@@std@@QAEAAV12@ID@Z 00415590 f i ctpmd.obj
 0001:00014660       ?assign@?$basic_string@DU?$char_traits@D@std@@V?$allocator@D@2@@std@@QAEAAV12@PBD@Z 00415660 f i ctpmd.obj
 0001:000146a0       ?assign@?$basic_string@DU?$char_traits@D@std@@V?$allocator@D@2@@std@@QAEAAV12@PBDI@Z 004156a0 f i ctpmd.obj
 0001:000147a0       ?assign@?$char_traits@D@std@@SAPADPADID@Z 004157a0 f i ctpmd.obj
 0001:000147c0       ?assign@?$char_traits@D@std@@SAXAADABD@Z 004157c0 f i ctpmd.obj
 0001:000147d0       ?at@?$map@V?$basic_string@DU?$char_traits@D@std@@V?$allocator@D@2@@std@@NU?$less@V?$basic_string@DU?$char_traits@D@std@@V?$allocator@D@2@@std@@@2@V?$allocator@U?$pair@$$CBV?$basic_string@DU?$char_traits@D@std@@V?$allocator@D@2@@std@@N@std@@@2@@std@@QAEAANABV?$basic_string@DU?$char_traits@D@std@@V?$allocator@D@2@@2@@Z 004157d0 f i ctpmd.obj
 0001:00014820       ?begin@?$_Tree@V?$_Tmap_traits@V?$basic_string@DU?$char_traits@D@std@@V?$allocator@D@2@@std@@NU?$less@V?$basic_string@DU?$char_traits@D@std@@V?$allocator@D@2@@std@@@2@V?$allocator@U?$pair@$$CBV?$basic_string@DU?$char_traits@D@std@@V?$allocator@D@2@@std@@N@std@@@2@$0A@@std@@@std@@QAE?AV?$_Tree_iterator@V?$_Tree_val@U?$_Tree_simple_types@U?$pair@$$CBV?$basic_string@DU?$char_traits@D@std@@V?$allocator@D@2@@std@@N@std@@@std@@@std@@@2@XZ 00415820 f i ctpmd.obj
 0001:00014830       ?begin@?$_Tree@V?$_Tmap_traits@V?$basic_string@DU?$char_traits@D@std@@V?$allocator@D@2@@std@@V12@U?$less@V?$basic_string@DU?$char_traits@D@std@@V?$allocator@D@2@@std@@@2@V?$allocator@U?$pair@$$CBV?$basic_string@DU?$char_traits@D@std@@V?$allocator@D@2@@std@@V12@@std@@@2@$0A@@std@@@std@@QAE?AV?$_Tree_iterator@V?$_Tree_val@U?$_Tree_simple_types@U?$pair@$$CBV?$basic_string@DU?$char_traits@D@std@@V?$allocator@D@2@@std@@V12@@std@@@std@@@std@@@2@XZ 00415830 f i ctpmd.obj
 0001:00014840       ?begin@?$_Tree@V?$_Tset_traits@V?$basic_string@DU?$char_traits@D@std@@V?$allocator@D@2@@std@@U?$less@V?$basic_string@DU?$char_traits@D@std@@V?$allocator@D@2@@std@@@2@V?$allocator@V?$basic_string@DU?$char_traits@D@std@@V?$allocator@D@2@@std@@@2@$0A@@std@@@std@@QAE?AV?$_Tree_const_iterator@V?$_Tree_val@U?$_Tree_simple_types@V?$basic_string@DU?$char_traits@D@std@@V?$allocator@D@2@@std@@@std@@@std@@@2@XZ 00415840 f i ctpmd.obj
 0001:00014850       ?begin@?$_Tree@V?$_Tset_traits@V?$basic_string@DU?$char_traits@D@std@@V?$allocator@D@2@@std@@U?$less@V?$basic_string@DU?$char_traits@D@std@@V?$allocator@D@2@@std@@@2@V?$allocator@V?$basic_string@DU?$char_traits@D@std@@V?$allocator@D@2@@std@@@2@$0A@@std@@@std@@QBE?AV?$_Tree_const_iterator@V?$_Tree_val@U?$_Tree_simple_types@V?$basic_string@DU?$char_traits@D@std@@V?$allocator@D@2@@std@@@std@@@std@@@2@XZ 00415850 f i ctpmd.obj
 0001:00014860       ?begin@?$basic_string@DU?$char_traits@D@std@@V?$allocator@D@2@@std@@QAE?AV?$_String_iterator@V?$_String_val@U?$_Simple_types@D@std@@@std@@@2@XZ 00415860 f i ctpmd.obj
 0001:00014880       ?begin@?$basic_string@DU?$char_traits@D@std@@V?$allocator@D@2@@std@@QBE?AV?$_String_const_iterator@V?$_String_val@U?$_Simple_types@D@std@@@std@@@2@XZ 00415880 f i ctpmd.obj
 0001:000148a0       ?begin@?$initializer_list@V?$basic_string@DU?$char_traits@D@std@@V?$allocator@D@2@@std@@@std@@QBEPBV?$basic_string@DU?$char_traits@D@std@@V?$allocator@D@2@@2@XZ 004158a0 f i ctpmd.obj
 0001:000148b0       ?begin@?$vector@DV?$allocator@D@std@@@std@@QAE?AV?$_Vector_iterator@V?$_Vector_val@U?$_Simple_types@D@std@@@std@@@2@XZ 004158b0 f i ctpmd.obj
 0001:000148c0       ?begin@?$vector@IV?$allocator@_N@std@@@std@@QAE?AV?$_Vector_iterator@V?$_Vector_val@U?$_Simple_types@I@std@@@std@@@2@XZ 004158c0 f i ctpmd.obj
 0001:000148d0       ?begin@?$vector@IV?$allocator@_N@std@@@std@@QBE?AV?$_Vector_const_iterator@V?$_Vector_val@U?$_Simple_types@I@std@@@std@@@2@XZ 004158d0 f i ctpmd.obj
 0001:000148e0       ?begin@?$vector@U_Grp_t@?$_Tgt_state_t@PBD@std@@V?$allocator@U_Grp_t@?$_Tgt_state_t@PBD@std@@@3@@std@@QBE?AV?$_Vector_const_iterator@V?$_Vector_val@U?$_Simple_types@U_Grp_t@?$_Tgt_state_t@PBD@std@@@std@@@std@@@2@XZ 004158e0 f i ctpmd.obj
 0001:000148f0       ?begin@?$vector@V?$basic_string@DU?$char_traits@D@std@@V?$allocator@D@2@@std@@V?$allocator@V?$basic_string@DU?$char_traits@D@std@@V?$allocator@D@2@@std@@@2@@std@@QAE?AV?$_Vector_iterator@V?$_Vector_val@U?$_Simple_types@V?$basic_string@DU?$char_traits@D@std@@V?$allocator@D@2@@std@@@std@@@std@@@2@XZ 004158f0 f i ctpmd.obj
 0001:00014900       ?begin@?$vector@_NV?$allocator@_N@std@@@std@@QAE?AV?$_Vb_iterator@U?$_Wrap_alloc@V?$allocator@I@std@@@std@@@2@XZ 00415900 f i ctpmd.obj
 0001:00014920       ?c_str@?$basic_string@DU?$char_traits@D@std@@V?$allocator@D@2@@std@@QBEPBDXZ 00415920 f i ctpmd.obj
 0001:00014930       ?capacity@?$basic_string@DU?$char_traits@D@std@@V?$allocator@D@2@@std@@QBEIXZ 00415930 f i ctpmd.obj
 0001:00014940       ?capacity@?$vector@IV?$allocator@_N@std@@@std@@QBEIXZ 00415940 f i ctpmd.obj
 0001:00014950       ?capacity@?$vector@U_Grp_t@?$_Tgt_state_t@PBD@std@@V?$allocator@U_Grp_t@?$_Tgt_state_t@PBD@std@@@3@@std@@QBEIXZ 00415950 f i ctpmd.obj
 0001:00014960       ?capacity@?$vector@U_Loop_vals_t@std@@V?$allocator@U_Loop_vals_t@std@@@2@@std@@QBEIXZ 00415960 f i ctpmd.obj
 0001:00014970       ?capacity@?$vector@V?$basic_string@DU?$char_traits@D@std@@V?$allocator@D@2@@std@@V?$allocator@V?$basic_string@DU?$char_traits@D@std@@V?$allocator@D@2@@std@@@2@@std@@QBEIXZ 00415970 f i ctpmd.obj
 0001:00014990       ?capacity@?$vector@V?$sub_match@PBD@std@@V?$allocator@V?$sub_match@PBD@std@@@2@@std@@QBEIXZ 00415990 f i ctpmd.obj
 0001:000149b0       ?category@error_code@std@@QBEABVerror_category@2@XZ 004159b0 f i ctpmd.obj
 0001:000149c0       ?category@error_condition@std@@QBEABVerror_category@2@XZ 004159c0 f i ctpmd.obj
 0001:000149d0       ?cbegin@?$_Tree@V?$_Tset_traits@V?$basic_string@DU?$char_traits@D@std@@V?$allocator@D@2@@std@@U?$less@V?$basic_string@DU?$char_traits@D@std@@V?$allocator@D@2@@std@@@2@V?$allocator@V?$basic_string@DU?$char_traits@D@std@@V?$allocator@D@2@@std@@@2@$0A@@std@@@std@@QBE?AV?$_Tree_const_iterator@V?$_Tree_val@U?$_Tree_simple_types@V?$basic_string@DU?$char_traits@D@std@@V?$allocator@D@2@@std@@@std@@@std@@@2@XZ 004159d0 f i ctpmd.obj
 0001:000149e0       ?cend@?$_Tree@V?$_Tset_traits@V?$basic_string@DU?$char_traits@D@std@@V?$allocator@D@2@@std@@U?$less@V?$basic_string@DU?$char_traits@D@std@@V?$allocator@D@2@@std@@@2@V?$allocator@V?$basic_string@DU?$char_traits@D@std@@V?$allocator@D@2@@std@@@2@$0A@@std@@@std@@QBE?AV?$_Tree_const_iterator@V?$_Tree_val@U?$_Tree_simple_types@V?$basic_string@DU?$char_traits@D@std@@V?$allocator@D@2@@std@@@std@@@std@@@2@XZ 004159e0 f i ctpmd.obj
 0001:000149f0       ?checkExist@Utils@@SA_NABV?$basic_string@DU?$char_traits@D@std@@V?$allocator@D@2@@std@@@Z 004159f0 f i ctpmd.obj
 0001:00014a20       ?clear@?$BasicWriter@D@fmt@@QAEXXZ 00415a20 f i ctpmd.obj
 0001:00014a30       ?clear@?$Buffer@D@fmt@@QAEXXZ 00415a30 f i ctpmd.obj
 0001:00014a40       ?clear@?$_Tree@V?$_Tmap_traits@V?$basic_string@DU?$char_traits@D@std@@V?$allocator@D@2@@std@@NU?$less@V?$basic_string@DU?$char_traits@D@std@@V?$allocator@D@2@@std@@@2@V?$allocator@U?$pair@$$CBV?$basic_string@DU?$char_traits@D@std@@V?$allocator@D@2@@std@@N@std@@@2@$0A@@std@@@std@@QAEXXZ 00415a40 f i ctpmd.obj
 0001:00014a70       ?clear@?$_Tree@V?$_Tmap_traits@V?$basic_string@DU?$char_traits@D@std@@V?$allocator@D@2@@std@@V12@U?$less@V?$basic_string@DU?$char_traits@D@std@@V?$allocator@D@2@@std@@@2@V?$allocator@U?$pair@$$CBV?$basic_string@DU?$char_traits@D@std@@V?$allocator@D@2@@std@@V12@@std@@@2@$0A@@std@@@std@@QAEXXZ 00415a70 f i ctpmd.obj
 0001:00014aa0       ?clear@?$_Tree@V?$_Tset_traits@V?$basic_string@DU?$char_traits@D@std@@V?$allocator@D@2@@std@@U?$less@V?$basic_string@DU?$char_traits@D@std@@V?$allocator@D@2@@std@@@2@V?$allocator@V?$basic_string@DU?$char_traits@D@std@@V?$allocator@D@2@@std@@@2@$0A@@std@@@std@@QAEXXZ 00415aa0 f i ctpmd.obj
 0001:00014ad0       ?clear@?$vector@IV?$allocator@_N@std@@@std@@QAEXXZ 00415ad0 f i ctpmd.obj
 0001:00014ae0       ?clear@?$vector@U_Grp_t@?$_Tgt_state_t@PBD@std@@V?$allocator@U_Grp_t@?$_Tgt_state_t@PBD@std@@@3@@std@@QAEXXZ 00415ae0 f i ctpmd.obj
 0001:00014af0       ?close@?$basic_filebuf@DU?$char_traits@D@std@@@std@@QAEPAV12@XZ 00415af0 f i ctpmd.obj
 0001:00014b50       ?close@Ctpmd@@QAEXXZ       00415b50 f   ctpmd.obj
 0001:00014b80       ?clz@internal@fmt@@YAII@Z  00415b80 f i ctpmd.obj
 0001:00014ba0       ?compare@?$basic_string@DU?$char_traits@D@std@@V?$allocator@D@2@@std@@QBEHABV12@@Z 00415ba0 f i ctpmd.obj
 0001:00014bd0       ?compare@?$basic_string@DU?$char_traits@D@std@@V?$allocator@D@2@@std@@QBEHIIPBDI@Z 00415bd0 f i ctpmd.obj
 0001:00014c40       ?compare@?$char_traits@D@std@@SAHPBD0I@Z 00415c40 f i ctpmd.obj
 0001:00014cb0       ?connect@Ctpmd@@QAEXXZ     00415cb0 f   ctpmd.obj
 0001:000153d0       ?connect_md@Ctpmd@@AAEXABV?$basic_string@DU?$char_traits@D@std@@V?$allocator@D@2@@std@@000@Z 004163d0 f   ctpmd.obj
 0001:000155a0       ?construct@?$_Wrap_alloc@V?$allocator@U_Grp_t@?$_Tgt_state_t@PBD@std@@@std@@@std@@QAEXPAU_Grp_t@?$_Tgt_state_t@PBD@2@@Z 004165a0 f i ctpmd.obj
 0001:000155c0       ?construct@?$_Wrap_alloc@V?$allocator@U_Loop_vals_t@std@@@std@@@std@@QAEXPAU_Loop_vals_t@2@@Z 004165c0 f i ctpmd.obj
 0001:000155e0       ?construct@?$_Wrap_alloc@V?$allocator@V?$sub_match@PBD@std@@@std@@@std@@QAEXPAV?$sub_match@PBD@2@@Z 004165e0 f i ctpmd.obj
 0001:00015600       ?construct@?$allocator@U_Grp_t@?$_Tgt_state_t@PBD@std@@@std@@QAEXPAU_Grp_t@?$_Tgt_state_t@PBD@2@@Z 00416600 f i ctpmd.obj
 0001:00015620       ?construct@?$allocator@U_Grp_t@?$_Tgt_state_t@PBD@std@@@std@@QAEXPAU_Grp_t@?$_Tgt_state_t@PBD@2@ABU342@@Z 00416620 f i ctpmd.obj
 0001:00015640       ?construct@?$allocator@U_Loop_vals_t@std@@@std@@QAEXPAU_Loop_vals_t@2@@Z 00416640 f i ctpmd.obj
 0001:00015660       ?construct@?$allocator@V?$basic_string@DU?$char_traits@D@std@@V?$allocator@D@2@@std@@@std@@QAEXPAV?$basic_string@DU?$char_traits@D@std@@V?$allocator@D@2@@2@ABV32@@Z 00416660 f i ctpmd.obj
 0001:000156d0       ?construct@?$allocator@V?$sub_match@PBD@std@@@std@@QAEXPAV?$sub_match@PBD@2@@Z 004166d0 f i ctpmd.obj
 0001:000156f0       ?copy@?$char_traits@D@std@@SAPADPADPBDI@Z 004166f0 f i ctpmd.obj
 0001:00015710       ?count@?$duration@_JU?$ratio@$00$0DOI@@std@@@chrono@std@@QBE_JXZ 00416710 f i ctpmd.obj
 0001:00015720       ?count@?$duration@_JU?$ratio@$00$0JIJGIA@@std@@@chrono@std@@QBE_JXZ 00416720 f i ctpmd.obj
 0001:00015730       ?count_digits@internal@fmt@@YAII@Z 00416730 f i ctpmd.obj
 0001:00015770       ?createDirectory@Utils@@SA_NABV?$basic_string@DU?$char_traits@D@std@@V?$allocator@D@2@@std@@@Z 00416770 f i ctpmd.obj
 0001:000157a0       ?data@?$BasicStringRef@D@fmt@@QBEPBDXZ 004167a0 f i ctpmd.obj
 0001:000157b0       ?data@?$BasicWriter@D@fmt@@QBEPBDXZ 004167b0 f i ctpmd.obj
 0001:000157c0       ?deallocate@?$MemoryBuffer@D$0BPE@V?$allocator@D@std@@@internal@fmt@@AAEXXZ 004167c0 f i ctpmd.obj
 0001:000157e0       ?deallocate@?$_Wrap_alloc@V?$allocator@D@std@@@std@@QAEXPADI@Z 004167e0 f i ctpmd.obj
 0001:00015800       ?deallocate@?$_Wrap_alloc@V?$allocator@I@std@@@std@@QAEXPAII@Z 00416800 f i ctpmd.obj
 0001:00015820       ?deallocate@?$_Wrap_alloc@V?$allocator@U?$_Tree_node@U?$pair@$$CBV?$basic_string@DU?$char_traits@D@std@@V?$allocator@D@2@@std@@N@std@@PAX@std@@@std@@@std@@QAEXPAU?$_Tree_node@U?$pair@$$CBV?$basic_string@DU?$char_traits@D@std@@V?$allocator@D@2@@std@@N@std@@PAX@2@I@Z 00416820 f i ctpmd.obj
 0001:00015840       ?deallocate@?$_Wrap_alloc@V?$allocator@U?$_Tree_node@U?$pair@$$CBV?$basic_string@DU?$char_traits@D@std@@V?$allocator@D@2@@std@@V12@@std@@PAX@std@@@std@@@std@@QAEXPAU?$_Tree_node@U?$pair@$$CBV?$basic_string@DU?$char_traits@D@std@@V?$allocator@D@2@@std@@V12@@std@@PAX@2@I@Z 00416840 f i ctpmd.obj
 0001:00015860       ?deallocate@?$_Wrap_alloc@V?$allocator@U?$_Tree_node@V?$basic_string@DU?$char_traits@D@std@@V?$allocator@D@2@@std@@PAX@std@@@std@@@std@@QAEXPAU?$_Tree_node@V?$basic_string@DU?$char_traits@D@std@@V?$allocator@D@2@@std@@PAX@2@I@Z 00416860 f i ctpmd.obj
 0001:00015880       ?deallocate@?$_Wrap_alloc@V?$allocator@U_Grp_t@?$_Tgt_state_t@PBD@std@@@std@@@std@@QAEXPAU_Grp_t@?$_Tgt_state_t@PBD@2@I@Z 00416880 f i ctpmd.obj
 0001:000158a0       ?deallocate@?$_Wrap_alloc@V?$allocator@U_Loop_vals_t@std@@@std@@@std@@QAEXPAU_Loop_vals_t@2@I@Z 004168a0 f i ctpmd.obj
 0001:000158c0       ?deallocate@?$_Wrap_alloc@V?$allocator@V?$basic_string@DU?$char_traits@D@std@@V?$allocator@D@2@@std@@@std@@@std@@QAEXPAV?$basic_string@DU?$char_traits@D@std@@V?$allocator@D@2@@2@I@Z 004168c0 f i ctpmd.obj
 0001:000158e0       ?deallocate@?$_Wrap_alloc@V?$allocator@V?$sub_match@PBD@std@@@std@@@std@@QAEXPAV?$sub_match@PBD@2@I@Z 004168e0 f i ctpmd.obj
 0001:00015900       ?deallocate@?$allocator@D@std@@QAEXPADI@Z 00416900 f i ctpmd.obj
 0001:00015920       ?deallocate@?$allocator@I@std@@QAEXPAII@Z 00416920 f i ctpmd.obj
 0001:00015940       ?deallocate@?$allocator@U?$_Tree_node@U?$pair@$$CBV?$basic_string@DU?$char_traits@D@std@@V?$allocator@D@2@@std@@N@std@@PAX@std@@@std@@QAEXPAU?$_Tree_node@U?$pair@$$CBV?$basic_string@DU?$char_traits@D@std@@V?$allocator@D@2@@std@@N@std@@PAX@2@I@Z 00416940 f i ctpmd.obj
 0001:00015960       ?deallocate@?$allocator@U?$_Tree_node@U?$pair@$$CBV?$basic_string@DU?$char_traits@D@std@@V?$allocator@D@2@@std@@V12@@std@@PAX@std@@@std@@QAEXPAU?$_Tree_node@U?$pair@$$CBV?$basic_string@DU?$char_traits@D@std@@V?$allocator@D@2@@std@@V12@@std@@PAX@2@I@Z 00416960 f i ctpmd.obj
 0001:00015980       ?deallocate@?$allocator@U?$_Tree_node@V?$basic_string@DU?$char_traits@D@std@@V?$allocator@D@2@@std@@PAX@std@@@std@@QAEXPAU?$_Tree_node@V?$basic_string@DU?$char_traits@D@std@@V?$allocator@D@2@@std@@PAX@2@I@Z 00416980 f i ctpmd.obj
 0001:000159a0       ?deallocate@?$allocator@U_Grp_t@?$_Tgt_state_t@PBD@std@@@std@@QAEXPAU_Grp_t@?$_Tgt_state_t@PBD@2@I@Z 004169a0 f i ctpmd.obj
 0001:000159c0       ?deallocate@?$allocator@U_Loop_vals_t@std@@@std@@QAEXPAU_Loop_vals_t@2@I@Z 004169c0 f i ctpmd.obj
 0001:000159e0       ?deallocate@?$allocator@V?$basic_string@DU?$char_traits@D@std@@V?$allocator@D@2@@std@@@std@@QAEXPAV?$basic_string@DU?$char_traits@D@std@@V?$allocator@D@2@@2@I@Z 004169e0 f i ctpmd.obj
 0001:00015a00       ?deallocate@?$allocator@V?$sub_match@PBD@std@@@std@@QAEXPAV?$sub_match@PBD@2@I@Z 00416a00 f i ctpmd.obj
 0001:00015a20       ?default_error_condition@_System_error_category@std@@UBE?AVerror_condition@2@H@Z 00416a20 f i ctpmd.obj
 0001:00015a60       ?default_error_condition@error_category@std@@UBE?AVerror_condition@2@H@Z 00416a60 f i ctpmd.obj
 0001:00015a80       ?do_compare@?$collate@D@std@@MBEHPBD000@Z 00416a80 f i ctpmd.obj
 0001:00015ac0       ?do_hash@?$collate@D@std@@MBEJPBD0@Z 00416ac0 f i ctpmd.obj
 0001:00015b00       ?do_transform@?$collate@D@std@@MBE?AV?$basic_string@DU?$char_traits@D@std@@V?$allocator@D@2@@2@PBD0@Z 00416b00 f i ctpmd.obj
 0001:00015c10       ?empty@?$_Tree@V?$_Tset_traits@V?$basic_string@DU?$char_traits@D@std@@V?$allocator@D@2@@std@@U?$less@V?$basic_string@DU?$char_traits@D@std@@V?$allocator@D@2@@std@@@2@V?$allocator@V?$basic_string@DU?$char_traits@D@std@@V?$allocator@D@2@@std@@@2@$0A@@std@@@std@@QBE_NXZ 00416c10 f i ctpmd.obj
 0001:00015c20       ?empty@?$basic_string@DU?$char_traits@D@std@@V?$allocator@D@2@@std@@QBE_NXZ 00416c20 f i ctpmd.obj
 0001:00015c30       ?empty@?$vector@IV?$allocator@_N@std@@@std@@QBE_NXZ 00416c30 f i ctpmd.obj
 0001:00015c40       ?empty@?$vector@U_Grp_t@?$_Tgt_state_t@PBD@std@@V?$allocator@U_Grp_t@?$_Tgt_state_t@PBD@std@@@3@@std@@QBE_NXZ 00416c40 f i ctpmd.obj
 0001:00015c50       ?empty@?$vector@_NV?$allocator@_N@std@@@std@@QBE_NXZ 00416c50 f i ctpmd.obj
 0001:00015c60       ?end@?$_Tree@V?$_Tmap_traits@V?$basic_string@DU?$char_traits@D@std@@V?$allocator@D@2@@std@@NU?$less@V?$basic_string@DU?$char_traits@D@std@@V?$allocator@D@2@@std@@@2@V?$allocator@U?$pair@$$CBV?$basic_string@DU?$char_traits@D@std@@V?$allocator@D@2@@std@@N@std@@@2@$0A@@std@@@std@@QAE?AV?$_Tree_iterator@V?$_Tree_val@U?$_Tree_simple_types@U?$pair@$$CBV?$basic_string@DU?$char_traits@D@std@@V?$allocator@D@2@@std@@N@std@@@std@@@std@@@2@XZ 00416c60 f i ctpmd.obj
 0001:00015c70       ?end@?$_Tree@V?$_Tmap_traits@V?$basic_string@DU?$char_traits@D@std@@V?$allocator@D@2@@std@@V12@U?$less@V?$basic_string@DU?$char_traits@D@std@@V?$allocator@D@2@@std@@@2@V?$allocator@U?$pair@$$CBV?$basic_string@DU?$char_traits@D@std@@V?$allocator@D@2@@std@@V12@@std@@@2@$0A@@std@@@std@@QAE?AV?$_Tree_iterator@V?$_Tree_val@U?$_Tree_simple_types@U?$pair@$$CBV?$basic_string@DU?$char_traits@D@std@@V?$allocator@D@2@@std@@V12@@std@@@std@@@std@@@2@XZ 00416c70 f i ctpmd.obj
 0001:00015c80       ?end@?$_Tree@V?$_Tset_traits@V?$basic_string@DU?$char_traits@D@std@@V?$allocator@D@2@@std@@U?$less@V?$basic_string@DU?$char_traits@D@std@@V?$allocator@D@2@@std@@@2@V?$allocator@V?$basic_string@DU?$char_traits@D@std@@V?$allocator@D@2@@std@@@2@$0A@@std@@@std@@QAE?AV?$_Tree_const_iterator@V?$_Tree_val@U?$_Tree_simple_types@V?$basic_string@DU?$char_traits@D@std@@V?$allocator@D@2@@std@@@std@@@std@@@2@XZ 00416c80 f i ctpmd.obj
 0001:00015c90       ?end@?$_Tree@V?$_Tset_traits@V?$basic_string@DU?$char_traits@D@std@@V?$allocator@D@2@@std@@U?$less@V?$basic_string@DU?$char_traits@D@std@@V?$allocator@D@2@@std@@@2@V?$allocator@V?$basic_string@DU?$char_traits@D@std@@V?$allocator@D@2@@std@@@2@$0A@@std@@@std@@QBE?AV?$_Tree_const_iterator@V?$_Tree_val@U?$_Tree_simple_types@V?$basic_string@DU?$char_traits@D@std@@V?$allocator@D@2@@std@@@std@@@std@@@2@XZ 00416c90 f i ctpmd.obj
 0001:00015ca0       ?end@?$basic_string@DU?$char_traits@D@std@@V?$allocator@D@2@@std@@QAE?AV?$_String_iterator@V?$_String_val@U?$_Simple_types@D@std@@@std@@@2@XZ 00416ca0 f i ctpmd.obj
 0001:00015cd0       ?end@?$basic_string@DU?$char_traits@D@std@@V?$allocator@D@2@@std@@QBE?AV?$_String_const_iterator@V?$_String_val@U?$_Simple_types@D@std@@@std@@@2@XZ 00416cd0 f i ctpmd.obj
 0001:00015d00       ?end@?$initializer_list@V?$basic_string@DU?$char_traits@D@std@@V?$allocator@D@2@@std@@@std@@QBEPBV?$basic_string@DU?$char_traits@D@std@@V?$allocator@D@2@@2@XZ 00416d00 f i ctpmd.obj
 0001:00015d10       ?end@?$vector@IV?$allocator@_N@std@@@std@@QAE?AV?$_Vector_iterator@V?$_Vector_val@U?$_Simple_types@I@std@@@std@@@2@XZ 00416d10 f i ctpmd.obj
 0001:00015d20       ?end@?$vector@IV?$allocator@_N@std@@@std@@QBE?AV?$_Vector_const_iterator@V?$_Vector_val@U?$_Simple_types@I@std@@@std@@@2@XZ 00416d20 f i ctpmd.obj
 0001:00015d30       ?end@?$vector@U_Grp_t@?$_Tgt_state_t@PBD@std@@V?$allocator@U_Grp_t@?$_Tgt_state_t@PBD@std@@@3@@std@@QBE?AV?$_Vector_const_iterator@V?$_Vector_val@U?$_Simple_types@U_Grp_t@?$_Tgt_state_t@PBD@std@@@std@@@std@@@2@XZ 00416d30 f i ctpmd.obj
 0001:00015d40       ?end@?$vector@V?$basic_string@DU?$char_traits@D@std@@V?$allocator@D@2@@std@@V?$allocator@V?$basic_string@DU?$char_traits@D@std@@V?$allocator@D@2@@std@@@2@@std@@QAE?AV?$_Vector_iterator@V?$_Vector_val@U?$_Simple_types@V?$basic_string@DU?$char_traits@D@std@@V?$allocator@D@2@@std@@@std@@@std@@@2@XZ 00416d40 f i ctpmd.obj
 0001:00015d50       ?end@?$vector@_NV?$allocator@_N@std@@@std@@QAE?AV?$_Vb_iterator@U?$_Wrap_alloc@V?$allocator@I@std@@@std@@@2@XZ 00416d50 f i ctpmd.obj
 0001:00015db0       ?eof@?$char_traits@D@std@@SAHXZ 00416db0 f i ctpmd.obj
 0001:00015dc0       ?eq_int_type@?$char_traits@D@std@@SA_NABH0@Z 00416dc0 f i ctpmd.obj
 0001:00015de0       ?equivalent@error_category@std@@UBE_NABVerror_code@2@H@Z 00416de0 f i ctpmd.obj
 0001:00015e00       ?equivalent@error_category@std@@UBE_NHABVerror_condition@2@@Z 00416e00 f i ctpmd.obj
 0001:00015e40       ?erase@?$_Tree@V?$_Tmap_traits@V?$basic_string@DU?$char_traits@D@std@@V?$allocator@D@2@@std@@NU?$less@V?$basic_string@DU?$char_traits@D@std@@V?$allocator@D@2@@std@@@2@V?$allocator@U?$pair@$$CBV?$basic_string@DU?$char_traits@D@std@@V?$allocator@D@2@@std@@N@std@@@2@$0A@@std@@@std@@QAE?AV?$_Tree_iterator@V?$_Tree_val@U?$_Tree_simple_types@U?$pair@$$CBV?$basic_string@DU?$char_traits@D@std@@V?$allocator@D@2@@std@@N@std@@@std@@@std@@@2@V?$_Tree_const_iterator@V?$_Tree_val@U?$_Tree_simple_types@U?$pair@$$CBV?$basic_string@DU?$char_traits@D@std@@V?$allocator@D@2@@std@@N@std@@@std@@@std@@@2@0@Z 00416e40 f i ctpmd.obj
 0001:00015f00       ?erase@?$_Tree@V?$_Tmap_traits@V?$basic_string@DU?$char_traits@D@std@@V?$allocator@D@2@@std@@NU?$less@V?$basic_string@DU?$char_traits@D@std@@V?$allocator@D@2@@std@@@2@V?$allocator@U?$pair@$$CBV?$basic_string@DU?$char_traits@D@std@@V?$allocator@D@2@@std@@N@std@@@2@$0A@@std@@@std@@QAE?AV?$_Tree_iterator@V?$_Tree_val@U?$_Tree_simple_types@U?$pair@$$CBV?$basic_string@DU?$char_traits@D@std@@V?$allocator@D@2@@std@@N@std@@@std@@@std@@@2@V?$_Tree_const_iterator@V?$_Tree_val@U?$_Tree_simple_types@U?$pair@$$CBV?$basic_string@DU?$char_traits@D@std@@V?$allocator@D@2@@std@@N@std@@@std@@@std@@@2@@Z 00416f00 f i ctpmd.obj
 0001:000161b0       ?erase@?$_Tree@V?$_Tmap_traits@V?$basic_string@DU?$char_traits@D@std@@V?$allocator@D@2@@std@@V12@U?$less@V?$basic_string@DU?$char_traits@D@std@@V?$allocator@D@2@@std@@@2@V?$allocator@U?$pair@$$CBV?$basic_string@DU?$char_traits@D@std@@V?$allocator@D@2@@std@@V12@@std@@@2@$0A@@std@@@std@@QAE?AV?$_Tree_iterator@V?$_Tree_val@U?$_Tree_simple_types@U?$pair@$$CBV?$basic_string@DU?$char_traits@D@std@@V?$allocator@D@2@@std@@V12@@std@@@std@@@std@@@2@V?$_Tree_const_iterator@V?$_Tree_val@U?$_Tree_simple_types@U?$pair@$$CBV?$basic_string@DU?$char_traits@D@std@@V?$allocator@D@2@@std@@V12@@std@@@std@@@std@@@2@0@Z 004171b0 f i ctpmd.obj
 0001:00016270       ?erase@?$_Tree@V?$_Tmap_traits@V?$basic_string@DU?$char_traits@D@std@@V?$allocator@D@2@@std@@V12@U?$less@V?$basic_string@DU?$char_traits@D@std@@V?$allocator@D@2@@std@@@2@V?$allocator@U?$pair@$$CBV?$basic_string@DU?$char_traits@D@std@@V?$allocator@D@2@@std@@V12@@std@@@2@$0A@@std@@@std@@QAE?AV?$_Tree_iterator@V?$_Tree_val@U?$_Tree_simple_types@U?$pair@$$CBV?$basic_string@DU?$char_traits@D@std@@V?$allocator@D@2@@std@@V12@@std@@@std@@@std@@@2@V?$_Tree_const_iterator@V?$_Tree_val@U?$_Tree_simple_types@U?$pair@$$CBV?$basic_string@DU?$char_traits@D@std@@V?$allocator@D@2@@std@@V12@@std@@@std@@@std@@@2@@Z 00417270 f i ctpmd.obj
 0001:00016540       ?erase@?$_Tree@V?$_Tset_traits@V?$basic_string@DU?$char_traits@D@std@@V?$allocator@D@2@@std@@U?$less@V?$basic_string@DU?$char_traits@D@std@@V?$allocator@D@2@@std@@@2@V?$allocator@V?$basic_string@DU?$char_traits@D@std@@V?$allocator@D@2@@std@@@2@$0A@@std@@@std@@QAE?AV?$_Tree_const_iterator@V?$_Tree_val@U?$_Tree_simple_types@V?$basic_string@DU?$char_traits@D@std@@V?$allocator@D@2@@std@@@std@@@std@@@2@V32@0@Z 00417540 f i ctpmd.obj
 0001:00016600       ?erase@?$_Tree@V?$_Tset_traits@V?$basic_string@DU?$char_traits@D@std@@V?$allocator@D@2@@std@@U?$less@V?$basic_string@DU?$char_traits@D@std@@V?$allocator@D@2@@std@@@2@V?$allocator@V?$basic_string@DU?$char_traits@D@std@@V?$allocator@D@2@@std@@@2@$0A@@std@@@std@@QAE?AV?$_Tree_const_iterator@V?$_Tree_val@U?$_Tree_simple_types@V?$basic_string@DU?$char_traits@D@std@@V?$allocator@D@2@@std@@@std@@@std@@@2@V32@@Z 00417600 f i ctpmd.obj
 0001:000168b0       ?erase@?$basic_string@DU?$char_traits@D@std@@V?$allocator@D@2@@std@@QAEAAV12@I@Z 004178b0 f i ctpmd.obj
 0001:000168f0       ?erase@?$basic_string@DU?$char_traits@D@std@@V?$allocator@D@2@@std@@QAEAAV12@II@Z 004178f0 f i ctpmd.obj
 0001:00016990       ?erase@?$vector@IV?$allocator@_N@std@@@std@@QAE?AV?$_Vector_iterator@V?$_Vector_val@U?$_Simple_types@I@std@@@std@@@2@V?$_Vector_const_iterator@V?$_Vector_val@U?$_Simple_types@I@std@@@std@@@2@0@Z 00417990 f i ctpmd.obj
 0001:000169f0       ?erase@?$vector@_NV?$allocator@_N@std@@@std@@QAE?AV?$_Vb_iterator@U?$_Wrap_alloc@V?$allocator@I@std@@@std@@@2@V?$_Vb_const_iterator@U?$_Wrap_alloc@V?$allocator@I@std@@@std@@@2@0@Z 004179f0 f i ctpmd.obj
 0001:00016be0       ?find@?$_Tree@V?$_Tmap_traits@V?$basic_string@DU?$char_traits@D@std@@V?$allocator@D@2@@std@@NU?$less@V?$basic_string@DU?$char_traits@D@std@@V?$allocator@D@2@@std@@@2@V?$allocator@U?$pair@$$CBV?$basic_string@DU?$char_traits@D@std@@V?$allocator@D@2@@std@@N@std@@@2@$0A@@std@@@std@@QAE?AV?$_Tree_iterator@V?$_Tree_val@U?$_Tree_simple_types@U?$pair@$$CBV?$basic_string@DU?$char_traits@D@std@@V?$allocator@D@2@@std@@N@std@@@std@@@std@@@2@ABV?$basic_string@DU?$char_traits@D@std@@V?$allocator@D@2@@2@@Z 00417be0 f i ctpmd.obj
 0001:00016c50       ?find@?$_Tree@V?$_Tset_traits@V?$basic_string@DU?$char_traits@D@std@@V?$allocator@D@2@@std@@U?$less@V?$basic_string@DU?$char_traits@D@std@@V?$allocator@D@2@@std@@@2@V?$allocator@V?$basic_string@DU?$char_traits@D@std@@V?$allocator@D@2@@std@@@2@$0A@@std@@@std@@QAE?AV?$_Tree_const_iterator@V?$_Tree_val@U?$_Tree_simple_types@V?$basic_string@DU?$char_traits@D@std@@V?$allocator@D@2@@std@@@std@@@std@@@2@ABV?$basic_string@DU?$char_traits@D@std@@V?$allocator@D@2@@2@@Z 00417c50 f i ctpmd.obj
 0001:00016cc0       ?find@?$basic_string@DU?$char_traits@D@std@@V?$allocator@D@2@@std@@QBEIPBDI@Z 00417cc0 f i ctpmd.obj
 0001:00016d00       ?find@?$basic_string@DU?$char_traits@D@std@@V?$allocator@D@2@@std@@QBEIPBDII@Z 00417d00 f i ctpmd.obj
 0001:00016da0       ?find@?$char_traits@D@std@@SAPBDPBDIABD@Z 00417da0 f i ctpmd.obj
 0001:00016dd0       ?flags@?$basic_regex@DV?$regex_traits@D@std@@@std@@QBE?AW4syntax_option_type@regex_constants@2@XZ 00417dd0 f i ctpmd.obj
 0001:00016de0       ?format_error_code@?A0x8ea9194f@fmt@@YAXAAV?$BasicWriter@D@2@HV?$BasicStringRef@D@2@@Z 00417de0 f   ctpmd.obj
 0001:00016f20       ?generic_category@std@@YAABVerror_category@1@XZ 00417f20 f i ctpmd.obj
 0001:00016f30       ?get@?$BasicWriter@D@fmt@@CAPADPAD@Z 00417f30 f i ctpmd.obj
 0001:00016f40       ?getCurrentDate@Utils@@SA?AV?$basic_string@DU?$char_traits@D@std@@V?$allocator@D@2@@std@@XZ 00417f40 f i ctpmd.obj
 0001:00017150       ?getCurrentDateTime@Utils@@SA?AV?$basic_string@DU?$char_traits@D@std@@V?$allocator@D@2@@std@@XZ 00418150 f i ctpmd.obj
 0001:00017760       ?getMilliseconds@Utils@@SA?AV?$basic_string@DU?$char_traits@D@std@@V?$allocator@D@2@@std@@XZ 00418760 f i ctpmd.obj
 0001:000177a0       ?get_allocator@?$basic_string@DU?$char_traits@D@std@@V?$allocator@D@2@@std@@QBE?AV?$allocator@D@2@XZ 004187a0 f i ctpmd.obj
 0001:000177b0       ?getloc@?$_Regex_traits@D@std@@QBE?AVlocale@2@XZ 004187b0 f i ctpmd.obj
 0001:000177e0       ?grow@?$MemoryBuffer@D$0BPE@V?$allocator@D@std@@@internal@fmt@@MAEXI@Z 004187e0 f i ctpmd.obj
 0001:00017850       ?grow_buffer@?$BasicWriter@D@fmt@@AAEPADI@Z 00418850 f i ctpmd.obj
 0001:00017940       ?imbue@?$basic_filebuf@DU?$char_traits@D@std@@@std@@MAEXABVlocale@2@@Z 00418940 f i ctpmd.obj
 0001:00017980       ?insert@?$_Tree@V?$_Tset_traits@V?$basic_string@DU?$char_traits@D@std@@V?$allocator@D@2@@std@@U?$less@V?$basic_string@DU?$char_traits@D@std@@V?$allocator@D@2@@std@@@2@V?$allocator@V?$basic_string@DU?$char_traits@D@std@@V?$allocator@D@2@@std@@@2@$0A@@std@@@std@@QAE?AU?$pair@V?$_Tree_const_iterator@V?$_Tree_val@U?$_Tree_simple_types@V?$basic_string@DU?$char_traits@D@std@@V?$allocator@D@2@@std@@@std@@@std@@@std@@_N@2@ABV?$basic_string@DU?$char_traits@D@std@@V?$allocator@D@2@@2@@Z 00418980 f i ctpmd.obj
 0001:000179a0       ?insert@?$basic_string@DU?$char_traits@D@std@@V?$allocator@D@2@@std@@QAE?AV?$_String_iterator@V?$_String_val@U?$_Simple_types@D@std@@@std@@@2@V?$_String_const_iterator@V?$_String_val@U?$_Simple_types@D@std@@@std@@@2@D@Z 004189a0 f i ctpmd.obj
 0001:000179e0       ?insert@?$basic_string@DU?$char_traits@D@std@@V?$allocator@D@2@@std@@QAEAAV12@IABV12@@Z 004189e0 f i ctpmd.obj
 0001:00017a00       ?insert@?$basic_string@DU?$char_traits@D@std@@V?$allocator@D@2@@std@@QAEAAV12@IABV12@II@Z 00418a00 f i ctpmd.obj
 0001:00017b30       ?insert@?$basic_string@DU?$char_traits@D@std@@V?$allocator@D@2@@std@@QAEAAV12@IID@Z 00418b30 f i ctpmd.obj
 0001:00017bf0       ?insert@?$basic_string@DU?$char_traits@D@std@@V?$allocator@D@2@@std@@QAEAAV12@IPBD@Z 00418bf0 f i ctpmd.obj
 0001:00017c30       ?insert@?$basic_string@DU?$char_traits@D@std@@V?$allocator@D@2@@std@@QAEAAV12@IPBDI@Z 00418c30 f i ctpmd.obj
 0001:00017d40       ?insert@?$set@V?$basic_string@DU?$char_traits@D@std@@V?$allocator@D@2@@std@@U?$less@V?$basic_string@DU?$char_traits@D@std@@V?$allocator@D@2@@std@@@2@V?$allocator@V?$basic_string@DU?$char_traits@D@std@@V?$allocator@D@2@@std@@@2@@std@@QAE?AU?$pair@V?$_Tree_const_iterator@V?$_Tree_val@U?$_Tree_simple_types@V?$basic_string@DU?$char_traits@D@std@@V?$allocator@D@2@@std@@@std@@@std@@@std@@_N@2@ABV?$basic_string@DU?$char_traits@D@std@@V?$allocator@D@2@@2@@Z 00418d40 f i ctpmd.obj
 0001:00017d60       ?is_open@?$basic_filebuf@DU?$char_traits@D@std@@@std@@QBE_NXZ 00418d60 f i ctpmd.obj
 0001:00017d70       ?is_open@?$basic_fstream@DU?$char_traits@D@std@@@std@@QBE_NXZ 00418d70 f i ctpmd.obj
 0001:00017d80       ?isctype@?$_Regex_traits@D@std@@QBE_NDF@Z 00418d80 f i ctpmd.obj
 0001:00017e70       ?length@?$_Regex_traits@D@std@@SAIPBD@Z 00418e70 f i ctpmd.obj
 0001:00017ea0       ?length@?$basic_string@DU?$char_traits@D@std@@V?$allocator@D@2@@std@@QBEIXZ 00418ea0 f i ctpmd.obj
 0001:00017eb0       ?length@?$char_traits@D@std@@SAIPBD@Z 00418eb0 f i ctpmd.obj
 0001:00017ed0       ?login@Ctpmd@@QAEXXZ       00418ed0 f   ctpmd.obj
 0001:00017fa0       ?logout@Ctpmd@@QAEXXZ      00418fa0 f   ctpmd.obj
 0001:000180c0       ?lower_bound@?$_Tree@V?$_Tmap_traits@V?$basic_string@DU?$char_traits@D@std@@V?$allocator@D@2@@std@@NU?$less@V?$basic_string@DU?$char_traits@D@std@@V?$allocator@D@2@@std@@@2@V?$allocator@U?$pair@$$CBV?$basic_string@DU?$char_traits@D@std@@V?$allocator@D@2@@std@@N@std@@@2@$0A@@std@@@std@@QAE?AV?$_Tree_iterator@V?$_Tree_val@U?$_Tree_simple_types@U?$pair@$$CBV?$basic_string@DU?$char_traits@D@std@@V?$allocator@D@2@@std@@N@std@@@std@@@std@@@2@ABV?$basic_string@DU?$char_traits@D@std@@V?$allocator@D@2@@2@@Z 004190c0 f i ctpmd.obj
 0001:000180e0       ?lower_bound@?$_Tree@V?$_Tmap_traits@V?$basic_string@DU?$char_traits@D@std@@V?$allocator@D@2@@std@@V12@U?$less@V?$basic_string@DU?$char_traits@D@std@@V?$allocator@D@2@@std@@@2@V?$allocator@U?$pair@$$CBV?$basic_string@DU?$char_traits@D@std@@V?$allocator@D@2@@std@@V12@@std@@@2@$0A@@std@@@std@@QAE?AV?$_Tree_iterator@V?$_Tree_val@U?$_Tree_simple_types@U?$pair@$$CBV?$basic_string@DU?$char_traits@D@std@@V?$allocator@D@2@@std@@V12@@std@@@std@@@std@@@2@ABV?$basic_string@DU?$char_traits@D@std@@V?$allocator@D@2@@2@@Z 004190e0 f i ctpmd.obj
 0001:00018100       ?lower_bound@?$_Tree@V?$_Tset_traits@V?$basic_string@DU?$char_traits@D@std@@V?$allocator@D@2@@std@@U?$less@V?$basic_string@DU?$char_traits@D@std@@V?$allocator@D@2@@std@@@2@V?$allocator@V?$basic_string@DU?$char_traits@D@std@@V?$allocator@D@2@@std@@@2@$0A@@std@@@std@@QAE?AV?$_Tree_const_iterator@V?$_Tree_val@U?$_Tree_simple_types@V?$basic_string@DU?$char_traits@D@std@@V?$allocator@D@2@@std@@@std@@@std@@@2@ABV?$basic_string@DU?$char_traits@D@std@@V?$allocator@D@2@@2@@Z 00419100 f i ctpmd.obj
 0001:00018120       ?mark_count@?$basic_regex@DV?$regex_traits@D@std@@@std@@QBEIXZ 00419120 f i ctpmd.obj
 0001:00018130       ?max@?$numeric_limits@D@std@@SADXZ 00419130 f i ctpmd.obj
 0001:00018140       ?max@?$numeric_limits@E@std@@SAEXZ 00419140 f i ctpmd.obj
 0001:00018150       ?max_size@?$_Tree@V?$_Tmap_traits@V?$basic_string@DU?$char_traits@D@std@@V?$allocator@D@2@@std@@NU?$less@V?$basic_string@DU?$char_traits@D@std@@V?$allocator@D@2@@std@@@2@V?$allocator@U?$pair@$$CBV?$basic_string@DU?$char_traits@D@std@@V?$allocator@D@2@@std@@N@std@@@2@$0A@@std@@@std@@QBEIXZ 00419150 f i ctpmd.obj
 0001:00018160       ?max_size@?$_Tree@V?$_Tmap_traits@V?$basic_string@DU?$char_traits@D@std@@V?$allocator@D@2@@std@@V12@U?$less@V?$basic_string@DU?$char_traits@D@std@@V?$allocator@D@2@@std@@@2@V?$allocator@U?$pair@$$CBV?$basic_string@DU?$char_traits@D@std@@V?$allocator@D@2@@std@@V12@@std@@@2@$0A@@std@@@std@@QBEIXZ 00419160 f i ctpmd.obj
 0001:00018170       ?max_size@?$_Tree@V?$_Tset_traits@V?$basic_string@DU?$char_traits@D@std@@V?$allocator@D@2@@std@@U?$less@V?$basic_string@DU?$char_traits@D@std@@V?$allocator@D@2@@std@@@2@V?$allocator@V?$basic_string@DU?$char_traits@D@std@@V?$allocator@D@2@@std@@@2@$0A@@std@@@std@@QBEIXZ 00419170 f i ctpmd.obj
 0001:00018180       ?max_size@?$_Wrap_alloc@V?$allocator@D@std@@@std@@QBEIXZ 00419180 f i ctpmd.obj
 0001:00018190       ?max_size@?$_Wrap_alloc@V?$allocator@I@std@@@std@@QBEIXZ 00419190 f i ctpmd.obj
 0001:000181a0       ?max_size@?$_Wrap_alloc@V?$allocator@U?$_Tree_node@U?$pair@$$CBV?$basic_string@DU?$char_traits@D@std@@V?$allocator@D@2@@std@@N@std@@PAX@std@@@std@@@std@@QBEIXZ 004191a0 f i ctpmd.obj
 0001:000181b0       ?max_size@?$_Wrap_alloc@V?$allocator@U?$_Tree_node@U?$pair@$$CBV?$basic_string@DU?$char_traits@D@std@@V?$allocator@D@2@@std@@V12@@std@@PAX@std@@@std@@@std@@QBEIXZ 004191b0 f i ctpmd.obj
 0001:000181c0       ?max_size@?$_Wrap_alloc@V?$allocator@U?$_Tree_node@V?$basic_string@DU?$char_traits@D@std@@V?$allocator@D@2@@std@@PAX@std@@@std@@@std@@QBEIXZ 004191c0 f i ctpmd.obj
 0001:000181d0       ?max_size@?$_Wrap_alloc@V?$allocator@U_Grp_t@?$_Tgt_state_t@PBD@std@@@std@@@std@@QBEIXZ 004191d0 f i ctpmd.obj
 0001:000181e0       ?max_size@?$_Wrap_alloc@V?$allocator@U_Loop_vals_t@std@@@std@@@std@@QBEIXZ 004191e0 f i ctpmd.obj
 0001:000181f0       ?max_size@?$_Wrap_alloc@V?$allocator@V?$basic_string@DU?$char_traits@D@std@@V?$allocator@D@2@@std@@@std@@@std@@QBEIXZ 004191f0 f i ctpmd.obj
 0001:00018200       ?max_size@?$_Wrap_alloc@V?$allocator@V?$sub_match@PBD@std@@@std@@@std@@QBEIXZ 00419200 f i ctpmd.obj
 0001:00018210       ?max_size@?$allocator@D@std@@QBEIXZ 00419210 f i ctpmd.obj
 0001:00018220       ?max_size@?$allocator@I@std@@QBEIXZ 00419220 f i ctpmd.obj
 0001:00018230       ?max_size@?$allocator@U?$_Tree_node@U?$pair@$$CBV?$basic_string@DU?$char_traits@D@std@@V?$allocator@D@2@@std@@N@std@@PAX@std@@@std@@QBEIXZ 00419230 f i ctpmd.obj
 0001:00018240       ?max_size@?$allocator@U?$_Tree_node@U?$pair@$$CBV?$basic_string@DU?$char_traits@D@std@@V?$allocator@D@2@@std@@V12@@std@@PAX@std@@@std@@QBEIXZ 00419240 f i ctpmd.obj
 0001:00018250       ?max_size@?$allocator@U?$_Tree_node@V?$basic_string@DU?$char_traits@D@std@@V?$allocator@D@2@@std@@PAX@std@@@std@@QBEIXZ 00419250 f i ctpmd.obj
 0001:00018260       ?max_size@?$allocator@U_Grp_t@?$_Tgt_state_t@PBD@std@@@std@@QBEIXZ 00419260 f i ctpmd.obj
 0001:00018270       ?max_size@?$allocator@U_Loop_vals_t@std@@@std@@QBEIXZ 00419270 f i ctpmd.obj
 0001:00018280       ?max_size@?$allocator@V?$basic_string@DU?$char_traits@D@std@@V?$allocator@D@2@@std@@@std@@QBEIXZ 00419280 f i ctpmd.obj
 0001:00018290       ?max_size@?$allocator@V?$sub_match@PBD@std@@@std@@QBEIXZ 00419290 f i ctpmd.obj
 0001:000182a0       ?max_size@?$allocator_traits@V?$allocator@D@std@@@std@@SAIABV?$allocator@D@2@@Z 004192a0 f i ctpmd.obj
 0001:000182b0       ?max_size@?$allocator_traits@V?$allocator@I@std@@@std@@SAIABV?$allocator@I@2@@Z 004192b0 f i ctpmd.obj
 0001:000182c0       ?max_size@?$allocator_traits@V?$allocator@U?$_Tree_node@U?$pair@$$CBV?$basic_string@DU?$char_traits@D@std@@V?$allocator@D@2@@std@@N@std@@PAX@std@@@std@@@std@@SAIABV?$allocator@U?$_Tree_node@U?$pair@$$CBV?$basic_string@DU?$char_traits@D@std@@V?$allocator@D@2@@std@@N@std@@PAX@std@@@2@@Z 004192c0 f i ctpmd.obj
 0001:000182d0       ?max_size@?$allocator_traits@V?$allocator@U?$_Tree_node@U?$pair@$$CBV?$basic_string@DU?$char_traits@D@std@@V?$allocator@D@2@@std@@V12@@std@@PAX@std@@@std@@@std@@SAIABV?$allocator@U?$_Tree_node@U?$pair@$$CBV?$basic_string@DU?$char_traits@D@std@@V?$allocator@D@2@@std@@V12@@std@@PAX@std@@@2@@Z 004192d0 f i ctpmd.obj
 0001:000182e0       ?max_size@?$allocator_traits@V?$allocator@U?$_Tree_node@V?$basic_string@DU?$char_traits@D@std@@V?$allocator@D@2@@std@@PAX@std@@@std@@@std@@SAIABV?$allocator@U?$_Tree_node@V?$basic_string@DU?$char_traits@D@std@@V?$allocator@D@2@@std@@PAX@std@@@2@@Z 004192e0 f i ctpmd.obj
 0001:000182f0       ?max_size@?$allocator_traits@V?$allocator@U_Grp_t@?$_Tgt_state_t@PBD@std@@@std@@@std@@SAIABV?$allocator@U_Grp_t@?$_Tgt_state_t@PBD@std@@@2@@Z 004192f0 f i ctpmd.obj
 0001:00018300       ?max_size@?$allocator_traits@V?$allocator@U_Loop_vals_t@std@@@std@@@std@@SAIABV?$allocator@U_Loop_vals_t@std@@@2@@Z 00419300 f i ctpmd.obj
 0001:00018310       ?max_size@?$allocator_traits@V?$allocator@V?$basic_string@DU?$char_traits@D@std@@V?$allocator@D@2@@std@@@std@@@std@@SAIABV?$allocator@V?$basic_string@DU?$char_traits@D@std@@V?$allocator@D@2@@std@@@2@@Z 00419310 f i ctpmd.obj
 0001:00018320       ?max_size@?$allocator_traits@V?$allocator@V?$sub_match@PBD@std@@@std@@@std@@SAIABV?$allocator@V?$sub_match@PBD@std@@@2@@Z 00419320 f i ctpmd.obj
 0001:00018330       ?max_size@?$basic_string@DU?$char_traits@D@std@@V?$allocator@D@2@@std@@QBEIXZ 00419330 f i ctpmd.obj
 0001:00018340       ?max_size@?$vector@DV?$allocator@D@std@@@std@@QBEIXZ 00419340 f i ctpmd.obj
 0001:00018350       ?max_size@?$vector@IV?$allocator@_N@std@@@std@@QBEIXZ 00419350 f i ctpmd.obj
 0001:00018360       ?max_size@?$vector@U_Grp_t@?$_Tgt_state_t@PBD@std@@V?$allocator@U_Grp_t@?$_Tgt_state_t@PBD@std@@@3@@std@@QBEIXZ 00419360 f i ctpmd.obj
 0001:00018370       ?max_size@?$vector@U_Loop_vals_t@std@@V?$allocator@U_Loop_vals_t@std@@@2@@std@@QBEIXZ 00419370 f i ctpmd.obj
 0001:00018380       ?max_size@?$vector@V?$basic_string@DU?$char_traits@D@std@@V?$allocator@D@2@@std@@V?$allocator@V?$basic_string@DU?$char_traits@D@std@@V?$allocator@D@2@@std@@@2@@std@@QBEIXZ 00419380 f i ctpmd.obj
 0001:00018390       ?max_size@?$vector@V?$sub_match@PBD@std@@V?$allocator@V?$sub_match@PBD@std@@@2@@std@@QBEIXZ 00419390 f i ctpmd.obj
 0001:000183a0       ?max_size@?$vector@_NV?$allocator@_N@std@@@std@@QBEIXZ 004193a0 f i ctpmd.obj
 0001:000183b0       ?message@_Generic_error_category@std@@UBE?AV?$basic_string@DU?$char_traits@D@std@@V?$allocator@D@2@@2@H@Z 004193b0 f i ctpmd.obj
 0001:00018430       ?message@_Iostream_error_category@std@@UBE?AV?$basic_string@DU?$char_traits@D@std@@V?$allocator@D@2@@2@H@Z 00419430 f i ctpmd.obj
 0001:00018480       ?message@_System_error_category@std@@UBE?AV?$basic_string@DU?$char_traits@D@std@@V?$allocator@D@2@@2@H@Z 00419480 f i ctpmd.obj
 0001:00018500       ?move@?$char_traits@D@std@@SAPADPADPBDI@Z 00419500 f i ctpmd.obj
 0001:00018520       ?name@_Generic_error_category@std@@UBEPBDXZ 00419520 f i ctpmd.obj
 0001:00018530       ?name@_Iostream_error_category@std@@UBEPBDXZ 00419530 f i ctpmd.obj
 0001:00018540       ?name@_System_error_category@std@@UBEPBDXZ 00419540 f i ctpmd.obj
 0001:00018550       ?name@locale@std@@QBE?AV?$basic_string@DU?$char_traits@D@std@@V?$allocator@D@2@@2@XZ 00419550 f i ctpmd.obj
 0001:000186b0       ?not_eof@?$char_traits@D@std@@SAHABH@Z 004196b0 f i ctpmd.obj
 0001:000186d0       ?now@system_clock@chrono@std@@SA?AV?$time_point@Usystem_clock@chrono@std@@V?$duration@_JU?$ratio@$00$0JIJGIA@@std@@@23@@23@XZ 004196d0 f i ctpmd.obj
 0001:000186f0       ?open@?$basic_filebuf@DU?$char_traits@D@std@@@std@@QAEPAV12@PBDHH@Z 004196f0 f i ctpmd.obj
 0001:00018800       ?overflow@?$basic_filebuf@DU?$char_traits@D@std@@@std@@MAEHH@Z 00419800 f i ctpmd.obj
 0001:000189f0       ?pbackfail@?$basic_filebuf@DU?$char_traits@D@std@@@std@@MAEHH@Z 004199f0 f i ctpmd.obj
 0001:00018a80       ?pointer_to@?$pointer_traits@PAU?$pair@$$CBV?$basic_string@DU?$char_traits@D@std@@V?$allocator@D@2@@std@@N@std@@@std@@SAPAU?$pair@$$CBV?$basic_string@DU?$char_traits@D@std@@V?$allocator@D@2@@std@@N@2@AAU32@@Z 00419a80 f i ctpmd.obj
 0001:00018a90       ?pointer_to@?$pointer_traits@PAU?$pair@$$CBV?$basic_string@DU?$char_traits@D@std@@V?$allocator@D@2@@std@@V12@@std@@@std@@SAPAU?$pair@$$CBV?$basic_string@DU?$char_traits@D@std@@V?$allocator@D@2@@std@@V12@@2@AAU32@@Z 00419a90 f i ctpmd.obj
 0001:00018aa0       ?prefix@?$match_results@PBDV?$allocator@V?$sub_match@PBD@std@@@std@@@std@@QBEABV?$sub_match@PBD@2@XZ 00419aa0 f i ctpmd.obj
 0001:00018ab0       ?push_back@?$basic_string@DU?$char_traits@D@std@@V?$allocator@D@2@@std@@QAEXD@Z 00419ab0 f i ctpmd.obj
 0001:00018b00       ?regexSymbol@Utils@@SA?AV?$basic_string@DU?$char_traits@D@std@@V?$allocator@D@2@@std@@ABV23@@Z 00419b00 f i ctpmd.obj
 0001:00018bf0       ?replace@?$basic_string@DU?$char_traits@D@std@@V?$allocator@D@2@@std@@QAEAAV12@IIABV12@II@Z 00419bf0 f i ctpmd.obj
 0001:00018f50       ?replace@?$basic_string@DU?$char_traits@D@std@@V?$allocator@D@2@@std@@QAEAAV12@IIPBDI@Z 00419f50 f i ctpmd.obj
 0001:000190f0       ?replace@?$basic_string@DU?$char_traits@D@std@@V?$allocator@D@2@@std@@QAEAAV12@V?$_String_const_iterator@V?$_String_val@U?$_Simple_types@D@std@@@std@@@2@0V?$_String_iterator@V?$_String_val@U?$_Simple_types@D@std@@@std@@@2@1@Z 0041a0f0 f i ctpmd.obj
 0001:00019180       ?report_error@?A0x8ea9194f@fmt@@YAXP6AXAAV?$BasicWriter@D@2@HV?$BasicStringRef@D@2@@ZH1@Z 0041a180 f   ctpmd.obj
 0001:00019260       ?reserve@?$basic_string@DU?$char_traits@D@std@@V?$allocator@D@2@@std@@QAEXI@Z 0041a260 f i ctpmd.obj
 0001:000192a0       ?resize@?$Buffer@D@fmt@@QAEXI@Z 0041a2a0 f i ctpmd.obj
 0001:000192c0       ?resize@?$basic_string@DU?$char_traits@D@std@@V?$allocator@D@2@@std@@QAEXI@Z 0041a2c0 f i ctpmd.obj
 0001:000192f0       ?resize@?$basic_string@DU?$char_traits@D@std@@V?$allocator@D@2@@std@@QAEXID@Z 0041a2f0 f i ctpmd.obj
 0001:00019320       ?resize@?$vector@IV?$allocator@_N@std@@@std@@QAEXIABI@Z 0041a320 f i ctpmd.obj
 0001:000193c0       ?resize@?$vector@U_Grp_t@?$_Tgt_state_t@PBD@std@@V?$allocator@U_Grp_t@?$_Tgt_state_t@PBD@std@@@3@@std@@QAEXI@Z 0041a3c0 f i ctpmd.obj
 0001:00019480       ?resize@?$vector@U_Loop_vals_t@std@@V?$allocator@U_Loop_vals_t@std@@@2@@std@@QAEXI@Z 0041a480 f i ctpmd.obj
 0001:00019540       ?resize@?$vector@V?$sub_match@PBD@std@@V?$allocator@V?$sub_match@PBD@std@@@2@@std@@QAEXI@Z 0041a540 f i ctpmd.obj
 0001:00019620       ?resize@?$vector@_NV?$allocator@_N@std@@@std@@QAEXI_N@Z 0041a620 f i ctpmd.obj
 0001:00019720       ?safe_strerror@?A0x8ea9194f@fmt@@YAHHAAPADI@Z 0041a720 f   ctpmd.obj
 0001:00019760       ?seekoff@?$basic_filebuf@DU?$char_traits@D@std@@@std@@MAE?AV?$fpos@H@2@_JHH@Z 0041a760 f i ctpmd.obj
 0001:00019860       ?seekpos@?$basic_filebuf@DU?$char_traits@D@std@@@std@@MAE?AV?$fpos@H@2@V32@H@Z 0041a860 f i ctpmd.obj
 0001:00019940       ?seekpos@?$fpos@H@std@@QBE_JXZ 0041a940 f i ctpmd.obj
 0001:00019950       ?select_on_container_copy_construction@?$_Wrap_alloc@V?$allocator@D@std@@@std@@QBE?AU12@XZ 0041a950 f i ctpmd.obj
 0001:00019960       ?select_on_container_copy_construction@?$_Wrap_alloc@V?$allocator@I@std@@@std@@QBE?AU12@XZ 0041a960 f i ctpmd.obj
 0001:00019970       ?select_on_container_copy_construction@?$_Wrap_alloc@V?$allocator@U_Grp_t@?$_Tgt_state_t@PBD@std@@@std@@@std@@QBE?AU12@XZ 0041a970 f i ctpmd.obj
 0001:00019980       ?select_on_container_copy_construction@?$allocator@D@std@@QBE?AV12@XZ 0041a980 f i ctpmd.obj
 0001:00019990       ?select_on_container_copy_construction@?$allocator@I@std@@QBE?AV12@XZ 0041a990 f i ctpmd.obj
 0001:000199a0       ?select_on_container_copy_construction@?$allocator@U_Grp_t@?$_Tgt_state_t@PBD@std@@@std@@QBE?AV12@XZ 0041a9a0 f i ctpmd.obj
 0001:000199b0       ?select_on_container_copy_construction@?$allocator_traits@V?$allocator@D@std@@@std@@SA?AV?$allocator@D@2@ABV32@@Z 0041a9b0 f i ctpmd.obj
 0001:000199c0       ?select_on_container_copy_construction@?$allocator_traits@V?$allocator@I@std@@@std@@SA?AV?$allocator@I@2@ABV32@@Z 0041a9c0 f i ctpmd.obj
 0001:000199d0       ?select_on_container_copy_construction@?$allocator_traits@V?$allocator@U_Grp_t@?$_Tgt_state_t@PBD@std@@@std@@@std@@SA?AV?$allocator@U_Grp_t@?$_Tgt_state_t@PBD@std@@@2@ABV32@@Z 0041a9d0 f i ctpmd.obj
 0001:000199e0       ?setbuf@?$basic_filebuf@DU?$char_traits@D@std@@@std@@MAEPAV?$basic_streambuf@DU?$char_traits@D@std@@@2@PAD_J@Z 0041a9e0 f i ctpmd.obj
 0001:00019a70       ?size@?$BasicStringRef@D@fmt@@QBEIXZ 0041aa70 f i ctpmd.obj
 0001:00019a80       ?size@?$BasicWriter@D@fmt@@QBEIXZ 0041aa80 f i ctpmd.obj
 0001:00019a90       ?size@?$Buffer@D@fmt@@QBEIXZ 0041aa90 f i ctpmd.obj
 0001:00019aa0       ?size@?$_Tree@V?$_Tmap_traits@V?$basic_string@DU?$char_traits@D@std@@V?$allocator@D@2@@std@@NU?$less@V?$basic_string@DU?$char_traits@D@std@@V?$allocator@D@2@@std@@@2@V?$allocator@U?$pair@$$CBV?$basic_string@DU?$char_traits@D@std@@V?$allocator@D@2@@std@@N@std@@@2@$0A@@std@@@std@@QBEIXZ 0041aaa0 f i ctpmd.obj
 0001:00019ab0       ?size@?$_Tree@V?$_Tmap_traits@V?$basic_string@DU?$char_traits@D@std@@V?$allocator@D@2@@std@@V12@U?$less@V?$basic_string@DU?$char_traits@D@std@@V?$allocator@D@2@@std@@@2@V?$allocator@U?$pair@$$CBV?$basic_string@DU?$char_traits@D@std@@V?$allocator@D@2@@std@@V12@@std@@@2@$0A@@std@@@std@@QBEIXZ 0041aab0 f i ctpmd.obj
 0001:00019ac0       ?size@?$_Tree@V?$_Tset_traits@V?$basic_string@DU?$char_traits@D@std@@V?$allocator@D@2@@std@@U?$less@V?$basic_string@DU?$char_traits@D@std@@V?$allocator@D@2@@std@@@2@V?$allocator@V?$basic_string@DU?$char_traits@D@std@@V?$allocator@D@2@@std@@@2@$0A@@std@@@std@@QBEIXZ 0041aac0 f i ctpmd.obj
 0001:00019ad0       ?size@?$basic_string@DU?$char_traits@D@std@@V?$allocator@D@2@@std@@QBEIXZ 0041aad0 f i ctpmd.obj
 0001:00019ae0       ?size@?$match_results@PBDV?$allocator@V?$sub_match@PBD@std@@@std@@@std@@QBEIXZ 0041aae0 f i ctpmd.obj
 0001:00019b00       ?size@?$vector@DV?$allocator@D@std@@@std@@QBEIXZ 0041ab00 f i ctpmd.obj
 0001:00019b10       ?size@?$vector@IV?$allocator@_N@std@@@std@@QBEIXZ 0041ab10 f i ctpmd.obj
 0001:00019b20       ?size@?$vector@U_Grp_t@?$_Tgt_state_t@PBD@std@@V?$allocator@U_Grp_t@?$_Tgt_state_t@PBD@std@@@3@@std@@QBEIXZ 0041ab20 f i ctpmd.obj
 0001:00019b30       ?size@?$vector@U_Loop_vals_t@std@@V?$allocator@U_Loop_vals_t@std@@@2@@std@@QBEIXZ 0041ab30 f i ctpmd.obj
 0001:00019b40       ?size@?$vector@V?$basic_string@DU?$char_traits@D@std@@V?$allocator@D@2@@std@@V?$allocator@V?$basic_string@DU?$char_traits@D@std@@V?$allocator@D@2@@std@@@2@@std@@QBEIXZ 0041ab40 f i ctpmd.obj
 0001:00019b60       ?size@?$vector@V?$sub_match@PBD@std@@V?$allocator@V?$sub_match@PBD@std@@@2@@std@@QBEIXZ 0041ab60 f i ctpmd.obj
 0001:00019b80       ?size@?$vector@_NV?$allocator@_N@std@@@std@@QBEIXZ 0041ab80 f i ctpmd.obj
 0001:00019b90       ?state@?$fpos@H@std@@QBEHXZ 0041ab90 f i ctpmd.obj
 0001:00019bb0       ?subscribe@Ctpmd@@QAEXABV?$basic_string@DU?$char_traits@D@std@@V?$allocator@D@2@@std@@@Z 0041abb0 f   ctpmd.obj
 0001:00019d60       ?substr@?$basic_string@DU?$char_traits@D@std@@V?$allocator@D@2@@std@@QBE?AV12@II@Z 0041ad60 f i ctpmd.obj
 0001:00019da0       ?suffix@?$match_results@PBDV?$allocator@V?$sub_match@PBD@std@@@std@@@std@@QBEABV?$sub_match@PBD@2@XZ 0041ada0 f i ctpmd.obj
 0001:00019db0       ?swap@?$basic_string@DU?$char_traits@D@std@@V?$allocator@D@2@@std@@QAEXAAV12@@Z 0041adb0 f i ctpmd.obj
 0001:00019df0       ?sync@?$basic_filebuf@DU?$char_traits@D@std@@@std@@MAEHXZ 0041adf0 f i ctpmd.obj
 0001:00019e20       ?system_category@std@@YAABVerror_category@1@XZ 0041ae20 f i ctpmd.obj
 0001:00019e30       ?timeTotime_t@Utils@@SA_JHHH@Z 0041ae30 f i ctpmd.obj
 0001:00019ea0       ?time_since_epoch@?$time_point@Usystem_clock@chrono@std@@V?$duration@_JU?$ratio@$00$0JIJGIA@@std@@@23@@chrono@std@@QBE?AV?$duration@_JU?$ratio@$00$0JIJGIA@@std@@@23@XZ 0041aea0 f i ctpmd.obj
 0001:00019ec0       ?to_char_type@?$char_traits@D@std@@SADABH@Z 0041aec0 f i ctpmd.obj
 0001:00019ed0       ?to_int_type@?$char_traits@D@std@@SAHABD@Z 0041aed0 f i ctpmd.obj
 0001:00019ee0       ?to_string@std@@YA?AV?$basic_string@DU?$char_traits@D@std@@V?$allocator@D@2@@1@H@Z 0041aee0 f i ctpmd.obj
 0001:00019f60       ?to_string@std@@YA?AV?$basic_string@DU?$char_traits@D@std@@V?$allocator@D@2@@1@_J@Z 0041af60 f i ctpmd.obj
 0001:00019fe0       ?to_time_t@system_clock@chrono@std@@SA_JABV?$time_point@Usystem_clock@chrono@std@@V?$duration@_JU?$ratio@$00$0JIJGIA@@std@@@23@@23@@Z 0041afe0 f i ctpmd.obj
 0001:0001a000       ?transform@?$collate@D@std@@QBE?AV?$basic_string@DU?$char_traits@D@std@@V?$allocator@D@2@@2@PBD0@Z 0041b000 f i ctpmd.obj
 0001:0001a030       ?translate@?$_Regex_traits@D@std@@QBEDD@Z 0041b030 f i ctpmd.obj
 0001:0001a100       ?translate_nocase@?$_Regex_traits@D@std@@QBEDD@Z 0041b100 f i ctpmd.obj
 0001:0001a190       ?uflow@?$basic_filebuf@DU?$char_traits@D@std@@@std@@MAEHXZ 0041b190 f i ctpmd.obj
 0001:0001a380       ?underflow@?$basic_filebuf@DU?$char_traits@D@std@@@std@@MAEHXZ 0041b380 f i ctpmd.obj
 0001:0001a3c0       ?value@?$regex_traits@D@std@@QBEHDH@Z 0041b3c0 f i ctpmd.obj
 0001:0001a420       ?value@error_code@std@@QBEHXZ 0041b420 f i ctpmd.obj
 0001:0001a430       ?value@error_condition@std@@QBEHXZ 0041b430 f i ctpmd.obj
 0001:0001a440       ?writeLog@Ctpmd@@ABEXABV?$basic_string@DU?$char_traits@D@std@@V?$allocator@D@2@@std@@@Z 0041b440 f i ctpmd.obj
 0001:0001a590       _hypot                     0041b590 f i ctpmd.obj
 0001:0001a5f0       ??$?0$$$V@?$_Ref_count_obj@V?$stderr_sink@Vmutex@std@@@sinks@spdlog@@@std@@QAE@XZ 0041b5f0 f i datarecorder.obj
 0001:0001a6a0       ??$?0AAU?$_Callable_obj@V<lambda_39bc3a8adb760765dcdc68c9b1844393>@@$0A@@std@@@?$_Callable_obj@V<lambda_39bc3a8adb760765dcdc68c9b1844393>@@$0A@@std@@QAE@AAU01@@Z 0041b6a0 f i datarecorder.obj
 0001:0001a6b0       ??$?0AAU?$_Callable_obj@V?$_Bind@$00XU?$_Pmf_wrap@P8Datarecorder@@AEXV?$shared_ptr@VEvent@@@std@@@ZXV1@V23@@std@@QAVDatarecorder@@AAV?$_Ph@$00@2@@std@@$0A@@std@@@?$_Callable_obj@V?$_Bind@$00XU?$_Pmf_wrap@P8Datarecorder@@AEXV?$shared_ptr@VEvent@@@std@@@ZXV1@V23@@std@@QAVDatarecorder@@AAV?$_Ph@$00@2@@std@@$0A@@std@@QAE@AAU01@@Z 0041b6b0 f i datarecorder.obj
 0001:0001a6d0       ??$?0AAU?$_Callable_obj@V?$_Bind@$00XU?$_Pmf_wrap@P8Datarecorder@@AEXXZXV1@$$$V@std@@QAVDatarecorder@@@std@@$0A@@std@@@?$_Callable_obj@V?$_Bind@$00XU?$_Pmf_wrap@P8Datarecorder@@AEXXZXV1@$$$V@std@@QAVDatarecorder@@@std@@$0A@@std@@QAE@AAU01@@Z 0041b6d0 f i datarecorder.obj
 0001:0001a6f0       ??$?0AAV?$_Ph@$00@std@@$$$VPAPAX@?$tuple@V?$_Ph@$00@std@@@std@@QAE@AAV?$_Ph@$00@1@@Z 0041b6f0 f i datarecorder.obj
 0001:0001a700       ??$?0AAV?$_Ph@$00@std@@@?$_Tuple_val@V?$_Ph@$00@std@@@std@@QAE@AAV?$_Ph@$00@1@@Z 0041b700 f i datarecorder.obj
 0001:0001a710       ??$?0AAV?$_Tree_iterator@V?$_Tree_val@U?$_Tree_simple_types@U?$pair@$$CBV?$basic_string@DU?$char_traits@D@std@@V?$allocator@D@2@@std@@H@std@@@std@@@std@@@std@@_NX@?$pair@V?$_Tree_iterator@V?$_Tree_val@U?$_Tree_simple_types@U?$pair@$$CBV?$basic_string@DU?$char_traits@D@std@@V?$allocator@D@2@@std@@H@std@@@std@@@std@@@std@@_N@std@@QAE@AAV?$_Tree_iterator@V?$_Tree_val@U?$_Tree_simple_types@U?$pair@$$CBV?$basic_string@DU?$char_traits@D@std@@V?$allocator@D@2@@std@@H@std@@@std@@@std@@@1@$$QA_N@Z 0041b710 f i datarecorder.obj
 0001:0001a730       ??$?0AAV?$_Tree_iterator@V?$_Tree_val@U?$_Tree_simple_types@U?$pair@$$CBV?$basic_string@DU?$char_traits@D@std@@V?$allocator@D@2@@std@@V?$shared_ptr@VEvent_Tick@@@2@@std@@@std@@@std@@@std@@_NX@?$pair@V?$_Tree_iterator@V?$_Tree_val@U?$_Tree_simple_types@U?$pair@$$CBV?$basic_string@DU?$char_traits@D@std@@V?$allocator@D@2@@std@@V?$shared_ptr@VEvent_Tick@@@2@@std@@@std@@@std@@@std@@_N@std@@QAE@AAV?$_Tree_iterator@V?$_Tree_val@U?$_Tree_simple_types@U?$pair@$$CBV?$basic_string@DU?$char_traits@D@std@@V?$allocator@D@2@@std@@V?$shared_ptr@VEvent_Tick@@@2@@std@@@std@@@std@@@1@$$QA_N@Z 0041b730 f i datarecorder.obj
 0001:0001a750       ??$?0AAV?$_Tree_iterator@V?$_Tree_val@U?$_Tree_simple_types@U?$pair@$$CBV?$basic_string@DU?$char_traits@D@std@@V?$allocator@D@2@@std@@VBarData@jsstructs@@@std@@@std@@@std@@@std@@AAV01@X@?$pair@V?$_Tree_iterator@V?$_Tree_val@U?$_Tree_simple_types@U?$pair@$$CBV?$basic_string@DU?$char_traits@D@std@@V?$allocator@D@2@@std@@VBarData@jsstructs@@@std@@@std@@@std@@@std@@V12@@std@@QAE@AAV?$_Tree_iterator@V?$_Tree_val@U?$_Tree_simple_types@U?$pair@$$CBV?$basic_string@DU?$char_traits@D@std@@V?$allocator@D@2@@std@@VBarData@jsstructs@@@std@@@std@@@std@@@1@0@Z 0041b750 f i datarecorder.obj
 0001:0001a770       ??$?0AAV?$_Tree_iterator@V?$_Tree_val@U?$_Tree_simple_types@U?$pair@$$CBV?$basic_string@DU?$char_traits@D@std@@V?$allocator@D@2@@std@@VBarData@jsstructs@@@std@@@std@@@std@@@std@@_NX@?$pair@V?$_Tree_iterator@V?$_Tree_val@U?$_Tree_simple_types@U?$pair@$$CBV?$basic_string@DU?$char_traits@D@std@@V?$allocator@D@2@@std@@VBarData@jsstructs@@@std@@@std@@@std@@@std@@_N@std@@QAE@AAV?$_Tree_iterator@V?$_Tree_val@U?$_Tree_simple_types@U?$pair@$$CBV?$basic_string@DU?$char_traits@D@std@@V?$allocator@D@2@@std@@VBarData@jsstructs@@@std@@@std@@@std@@@1@$$QA_N@Z 0041b770 f i datarecorder.obj
 0001:0001a790       ??$?0AAV?$_Tree_iterator@V?$_Tree_val@U?$_Tree_simple_types@U?$pair@$$CBV?$basic_string@DU?$char_traits@D@std@@V?$allocator@D@2@@std@@_J@std@@@std@@@std@@@std@@_NX@?$pair@V?$_Tree_iterator@V?$_Tree_val@U?$_Tree_simple_types@U?$pair@$$CBV?$basic_string@DU?$char_traits@D@std@@V?$allocator@D@2@@std@@_J@std@@@std@@@std@@@std@@_N@std@@QAE@AAV?$_Tree_iterator@V?$_Tree_val@U?$_Tree_simple_types@U?$pair@$$CBV?$basic_string@DU?$char_traits@D@std@@V?$allocator@D@2@@std@@_J@std@@@std@@@std@@@1@$$QA_N@Z 0041b790 f i datarecorder.obj
 0001:0001a7b0       ??$?0AAV?$basic_string@DU?$char_traits@D@std@@V?$allocator@D@2@@std@@AAIAAI@?$_Ref_count_obj@V?$rotating_file_sink@Vmutex@std@@@sinks@spdlog@@@std@@QAE@AAV?$basic_string@DU?$char_traits@D@std@@V?$allocator@D@2@@1@AAI1@Z 0041b7b0 f i datarecorder.obj
 0001:0001a830       ??$?0AAV?$shared_ptr@VEvent@@@std@@@?$_Tuple_val@AAV?$shared_ptr@VEvent@@@std@@@std@@QAE@AAV?$shared_ptr@VEvent@@@1@@Z 0041b830 f i datarecorder.obj
 0001:0001a840       ??$?0AAY02$$CBD@?$_Ref_count_obj@Vpattern_formatter@spdlog@@@std@@QAE@AAY02$$CBD@Z 0041b840 f i datarecorder.obj
 0001:0001a950       ??$?0ABV?$BasicStringRef@D@fmt@@ABU?$NamedArg@D@internal@1@X@?$pair@V?$BasicStringRef@D@fmt@@UArg@internal@2@@std@@QAE@ABV?$BasicStringRef@D@fmt@@ABU?$NamedArg@D@internal@3@@Z 0041b950 f i datarecorder.obj
 0001:0001a980       ??$?0ABV?$basic_string@DU?$char_traits@D@std@@V?$allocator@D@2@@std@@$$$V@?$pair@$$CBV?$basic_string@DU?$char_traits@D@std@@V?$allocator@D@2@@std@@H@std@@QAE@Upiecewise_construct_t@1@V?$tuple@ABV?$basic_string@DU?$char_traits@D@std@@V?$allocator@D@2@@std@@@1@V?$tuple@$$$V@1@@Z 0041b980 f i datarecorder.obj
 0001:0001a9c0       ??$?0ABV?$basic_string@DU?$char_traits@D@std@@V?$allocator@D@2@@std@@$$$V@?$pair@$$CBV?$basic_string@DU?$char_traits@D@std@@V?$allocator@D@2@@std@@V?$shared_ptr@VEvent_Tick@@@2@@std@@QAE@Upiecewise_construct_t@1@V?$tuple@ABV?$basic_string@DU?$char_traits@D@std@@V?$allocator@D@2@@std@@@1@V?$tuple@$$$V@1@@Z 0041b9c0 f i datarecorder.obj
 0001:0001aa00       ??$?0ABV?$basic_string@DU?$char_traits@D@std@@V?$allocator@D@2@@std@@$$$V@?$pair@$$CBV?$basic_string@DU?$char_traits@D@std@@V?$allocator@D@2@@std@@V?$shared_ptr@Vlogger@spdlog@@@2@@std@@QAE@Upiecewise_construct_t@1@V?$tuple@ABV?$basic_string@DU?$char_traits@D@std@@V?$allocator@D@2@@std@@@1@V?$tuple@$$$V@1@@Z 0041ba00 f i datarecorder.obj
 0001:0001aa40       ??$?0ABV?$basic_string@DU?$char_traits@D@std@@V?$allocator@D@2@@std@@$$$V@?$pair@$$CBV?$basic_string@DU?$char_traits@D@std@@V?$allocator@D@2@@std@@VBarData@jsstructs@@@std@@QAE@Upiecewise_construct_t@1@V?$tuple@ABV?$basic_string@DU?$char_traits@D@std@@V?$allocator@D@2@@std@@@1@V?$tuple@$$$V@1@@Z 0041ba40 f i datarecorder.obj
 0001:0001aa80       ??$?0ABV?$basic_string@DU?$char_traits@D@std@@V?$allocator@D@2@@std@@$$$V@?$pair@$$CBV?$basic_string@DU?$char_traits@D@std@@V?$allocator@D@2@@std@@_J@std@@QAE@Upiecewise_construct_t@1@V?$tuple@ABV?$basic_string@DU?$char_traits@D@std@@V?$allocator@D@2@@std@@@1@V?$tuple@$$$V@1@@Z 0041ba80 f i datarecorder.obj
 0001:0001aac0       ??$?0ABV?$basic_string@DU?$char_traits@D@std@@V?$allocator@D@2@@std@@@?$_Ref_count_obj@Vpattern_formatter@spdlog@@@std@@QAE@ABV?$basic_string@DU?$char_traits@D@std@@V?$allocator@D@2@@1@@Z 0041bac0 f i datarecorder.obj
 0001:0001ab70       ??$?0ABV?$basic_string@DU?$char_traits@D@std@@V?$allocator@D@2@@std@@@?$_Tuple_val@ABV?$basic_string@DU?$char_traits@D@std@@V?$allocator@D@2@@std@@@std@@QAE@ABV?$basic_string@DU?$char_traits@D@std@@V?$allocator@D@2@@1@@Z 0041bb70 f i datarecorder.obj
 0001:0001ab80       ??$?0ABV?$basic_string@DU?$char_traits@D@std@@V?$allocator@D@2@@std@@ABQBV?$shared_ptr@Vsink@sinks@spdlog@@@1@ABQBV21@@?$_Ref_count_obj@Vlogger@spdlog@@@std@@QAE@ABV?$basic_string@DU?$char_traits@D@std@@V?$allocator@D@2@@1@ABQBV?$shared_ptr@Vsink@sinks@spdlog@@@1@1@Z 0041bb80 f i datarecorder.obj
 0001:0001ac00       ??$?0ABV?$basic_string@DU?$char_traits@D@std@@V?$allocator@D@2@@std@@ABQBV?$shared_ptr@Vsink@sinks@spdlog@@@1@ABQBV21@AAIAAW4async_overflow_policy@spdlog@@AAV?$function@$$A6AXXZ@1@AAV?$duration@_JU?$ratio@$00$0DOI@@std@@@chrono@1@AAV51@@?$_Ref_count_obj@Vasync_logger@spdlog@@@std@@QAE@ABV?$basic_string@DU?$char_traits@D@std@@V?$allocator@D@2@@1@ABQBV?$shared_ptr@Vsink@sinks@spdlog@@@1@1AAIAAW4async_overflow_policy@spdlog@@AAV?$function@$$A6AXXZ@1@AAV?$duration@_JU?$ratio@$00$0DOI@@std@@@chrono@1@4@Z 0041bc00 f i datarecorder.obj
 0001:0001ac90       ??$?0ABV?$basic_string@DU?$char_traits@D@std@@V?$allocator@D@2@@std@@PAPAX@?$tuple@ABV?$basic_string@DU?$char_traits@D@std@@V?$allocator@D@2@@std@@@std@@QAE@$$QAV01@@Z 0041bc90 f i datarecorder.obj
 0001:0001aca0       ??$?0HX@?$duration@_JU?$ratio@$00$00@std@@@chrono@std@@QAE@ABH@Z 0041bca0 f i datarecorder.obj
 0001:0001acc0       ??$?0HX@?$duration@_JU?$ratio@$00$0DOI@@std@@@chrono@std@@QAE@ABH@Z 0041bcc0 f i datarecorder.obj
 0001:0001ace0       ??$?0HX@?$duration@_JU?$ratio@$00$0PECEA@@std@@@chrono@std@@QAE@ABH@Z 0041bce0 f i datarecorder.obj
 0001:0001ad00       ??$?0P8async_log_helper@details@spdlog@@AEXXZQAV012@@thread@std@@QAE@$$QAP8async_log_helper@details@spdlog@@AEXXZ$$QBQAV234@@Z 0041bd00 f i datarecorder.obj
 0001:0001ad80       ??$?0PAVaggregate_formatter@details@spdlog@@U?$default_delete@Vaggregate_formatter@details@spdlog@@@std@@@?$_Unique_ptr_base@Vflag_formatter@details@spdlog@@U?$default_delete@Vflag_formatter@details@spdlog@@@std@@$00@std@@QAE@PAVaggregate_formatter@details@spdlog@@U?$default_delete@Vaggregate_formatter@details@spdlog@@@1@@Z 0041bd80 f i datarecorder.obj
 0001:0001ad90       ??$?0PAVasync_log_helper@details@spdlog@@$$$VPAPAX@?$tuple@PAVasync_log_helper@details@spdlog@@@std@@QAE@$$QAPAVasync_log_helper@details@spdlog@@@Z 0041bd90 f i datarecorder.obj
 0001:0001ada0       ??$?0PAVasync_log_helper@details@spdlog@@@?$_Tuple_val@PAVasync_log_helper@details@spdlog@@@std@@QAE@$$QAPAVasync_log_helper@details@spdlog@@@Z 0041bda0 f i datarecorder.obj
 0001:0001adb0       ??$?0PAVasync_log_helper@details@spdlog@@PAPAX@?$tuple@PAVasync_log_helper@details@spdlog@@@std@@QAE@$$QAV01@@Z 0041bdb0 f i datarecorder.obj
 0001:0001adc0       ??$?0PBV?$shared_ptr@Vsink@sinks@spdlog@@@std@@@async_logger@spdlog@@QAE@ABV?$basic_string@DU?$char_traits@D@std@@V?$allocator@D@2@@std@@ABQBV?$shared_ptr@Vsink@sinks@spdlog@@@3@1IW4async_overflow_policy@1@ABV?$function@$$A6AXXZ@3@ABV?$duration@_JU?$ratio@$00$0DOI@@std@@@chrono@3@3@Z 0041bdc0 f i datarecorder.obj
 0001:0001aeb0       ??$?0PBV?$shared_ptr@Vsink@sinks@spdlog@@@std@@@logger@spdlog@@QAE@ABV?$basic_string@DU?$char_traits@D@std@@V?$allocator@D@2@@std@@ABQBV?$shared_ptr@Vsink@sinks@spdlog@@@3@1@Z 0041beb0 f i datarecorder.obj
 0001:0001b010       ??$?0PBV?$shared_ptr@Vsink@sinks@spdlog@@@std@@X@?$vector@V?$shared_ptr@Vsink@sinks@spdlog@@@std@@V?$allocator@V?$shared_ptr@Vsink@sinks@spdlog@@@std@@@2@@std@@QAE@PBV?$shared_ptr@Vsink@sinks@spdlog@@@1@0@Z 0041c010 f i datarecorder.obj
 0001:0001b040       ??$?0QAVDatarecorder@@$$$VPAPAX@?$tuple@PAVDatarecorder@@@std@@QAE@$$QBQAVDatarecorder@@@Z 0041c040 f i datarecorder.obj
 0001:0001b050       ??$?0QAVDatarecorder@@@?$_Tuple_val@PAVDatarecorder@@@std@@QAE@$$QBQAVDatarecorder@@@Z 0041c050 f i datarecorder.obj
 0001:0001b060       ??$?0QAVDatarecorder@@AAV?$_Ph@$00@std@@PAPAX@?$tuple@PAVDatarecorder@@V?$_Ph@$00@std@@@std@@QAE@$$QBQAVDatarecorder@@AAV?$_Ph@$00@1@@Z 0041c060 f i datarecorder.obj
 0001:0001b080       ??$?0U?$_Callable_obj@V<lambda_39bc3a8adb760765dcdc68c9b1844393>@@$0A@@std@@@?$_Callable_obj@V<lambda_39bc3a8adb760765dcdc68c9b1844393>@@$0A@@std@@QAE@$$QAU01@@Z 0041c080 f i datarecorder.obj
 0001:0001b090       ??$?0U?$_Callable_obj@V?$_Bind@$00XU?$_Pmf_wrap@P8Datarecorder@@AEXV?$shared_ptr@VEvent@@@std@@@ZXV1@V23@@std@@QAVDatarecorder@@AAV?$_Ph@$00@2@@std@@$0A@@std@@@?$_Callable_obj@V?$_Bind@$00XU?$_Pmf_wrap@P8Datarecorder@@AEXV?$shared_ptr@VEvent@@@std@@@ZXV1@V23@@std@@QAVDatarecorder@@AAV?$_Ph@$00@2@@std@@$0A@@std@@QAE@$$QAU01@@Z 0041c090 f i datarecorder.obj
 0001:0001b0b0       ??$?0U?$_Callable_obj@V?$_Bind@$00XU?$_Pmf_wrap@P8Datarecorder@@AEXXZXV1@$$$V@std@@QAVDatarecorder@@@std@@$0A@@std@@@?$_Callable_obj@V?$_Bind@$00XU?$_Pmf_wrap@P8Datarecorder@@AEXXZXV1@$$$V@std@@QAVDatarecorder@@@std@@$0A@@std@@QAE@$$QAU01@@Z 0041c0b0 f i datarecorder.obj
 0001:0001b0d0       ??$?0U?$_Pmf_wrap@P8Datarecorder@@AEXV?$shared_ptr@VEvent@@@std@@@ZXV1@V23@@std@@QAVDatarecorder@@AAV?$_Ph@$00@1@@?$_Bind@$00XU?$_Pmf_wrap@P8Datarecorder@@AEXV?$shared_ptr@VEvent@@@std@@@ZXV1@V23@@std@@QAVDatarecorder@@AAV?$_Ph@$00@2@@std@@QAE@$$QAU?$_Pmf_wrap@P8Datarecorder@@AEXV?$shared_ptr@VEvent@@@std@@@ZXV1@V23@@1@$$QBQAVDatarecorder@@AAV?$_Ph@$00@1@@Z 0041c0d0 f i datarecorder.obj
 0001:0001b0f0       ??$?0U?$_Pmf_wrap@P8Datarecorder@@AEXXZXV1@$$$V@std@@QAVDatarecorder@@@?$_Bind@$00XU?$_Pmf_wrap@P8Datarecorder@@AEXXZXV1@$$$V@std@@QAVDatarecorder@@@std@@QAE@$$QAU?$_Pmf_wrap@P8Datarecorder@@AEXXZXV1@$$$V@1@$$QBQAVDatarecorder@@@Z 0041c0f0 f i datarecorder.obj
 0001:0001b110       ??$?0U?$_Pmf_wrap@P8async_log_helper@details@spdlog@@AEXXZXV123@$$$V@std@@PAVasync_log_helper@details@spdlog@@@?$_Bind@$00XU?$_Pmf_wrap@P8async_log_helper@details@spdlog@@AEXXZXV123@$$$V@std@@PAVasync_log_helper@details@spdlog@@@std@@QAE@$$QAU?$_Pmf_wrap@P8async_log_helper@details@spdlog@@AEXXZXV123@$$$V@1@$$QAPAVasync_log_helper@details@spdlog@@@Z 0041c110 f i datarecorder.obj
 0001:0001b130       ??$?0U?$pair@$$CBV?$basic_string@DU?$char_traits@D@std@@V?$allocator@D@2@@std@@V?$shared_ptr@Vlogger@spdlog@@@2@@std@@@?$allocator@V?$_List_unchecked_iterator@V?$_List_val@U?$_List_simple_types@U?$pair@$$CBV?$basic_string@DU?$char_traits@D@std@@V?$allocator@D@2@@std@@V?$shared_ptr@Vlogger@spdlog@@@2@@std@@@std@@@std@@@std@@@std@@QAE@ABV?$allocator@U?$pair@$$CBV?$basic_string@DU?$char_traits@D@std@@V?$allocator@D@2@@std@@V?$shared_ptr@Vlogger@spdlog@@@2@@std@@@1@@Z 0041c130 f i datarecorder.obj
 0001:0001b140       ??$?0V<lambda_39bc3a8adb760765dcdc68c9b1844393>@@@?$_Callable_obj@V<lambda_39bc3a8adb760765dcdc68c9b1844393>@@$0A@@std@@QAE@$$QAV<lambda_39bc3a8adb760765dcdc68c9b1844393>@@@Z 0041c140 f i datarecorder.obj
 0001:0001b150       ??$?0V?$BasicStringRef@D@fmt@@UArg@internal@1@X@?$pair@V?$BasicStringRef@D@fmt@@UArg@internal@2@@std@@QAE@$$QAU01@@Z 0041c150 f i datarecorder.obj
 0001:0001b170       ??$?0V?$_Bind@$00XU?$_Pmf_wrap@P8Datarecorder@@AEXV?$shared_ptr@VEvent@@@std@@@ZXV1@V23@@std@@QAVDatarecorder@@AAV?$_Ph@$00@2@@std@@@?$_Callable_obj@V?$_Bind@$00XU?$_Pmf_wrap@P8Datarecorder@@AEXV?$shared_ptr@VEvent@@@std@@@ZXV1@V23@@std@@QAVDatarecorder@@AAV?$_Ph@$00@2@@std@@$0A@@std@@QAE@$$QAV?$_Bind@$00XU?$_Pmf_wrap@P8Datarecorder@@AEXV?$shared_ptr@VEvent@@@std@@@ZXV1@V23@@std@@QAVDatarecorder@@AAV?$_Ph@$00@2@@1@@Z 0041c170 f i datarecorder.obj
 0001:0001b190       ??$?0V?$_Bind@$00XU?$_Pmf_wrap@P8Datarecorder@@AEXV?$shared_ptr@VEvent@@@std@@@ZXV1@V23@@std@@QAVDatarecorder@@AAV?$_Ph@$00@2@@std@@@?$function@$$A6AXV?$shared_ptr@VEvent@@@std@@@Z@std@@QAE@$$QAV?$_Bind@$00XU?$_Pmf_wrap@P8Datarecorder@@AEXV?$shared_ptr@VEvent@@@std@@@ZXV1@V23@@std@@QAVDatarecorder@@AAV?$_Ph@$00@2@@1@@Z 0041c190 f i datarecorder.obj
 0001:0001b210       ??$?0V?$_Bind@$00XU?$_Pmf_wrap@P8Datarecorder@@AEXXZXV1@$$$V@std@@QAVDatarecorder@@@std@@@?$_Callable_obj@V?$_Bind@$00XU?$_Pmf_wrap@P8Datarecorder@@AEXXZXV1@$$$V@std@@QAVDatarecorder@@@std@@$0A@@std@@QAE@$$QAV?$_Bind@$00XU?$_Pmf_wrap@P8Datarecorder@@AEXXZXV1@$$$V@std@@QAVDatarecorder@@@1@@Z 0041c210 f i datarecorder.obj
 0001:0001b230       ??$?0V?$_Bind@$00XU?$_Pmf_wrap@P8Datarecorder@@AEXXZXV1@$$$V@std@@QAVDatarecorder@@@std@@@?$function@$$A6AXV?$shared_ptr@VEvent@@@std@@@Z@std@@QAE@$$QAV?$_Bind@$00XU?$_Pmf_wrap@P8Datarecorder@@AEXXZXV1@$$$V@std@@QAVDatarecorder@@@1@@Z 0041c230 f i datarecorder.obj
 0001:0001b290       ??$?0V?$_Bind@$00XU?$_Pmf_wrap@P8async_log_helper@details@spdlog@@AEXXZXV123@$$$V@std@@PAVasync_log_helper@details@spdlog@@@std@@@?$_LaunchPad@V?$_Bind@$00XU?$_Pmf_wrap@P8async_log_helper@details@spdlog@@AEXXZXV123@$$$V@std@@PAVasync_log_helper@details@spdlog@@@std@@@std@@QAE@$$QAV?$_Bind@$00XU?$_Pmf_wrap@P8async_log_helper@details@spdlog@@AEXXZXV123@$$$V@std@@PAVasync_log_helper@details@spdlog@@@1@@Z 0041c290 f i datarecorder.obj
 0001:0001b2c0       ??$?0V?$_Func_class@XABV?$basic_string@DU?$char_traits@D@std@@V?$allocator@D@2@@std@@@std@@@?$allocator@V?$_Func_impl@U?$_Callable_obj@V<lambda_39bc3a8adb760765dcdc68c9b1844393>@@$0A@@std@@V?$allocator@V?$_Func_class@XABV?$basic_string@DU?$char_traits@D@std@@V?$allocator@D@2@@std@@@std@@@2@XABV?$basic_string@DU?$char_traits@D@std@@V?$allocator@D@2@@2@@std@@@std@@QAE@ABV?$allocator@V?$_Func_class@XABV?$basic_string@DU?$char_traits@D@std@@V?$allocator@D@2@@std@@@std@@@1@@Z 0041c2c0 f i datarecorder.obj
 0001:0001b2d0       ??$?0V?$_Func_class@XV?$shared_ptr@VEvent@@@std@@@std@@@?$allocator@V?$_Func_impl@U?$_Callable_obj@V?$_Bind@$00XU?$_Pmf_wrap@P8Datarecorder@@AEXV?$shared_ptr@VEvent@@@std@@@ZXV1@V23@@std@@QAVDatarecorder@@AAV?$_Ph@$00@2@@std@@$0A@@std@@V?$allocator@V?$_Func_class@XV?$shared_ptr@VEvent@@@std@@@std@@@2@XV?$shared_ptr@VEvent@@@2@@std@@@std@@QAE@ABV?$allocator@V?$_Func_class@XV?$shared_ptr@VEvent@@@std@@@std@@@1@@Z 0041c2d0 f i datarecorder.obj
 0001:0001b2e0       ??$?0V?$_Func_class@XV?$shared_ptr@VEvent@@@std@@@std@@@?$allocator@V?$_Func_impl@U?$_Callable_obj@V?$_Bind@$00XU?$_Pmf_wrap@P8Datarecorder@@AEXXZXV1@$$$V@std@@QAVDatarecorder@@@std@@$0A@@std@@V?$allocator@V?$_Func_class@XV?$shared_ptr@VEvent@@@std@@@std@@@2@XV?$shared_ptr@VEvent@@@2@@std@@@std@@QAE@ABV?$allocator@V?$_Func_class@XV?$shared_ptr@VEvent@@@std@@@std@@@1@@Z 0041c2e0 f i datarecorder.obj
 0001:0001b2f0       ??$?0V?$_List_iterator@V?$_List_val@U?$_List_simple_types@U?$pair@$$CBV?$basic_string@DU?$char_traits@D@std@@V?$allocator@D@2@@std@@V?$shared_ptr@Vlogger@spdlog@@@2@@std@@@std@@@std@@@std@@_NX@?$pair@V?$_List_iterator@V?$_List_val@U?$_List_simple_types@U?$pair@$$CBV?$basic_string@DU?$char_traits@D@std@@V?$allocator@D@2@@std@@V?$shared_ptr@Vlogger@spdlog@@@2@@std@@@std@@@std@@@std@@_N@std@@QAE@$$QAV?$_List_iterator@V?$_List_val@U?$_List_simple_types@U?$pair@$$CBV?$basic_string@DU?$char_traits@D@std@@V?$allocator@D@2@@std@@V?$shared_ptr@Vlogger@spdlog@@@2@@std@@@std@@@std@@@1@$$QA_N@Z 0041c2f0 f i datarecorder.obj
 0001:0001b310       ??$?0V?$_Tree_iterator@V?$_Tree_val@U?$_Tree_simple_types@U?$pair@$$CBV?$basic_string@DU?$char_traits@D@std@@V?$allocator@D@2@@std@@H@std@@@std@@@std@@@std@@_NX@?$pair@V?$_Tree_iterator@V?$_Tree_val@U?$_Tree_simple_types@U?$pair@$$CBV?$basic_string@DU?$char_traits@D@std@@V?$allocator@D@2@@std@@H@std@@@std@@@std@@@std@@_N@std@@QAE@$$QAV?$_Tree_iterator@V?$_Tree_val@U?$_Tree_simple_types@U?$pair@$$CBV?$basic_string@DU?$char_traits@D@std@@V?$allocator@D@2@@std@@H@std@@@std@@@std@@@1@$$QA_N@Z 0041c310 f i datarecorder.obj
 0001:0001b330       ??$?0V?$_Tree_iterator@V?$_Tree_val@U?$_Tree_simple_types@U?$pair@$$CBV?$basic_string@DU?$char_traits@D@std@@V?$allocator@D@2@@std@@V?$shared_ptr@VEvent_Tick@@@2@@std@@@std@@@std@@@std@@_NX@?$pair@V?$_Tree_iterator@V?$_Tree_val@U?$_Tree_simple_types@U?$pair@$$CBV?$basic_string@DU?$char_traits@D@std@@V?$allocator@D@2@@std@@V?$shared_ptr@VEvent_Tick@@@2@@std@@@std@@@std@@@std@@_N@std@@QAE@$$QAV?$_Tree_iterator@V?$_Tree_val@U?$_Tree_simple_types@U?$pair@$$CBV?$basic_string@DU?$char_traits@D@std@@V?$allocator@D@2@@std@@V?$shared_ptr@VEvent_Tick@@@2@@std@@@std@@@std@@@1@$$QA_N@Z 0041c330 f i datarecorder.obj
 0001:0001b350       ??$?0V?$_Tree_iterator@V?$_Tree_val@U?$_Tree_simple_types@U?$pair@$$CBV?$basic_string@DU?$char_traits@D@std@@V?$allocator@D@2@@std@@VBarData@jsstructs@@@std@@@std@@@std@@@std@@_NX@?$pair@V?$_Tree_iterator@V?$_Tree_val@U?$_Tree_simple_types@U?$pair@$$CBV?$basic_string@DU?$char_traits@D@std@@V?$allocator@D@2@@std@@VBarData@jsstructs@@@std@@@std@@@std@@@std@@_N@std@@QAE@$$QAV?$_Tree_iterator@V?$_Tree_val@U?$_Tree_simple_types@U?$pair@$$CBV?$basic_string@DU?$char_traits@D@std@@V?$allocator@D@2@@std@@VBarData@jsstructs@@@std@@@std@@@std@@@1@$$QA_N@Z 0041c350 f i datarecorder.obj
 0001:0001b370       ??$?0V?$_Tree_iterator@V?$_Tree_val@U?$_Tree_simple_types@U?$pair@$$CBV?$basic_string@DU?$char_traits@D@std@@V?$allocator@D@2@@std@@_J@std@@@std@@@std@@@std@@_NX@?$pair@V?$_Tree_iterator@V?$_Tree_val@U?$_Tree_simple_types@U?$pair@$$CBV?$basic_string@DU?$char_traits@D@std@@V?$allocator@D@2@@std@@_J@std@@@std@@@std@@@std@@_N@std@@QAE@$$QAV?$_Tree_iterator@V?$_Tree_val@U?$_Tree_simple_types@U?$pair@$$CBV?$basic_string@DU?$char_traits@D@std@@V?$allocator@D@2@@std@@_J@std@@@std@@@std@@@1@$$QA_N@Z 0041c370 f i datarecorder.obj
 0001:0001b390       ??$?0V?$allocator@U?$pair@$$CBV?$basic_string@DU?$char_traits@D@std@@V?$allocator@D@2@@std@@V?$shared_ptr@Vlogger@spdlog@@@2@@std@@@std@@@?$_Wrap_alloc@V?$allocator@V?$_List_unchecked_iterator@V?$_List_val@U?$_List_simple_types@U?$pair@$$CBV?$basic_string@DU?$char_traits@D@std@@V?$allocator@D@2@@std@@V?$shared_ptr@Vlogger@spdlog@@@2@@std@@@std@@@std@@@std@@@std@@@std@@QAE@ABV?$allocator@U?$pair@$$CBV?$basic_string@DU?$char_traits@D@std@@V?$allocator@D@2@@std@@V?$shared_ptr@Vlogger@spdlog@@@2@@std@@@1@@Z 0041c390 f i datarecorder.obj
 0001:0001b3a0       ??$?0V?$rotating_file_sink@Vmutex@std@@@sinks@spdlog@@@?$_Ptr_base@Vsink@sinks@spdlog@@@std@@QAE@$$QAV?$_Ptr_base@V?$rotating_file_sink@Vmutex@std@@@sinks@spdlog@@@1@@Z 0041c3a0 f i datarecorder.obj
 0001:0001b3d0       ??$?0V?$rotating_file_sink@Vmutex@std@@@sinks@spdlog@@X@?$shared_ptr@Vsink@sinks@spdlog@@@std@@QAE@$$QAV?$shared_ptr@V?$rotating_file_sink@Vmutex@std@@@sinks@spdlog@@@1@@Z 0041c3d0 f i datarecorder.obj
 0001:0001b400       ??$?0V?$tuple@ABV?$basic_string@DU?$char_traits@D@std@@V?$allocator@D@2@@std@@@std@@V?$tuple@$$$V@1@$0A@$S@?$pair@$$CBV?$basic_string@DU?$char_traits@D@std@@V?$allocator@D@2@@std@@H@std@@QAE@AAV?$tuple@ABV?$basic_string@DU?$char_traits@D@std@@V?$allocator@D@2@@std@@@1@AAV?$tuple@$$$V@1@U?$_Arg_idx@$0A@@1@U?$_Arg_idx@$S@1@@Z 0041c400 f i datarecorder.obj
 0001:0001b440       ??$?0V?$tuple@ABV?$basic_string@DU?$char_traits@D@std@@V?$allocator@D@2@@std@@@std@@V?$tuple@$$$V@1@$0A@$S@?$pair@$$CBV?$basic_string@DU?$char_traits@D@std@@V?$allocator@D@2@@std@@V?$shared_ptr@VEvent_Tick@@@2@@std@@QAE@AAV?$tuple@ABV?$basic_string@DU?$char_traits@D@std@@V?$allocator@D@2@@std@@@1@AAV?$tuple@$$$V@1@U?$_Arg_idx@$0A@@1@U?$_Arg_idx@$S@1@@Z 0041c440 f i datarecorder.obj
 0001:0001b480       ??$?0V?$tuple@ABV?$basic_string@DU?$char_traits@D@std@@V?$allocator@D@2@@std@@@std@@V?$tuple@$$$V@1@$0A@$S@?$pair@$$CBV?$basic_string@DU?$char_traits@D@std@@V?$allocator@D@2@@std@@V?$shared_ptr@Vlogger@spdlog@@@2@@std@@QAE@AAV?$tuple@ABV?$basic_string@DU?$char_traits@D@std@@V?$allocator@D@2@@std@@@1@AAV?$tuple@$$$V@1@U?$_Arg_idx@$0A@@1@U?$_Arg_idx@$S@1@@Z 0041c480 f i datarecorder.obj
 0001:0001b4c0       ??$?0V?$tuple@ABV?$basic_string@DU?$char_traits@D@std@@V?$allocator@D@2@@std@@@std@@V?$tuple@$$$V@1@$0A@$S@?$pair@$$CBV?$basic_string@DU?$char_traits@D@std@@V?$allocator@D@2@@std@@VBarData@jsstructs@@@std@@QAE@AAV?$tuple@ABV?$basic_string@DU?$char_traits@D@std@@V?$allocator@D@2@@std@@@1@AAV?$tuple@$$$V@1@U?$_Arg_idx@$0A@@1@U?$_Arg_idx@$S@1@@Z 0041c4c0 f i datarecorder.obj
 0001:0001b500       ??$?0V?$tuple@ABV?$basic_string@DU?$char_traits@D@std@@V?$allocator@D@2@@std@@@std@@V?$tuple@$$$V@1@$0A@$S@?$pair@$$CBV?$basic_string@DU?$char_traits@D@std@@V?$allocator@D@2@@std@@_J@std@@QAE@AAV?$tuple@ABV?$basic_string@DU?$char_traits@D@std@@V?$allocator@D@2@@std@@@1@AAV?$tuple@$$$V@1@U?$_Arg_idx@$0A@@1@U?$_Arg_idx@$S@1@@Z 0041c500 f i datarecorder.obj
 0001:0001b540       ??$?0VEvent@@@?$shared_ptr@VEvent_Log@@@std@@QAE@ABV?$shared_ptr@VEvent@@@1@ABU_Static_tag@1@@Z 0041c540 f i datarecorder.obj
 0001:0001b570       ??$?0VEvent@@@?$shared_ptr@VEvent_Tick@@@std@@QAE@ABV?$shared_ptr@VEvent@@@1@ABU_Static_tag@1@@Z 0041c570 f i datarecorder.obj
 0001:0001b5a0       ??$?0Vaggregate_formatter@details@spdlog@@U?$default_delete@Vaggregate_formatter@details@spdlog@@@std@@X@?$unique_ptr@Vflag_formatter@details@spdlog@@U?$default_delete@Vflag_formatter@details@spdlog@@@std@@@std@@QAE@$$QAV?$unique_ptr@Vaggregate_formatter@details@spdlog@@U?$default_delete@Vaggregate_formatter@details@spdlog@@@std@@@1@@Z 0041c5a0 f i datarecorder.obj
 0001:0001b5c0       ??$?0Vaggregate_formatter@details@spdlog@@X@?$default_delete@Vflag_formatter@details@spdlog@@@std@@QAE@ABU?$default_delete@Vaggregate_formatter@details@spdlog@@@1@@Z 0041c5c0 f i datarecorder.obj
 0001:0001b5d0       ??$?0Vasync_logger@spdlog@@@?$_Ptr_base@Vlogger@spdlog@@@std@@QAE@$$QAV?$_Ptr_base@Vasync_logger@spdlog@@@1@@Z 0041c5d0 f i datarecorder.obj
 0001:0001b600       ??$?0Vasync_logger@spdlog@@X@?$shared_ptr@Vlogger@spdlog@@@std@@QAE@$$QAV?$shared_ptr@Vasync_logger@spdlog@@@1@@Z 0041c600 f i datarecorder.obj
 0001:0001b630       ??$?0Vpattern_formatter@spdlog@@@?$_Ptr_base@Vformatter@spdlog@@@std@@QAE@$$QAV?$_Ptr_base@Vpattern_formatter@spdlog@@@1@@Z 0041c630 f i datarecorder.obj
 0001:0001b660       ??$?0Vpattern_formatter@spdlog@@X@?$shared_ptr@Vformatter@spdlog@@@std@@QAE@$$QAV?$shared_ptr@Vpattern_formatter@spdlog@@@1@@Z 0041c660 f i datarecorder.obj
 0001:0001b690       ??$?0_JU?$ratio@$00$00@std@@X@?$duration@_JU?$ratio@$00$0DLJKMKAA@@std@@@chrono@std@@QAE@ABV?$duration@_JU?$ratio@$00$00@std@@@12@@Z 0041c690 f i datarecorder.obj
 0001:0001b6c0       ??$?0_JU?$ratio@$00$00@std@@X@?$duration@_JU?$ratio@$00$0JIJGIA@@std@@@chrono@std@@QAE@ABV?$duration@_JU?$ratio@$00$00@std@@@12@@Z 0041c6c0 f i datarecorder.obj
 0001:0001b6f0       ??$?0_JU?$ratio@$00$0DOI@@std@@X@?$duration@_JU?$ratio@$00$0DLJKMKAA@@std@@@chrono@std@@QAE@ABV?$duration@_JU?$ratio@$00$0DOI@@std@@@12@@Z 0041c6f0 f i datarecorder.obj
 0001:0001b720       ??$?0_JU?$ratio@$00$0DOI@@std@@X@?$duration@_JU?$ratio@$00$0JIJGIA@@std@@@chrono@std@@QAE@ABV?$duration@_JU?$ratio@$00$0DOI@@std@@@12@@Z 0041c720 f i datarecorder.obj
 0001:0001b750       ??$?0_JU?$ratio@$00$0JIJGIA@@std@@X@?$duration@_JU?$ratio@$00$0DLJKMKAA@@std@@@chrono@std@@QAE@ABV?$duration@_JU?$ratio@$00$0JIJGIA@@std@@@12@@Z 0041c750 f i datarecorder.obj
 0001:0001b780       ??$?0_JU?$ratio@$00$0PECEA@@std@@X@?$duration@_JU?$ratio@$00$0JIJGIA@@std@@@chrono@std@@QAE@ABV?$duration@_JU?$ratio@$00$0PECEA@@std@@@12@@Z 0041c780 f i datarecorder.obj
 0001:0001b7c0       ??$?0_JX@?$duration@_JU?$ratio@$00$00@std@@@chrono@std@@QAE@AB_J@Z 0041c7c0 f i datarecorder.obj
 0001:0001b7e0       ??$?0_JX@?$duration@_JU?$ratio@$00$0DLJKMKAA@@std@@@chrono@std@@QAE@AB_J@Z 0041c7e0 f i datarecorder.obj
 0001:0001b800       ??$?0_JX@?$duration@_JU?$ratio@$00$0PECEA@@std@@@chrono@std@@QAE@AB_J@Z 0041c800 f i datarecorder.obj
 0001:0001b820       ??$?4V<lambda_39bc3a8adb760765dcdc68c9b1844393>@@@?$function@$$A6AXABV?$basic_string@DU?$char_traits@D@std@@V?$allocator@D@2@@std@@@Z@std@@QAEAAV01@$$QAV<lambda_39bc3a8adb760765dcdc68c9b1844393>@@@Z 0041c820 f i datarecorder.obj
 0001:0001b860       ??$?4Vasync_logger@spdlog@@@?$shared_ptr@Vlogger@spdlog@@@std@@QAEAAV01@$$QAV?$shared_ptr@Vasync_logger@spdlog@@@1@@Z 0041c860 f i datarecorder.obj
 0001:0001b8c0       ??$?4Vpattern_formatter@spdlog@@@?$shared_ptr@Vformatter@spdlog@@@std@@QAEAAV01@$$QAV?$shared_ptr@Vpattern_formatter@spdlog@@@1@@Z 0041c8c0 f i datarecorder.obj
 0001:0001b920       ??$?6DU?$char_traits@D@std@@V?$allocator@D@1@@std@@YAAAV?$basic_ostream@DU?$char_traits@D@std@@@0@AAV10@ABV?$basic_string@DU?$char_traits@D@std@@V?$allocator@D@2@@0@@Z 0041c920 f i datarecorder.obj
 0001:0001bb10       ??$?6HU?$AlignTypeSpec@$0A@@fmt@@D@?$BasicWriter@D@fmt@@QAEAAV01@V?$IntFormatSpec@HU?$AlignTypeSpec@$0A@@fmt@@D@1@@Z 0041cb10 f i datarecorder.obj
 0001:0001bba0       ??$?6IU?$AlignTypeSpec@$0A@@fmt@@D@?$BasicWriter@D@fmt@@QAEAAV01@V?$IntFormatSpec@IU?$AlignTypeSpec@$0A@@fmt@@D@1@@Z 0041cba0 f i datarecorder.obj
 0001:0001bc20       ??$?6IU?$TypeSpec@$0A@@fmt@@D@?$BasicWriter@D@fmt@@QAEAAV01@V?$IntFormatSpec@IU?$TypeSpec@$0A@@fmt@@D@1@@Z 0041cc20 f i datarecorder.obj
 0001:0001bc90       ??$?8DU?$char_traits@D@std@@V?$allocator@D@1@@std@@YA_NABV?$basic_string@DU?$char_traits@D@std@@V?$allocator@D@2@@0@PBD@Z 0041cc90 f i datarecorder.obj
 0001:0001bcd0       ??$?8V?$_Vector_iterator@V?$_Vector_val@U?$_Simple_types@V?$basic_string@DU?$char_traits@D@std@@V?$allocator@D@2@@std@@@std@@@std@@@std@@V01@@std@@YA_NABV?$move_iterator@V?$_Vector_iterator@V?$_Vector_val@U?$_Simple_types@V?$basic_string@DU?$char_traits@D@std@@V?$allocator@D@2@@std@@@std@@@std@@@std@@@0@0@Z 0041ccd0 f i datarecorder.obj
 0001:0001bcf0       ??$?8V?$basic_string@DU?$char_traits@D@std@@V?$allocator@D@2@@std@@V01@@std@@YA_NABV?$allocator@V?$basic_string@DU?$char_traits@D@std@@V?$allocator@D@2@@std@@@0@0@Z 0041ccf0 f i datarecorder.obj
 0001:0001bd00       ??$?8_JU?$ratio@$00$0DOI@@std@@_JU01@@chrono@std@@YA_NABV?$duration@_JU?$ratio@$00$0DOI@@std@@@01@0@Z 0041cd00 f i datarecorder.obj
 0001:0001bd20       ??$?9DD@std@@YA_NABV?$allocator@D@0@0@Z 0041cd20 f i datarecorder.obj
 0001:0001bd30       ??$?9V?$_Vector_iterator@V?$_Vector_val@U?$_Simple_types@V?$basic_string@DU?$char_traits@D@std@@V?$allocator@D@2@@std@@@std@@@std@@@std@@V01@@std@@YA_NABV?$move_iterator@V?$_Vector_iterator@V?$_Vector_val@U?$_Simple_types@V?$basic_string@DU?$char_traits@D@std@@V?$allocator@D@2@@std@@@std@@@std@@@std@@@0@0@Z 0041cd30 f i datarecorder.obj
 0001:0001bd50       ??$?9_JU?$ratio@$00$0DOI@@std@@_JU01@@chrono@std@@YA_NABV?$duration@_JU?$ratio@$00$0DOI@@std@@@01@0@Z 0041cd50 f i datarecorder.obj
 0001:0001bd80       ??$?GUsystem_clock@chrono@std@@V?$duration@_JU?$ratio@$00$0JIJGIA@@std@@@12@V312@@chrono@std@@YA?AV?$duration@_JU?$ratio@$00$0JIJGIA@@std@@@01@ABV?$time_point@Usystem_clock@chrono@std@@V?$duration@_JU?$ratio@$00$0JIJGIA@@std@@@23@@01@0@Z 0041cd80 f i datarecorder.obj
 0001:0001bdb0       ??$?GV?$_Vector_iterator@V?$_Vector_val@U?$_Simple_types@V?$basic_string@DU?$char_traits@D@std@@V?$allocator@D@2@@std@@@std@@@std@@@std@@V01@@std@@YAHAAV?$move_iterator@V?$_Vector_iterator@V?$_Vector_val@U?$_Simple_types@V?$basic_string@DU?$char_traits@D@std@@V?$allocator@D@2@@std@@@std@@@std@@@std@@@0@ABV10@@Z 0041cdb0 f i datarecorder.obj
 0001:0001bdd0       ??$?G_JU?$ratio@$00$0JIJGIA@@std@@_JU01@@chrono@std@@YA?AV?$duration@_JU?$ratio@$00$0JIJGIA@@std@@@01@ABV201@0@Z 0041cdd0 f i datarecorder.obj
 0001:0001bdf0       ??$?M_JU?$ratio@$00$0DOI@@std@@_JU01@@chrono@std@@YA_NABV?$duration@_JU?$ratio@$00$0DOI@@std@@@01@0@Z 0041cdf0 f i datarecorder.obj
 0001:0001be20       ??$?M_JU?$ratio@$00$0DOI@@std@@_JU?$ratio@$00$0JIJGIA@@1@@chrono@std@@YA_NABV?$duration@_JU?$ratio@$00$0DOI@@std@@@01@ABV?$duration@_JU?$ratio@$00$0JIJGIA@@std@@@01@@Z 0041ce20 f i datarecorder.obj
 0001:0001be60       ??$?M_JU?$ratio@$00$0JIJGIA@@std@@_JU?$ratio@$00$00@1@@chrono@std@@YA_NABV?$duration@_JU?$ratio@$00$0JIJGIA@@std@@@01@ABV?$duration@_JU?$ratio@$00$00@std@@@01@@Z 0041ce60 f i datarecorder.obj
 0001:0001bea0       ??$?M_JU?$ratio@$00$0JIJGIA@@std@@_JU?$ratio@$00$0DOI@@1@@chrono@std@@YA_NABV?$duration@_JU?$ratio@$00$0JIJGIA@@std@@@01@ABV?$duration@_JU?$ratio@$00$0DOI@@std@@@01@@Z 0041cea0 f i datarecorder.obj
 0001:0001bee0       ??$?M_JU?$ratio@$00$0PECEA@@std@@_JU?$ratio@$00$0JIJGIA@@1@@chrono@std@@YA_NABV?$duration@_JU?$ratio@$00$0PECEA@@std@@@01@ABV?$duration@_JU?$ratio@$00$0JIJGIA@@std@@@01@@Z 0041cee0 f i datarecorder.obj
 0001:0001bf30       ??$?N_JU?$ratio@$00$0DOI@@std@@_JU01@@chrono@std@@YA_NABV?$duration@_JU?$ratio@$00$0DOI@@std@@@01@0@Z 0041cf30 f i datarecorder.obj
 0001:0001bf70       ??$?N_JU?$ratio@$00$0JIJGIA@@std@@_JU?$ratio@$00$0DOI@@1@@chrono@std@@YA_NABV?$duration@_JU?$ratio@$00$0JIJGIA@@std@@@01@ABV?$duration@_JU?$ratio@$00$0DOI@@std@@@01@@Z 0041cf70 f i datarecorder.obj
 0001:0001bfc0       ??$?N_JU?$ratio@$00$0JIJGIA@@std@@_JU?$ratio@$00$0PECEA@@1@@chrono@std@@YA_NABV?$duration@_JU?$ratio@$00$0JIJGIA@@std@@@01@ABV?$duration@_JU?$ratio@$00$0PECEA@@std@@@01@@Z 0041cfc0 f i datarecorder.obj
 0001:0001c020       ??$?P_JU?$ratio@$00$0JIJGIA@@std@@_JU?$ratio@$00$00@1@@chrono@std@@YA_NABV?$duration@_JU?$ratio@$00$0JIJGIA@@std@@@01@ABV?$duration@_JU?$ratio@$00$00@std@@@01@@Z 0041d020 f i datarecorder.obj
 0001:0001c070       ??$?P_JU?$ratio@$00$0JIJGIA@@std@@_JU?$ratio@$00$0DOI@@1@@chrono@std@@YA_NABV?$duration@_JU?$ratio@$00$0JIJGIA@@std@@@01@ABV?$duration@_JU?$ratio@$00$0DOI@@std@@@01@@Z 0041d070 f i datarecorder.obj
 0001:0001c0c0       ??$?R$$$V@?$_Bind@$00XU?$_Pmf_wrap@P8async_log_helper@details@spdlog@@AEXXZXV123@$$$V@std@@PAVasync_log_helper@details@spdlog@@@std@@QAEXXZ 0041d0c0 f i datarecorder.obj
 0001:0001c0d0       ??$?RD@ThousandsSep@internal@fmt@@QAEXAAPAD@Z 0041d0d0 f i datarecorder.obj
 0001:0001c120       ??$?RV?$shared_ptr@VEvent@@@std@@@?$_Bind@$00XU?$_Pmf_wrap@P8Datarecorder@@AEXV?$shared_ptr@VEvent@@@std@@@ZXV1@V23@@std@@QAVDatarecorder@@AAV?$_Ph@$00@2@@std@@QAEX$$QAV?$shared_ptr@VEvent@@@1@@Z 0041d120 f i datarecorder.obj
 0001:0001c160       ??$?RV?$shared_ptr@VEvent@@@std@@@?$_Bind@$00XU?$_Pmf_wrap@P8Datarecorder@@AEXXZXV1@$$$V@std@@QAVDatarecorder@@@std@@QAEX$$QAV?$shared_ptr@VEvent@@@1@@Z 0041d160 f i datarecorder.obj
 0001:0001c170       ??$_Allocate@U?$_List_node@U?$pair@$$CBV?$basic_string@DU?$char_traits@D@std@@V?$allocator@D@2@@std@@V?$shared_ptr@Vlogger@spdlog@@@2@@std@@PAX@std@@@std@@YAPAU?$_List_node@U?$pair@$$CBV?$basic_string@DU?$char_traits@D@std@@V?$allocator@D@2@@std@@V?$shared_ptr@Vlogger@spdlog@@@2@@std@@PAX@0@IPAU10@@Z 0041d170 f i datarecorder.obj
 0001:0001c1b0       ??$_Allocate@U?$_Tree_node@U?$pair@$$CBV?$basic_string@DU?$char_traits@D@std@@V?$allocator@D@2@@std@@H@std@@PAX@std@@@std@@YAPAU?$_Tree_node@U?$pair@$$CBV?$basic_string@DU?$char_traits@D@std@@V?$allocator@D@2@@std@@H@std@@PAX@0@IPAU10@@Z 0041d1b0 f i datarecorder.obj
 0001:0001c1e0       ??$_Allocate@U?$_Tree_node@U?$pair@$$CBV?$basic_string@DU?$char_traits@D@std@@V?$allocator@D@2@@std@@V?$shared_ptr@VEvent_Tick@@@2@@std@@PAX@std@@@std@@YAPAU?$_Tree_node@U?$pair@$$CBV?$basic_string@DU?$char_traits@D@std@@V?$allocator@D@2@@std@@V?$shared_ptr@VEvent_Tick@@@2@@std@@PAX@0@IPAU10@@Z 0041d1e0 f i datarecorder.obj
 0001:0001c220       ??$_Allocate@U?$_Tree_node@U?$pair@$$CBV?$basic_string@DU?$char_traits@D@std@@V?$allocator@D@2@@std@@VBarData@jsstructs@@@std@@PAX@std@@@std@@YAPAU?$_Tree_node@U?$pair@$$CBV?$basic_string@DU?$char_traits@D@std@@V?$allocator@D@2@@std@@VBarData@jsstructs@@@std@@PAX@0@IPAU10@@Z 0041d220 f i datarecorder.obj
 0001:0001c260       ??$_Allocate@U?$_Tree_node@U?$pair@$$CBV?$basic_string@DU?$char_traits@D@std@@V?$allocator@D@2@@std@@_J@std@@PAX@std@@@std@@YAPAU?$_Tree_node@U?$pair@$$CBV?$basic_string@DU?$char_traits@D@std@@V?$allocator@D@2@@std@@_J@std@@PAX@0@IPAU10@@Z 0041d260 f i datarecorder.obj
 0001:0001c2a0       ??$_Allocate@U?$pair@V?$BasicStringRef@D@fmt@@UArg@internal@2@@std@@@std@@YAPAU?$pair@V?$BasicStringRef@D@fmt@@UArg@internal@2@@0@IPAU10@@Z 0041d2a0 f i datarecorder.obj
 0001:0001c2e0       ??$_Allocate@V?$_Func_impl@U?$_Callable_obj@V<lambda_39bc3a8adb760765dcdc68c9b1844393>@@$0A@@std@@V?$allocator@V?$_Func_class@XABV?$basic_string@DU?$char_traits@D@std@@V?$allocator@D@2@@std@@@std@@@2@XABV?$basic_string@DU?$char_traits@D@std@@V?$allocator@D@2@@2@@std@@@std@@YAPAV?$_Func_impl@U?$_Callable_obj@V<lambda_39bc3a8adb760765dcdc68c9b1844393>@@$0A@@std@@V?$allocator@V?$_Func_class@XABV?$basic_string@DU?$char_traits@D@std@@V?$allocator@D@2@@std@@@std@@@2@XABV?$basic_string@DU?$char_traits@D@std@@V?$allocator@D@2@@2@@0@IPAV10@@Z 0041d2e0 f i datarecorder.obj
 0001:0001c320       ??$_Allocate@V?$_Func_impl@U?$_Callable_obj@V?$_Bind@$00XU?$_Pmf_wrap@P8Datarecorder@@AEXV?$shared_ptr@VEvent@@@std@@@ZXV1@V23@@std@@QAVDatarecorder@@AAV?$_Ph@$00@2@@std@@$0A@@std@@V?$allocator@V?$_Func_class@XV?$shared_ptr@VEvent@@@std@@@std@@@2@XV?$shared_ptr@VEvent@@@2@@std@@@std@@YAPAV?$_Func_impl@U?$_Callable_obj@V?$_Bind@$00XU?$_Pmf_wrap@P8Datarecorder@@AEXV?$shared_ptr@VEvent@@@std@@@ZXV1@V23@@std@@QAVDatarecorder@@AAV?$_Ph@$00@2@@std@@$0A@@std@@V?$allocator@V?$_Func_class@XV?$shared_ptr@VEvent@@@std@@@std@@@2@XV?$shared_ptr@VEvent@@@2@@0@IPAV10@@Z 0041d320 f i datarecorder.obj
 0001:0001c360       ??$_Allocate@V?$_Func_impl@U?$_Callable_obj@V?$_Bind@$00XU?$_Pmf_wrap@P8Datarecorder@@AEXXZXV1@$$$V@std@@QAVDatarecorder@@@std@@$0A@@std@@V?$allocator@V?$_Func_class@XV?$shared_ptr@VEvent@@@std@@@std@@@2@XV?$shared_ptr@VEvent@@@2@@std@@@std@@YAPAV?$_Func_impl@U?$_Callable_obj@V?$_Bind@$00XU?$_Pmf_wrap@P8Datarecorder@@AEXXZXV1@$$$V@std@@QAVDatarecorder@@@std@@$0A@@std@@V?$allocator@V?$_Func_class@XV?$shared_ptr@VEvent@@@std@@@std@@@2@XV?$shared_ptr@VEvent@@@2@@0@IPAV10@@Z 0041d360 f i datarecorder.obj
 0001:0001c390       ??$_Allocate@V?$_List_unchecked_iterator@V?$_List_val@U?$_List_simple_types@U?$pair@$$CBV?$basic_string@DU?$char_traits@D@std@@V?$allocator@D@2@@std@@V?$shared_ptr@Vlogger@spdlog@@@2@@std@@@std@@@std@@@std@@@std@@YAPAV?$_List_unchecked_iterator@V?$_List_val@U?$_List_simple_types@U?$pair@$$CBV?$basic_string@DU?$char_traits@D@std@@V?$allocator@D@2@@std@@V?$shared_ptr@Vlogger@spdlog@@@2@@std@@@std@@@std@@@0@IPAV10@@Z 0041d390 f i datarecorder.obj
 0001:0001c3c0       ??$_Allocate@V?$shared_ptr@Vsink@sinks@spdlog@@@std@@@std@@YAPAV?$shared_ptr@Vsink@sinks@spdlog@@@0@IPAV10@@Z 0041d3c0 f i datarecorder.obj
 0001:0001c3f0       ??$_Allocate@V?$unique_ptr@Vflag_formatter@details@spdlog@@U?$default_delete@Vflag_formatter@details@spdlog@@@std@@@std@@@std@@YAPAV?$unique_ptr@Vflag_formatter@details@spdlog@@U?$default_delete@Vflag_formatter@details@spdlog@@@std@@@0@IPAV10@@Z 0041d3f0 f i datarecorder.obj
 0001:0001c420       ??$_ApplyX@XABV?$basic_string@DU?$char_traits@D@std@@V?$allocator@D@2@@std@@@?$_Callable_obj@V<lambda_39bc3a8adb760765dcdc68c9b1844393>@@$0A@@std@@QAEXABV?$basic_string@DU?$char_traits@D@std@@V?$allocator@D@2@@1@@Z 0041d420 f i datarecorder.obj
 0001:0001c430       ??$_ApplyX@XV?$shared_ptr@VEvent@@@std@@@?$_Callable_obj@V?$_Bind@$00XU?$_Pmf_wrap@P8Datarecorder@@AEXV?$shared_ptr@VEvent@@@std@@@ZXV1@V23@@std@@QAVDatarecorder@@AAV?$_Ph@$00@2@@std@@$0A@@std@@QAEX$$QAV?$shared_ptr@VEvent@@@1@@Z 0041d430 f i datarecorder.obj
 0001:0001c470       ??$_ApplyX@XV?$shared_ptr@VEvent@@@std@@@?$_Callable_obj@V?$_Bind@$00XU?$_Pmf_wrap@P8Datarecorder@@AEXXZXV1@$$$V@std@@QAVDatarecorder@@@std@@$0A@@std@@QAEX$$QAV?$shared_ptr@VEvent@@@1@@Z 0041d470 f i datarecorder.obj
 0001:0001c480       ??$_Buynode@ABUpiecewise_construct_t@std@@V?$tuple@ABV?$basic_string@DU?$char_traits@D@std@@V?$allocator@D@2@@std@@@2@V?$tuple@$$$V@2@@?$_List_buy@U?$pair@$$CBV?$basic_string@DU?$char_traits@D@std@@V?$allocator@D@2@@std@@V?$shared_ptr@Vlogger@spdlog@@@2@@std@@V?$allocator@U?$pair@$$CBV?$basic_string@DU?$char_traits@D@std@@V?$allocator@D@2@@std@@V?$shared_ptr@Vlogger@spdlog@@@2@@std@@@2@@std@@QAEPAU?$_List_node@U?$pair@$$CBV?$basic_string@DU?$char_traits@D@std@@V?$allocator@D@2@@std@@V?$shared_ptr@Vlogger@spdlog@@@2@@std@@PAX@1@PAU21@0ABUpiecewise_construct_t@1@$$QAV?$tuple@ABV?$basic_string@DU?$char_traits@D@std@@V?$allocator@D@2@@std@@@1@$$QAV?$tuple@$$$V@1@@Z 0041d480 f i datarecorder.obj
 0001:0001c530       ??$_Buynode@ABUpiecewise_construct_t@std@@V?$tuple@ABV?$basic_string@DU?$char_traits@D@std@@V?$allocator@D@2@@std@@@2@V?$tuple@$$$V@2@@?$_Tree_buy@U?$pair@$$CBV?$basic_string@DU?$char_traits@D@std@@V?$allocator@D@2@@std@@H@std@@V?$allocator@U?$pair@$$CBV?$basic_string@DU?$char_traits@D@std@@V?$allocator@D@2@@std@@H@std@@@2@@std@@QAEPAU?$_Tree_node@U?$pair@$$CBV?$basic_string@DU?$char_traits@D@std@@V?$allocator@D@2@@std@@H@std@@PAX@1@ABUpiecewise_construct_t@1@$$QAV?$tuple@ABV?$basic_string@DU?$char_traits@D@std@@V?$allocator@D@2@@std@@@1@$$QAV?$tuple@$$$V@1@@Z 0041d530 f i datarecorder.obj
 0001:0001c5e0       ??$_Buynode@ABUpiecewise_construct_t@std@@V?$tuple@ABV?$basic_string@DU?$char_traits@D@std@@V?$allocator@D@2@@std@@@2@V?$tuple@$$$V@2@@?$_Tree_buy@U?$pair@$$CBV?$basic_string@DU?$char_traits@D@std@@V?$allocator@D@2@@std@@V?$shared_ptr@VEvent_Tick@@@2@@std@@V?$allocator@U?$pair@$$CBV?$basic_string@DU?$char_traits@D@std@@V?$allocator@D@2@@std@@V?$shared_ptr@VEvent_Tick@@@2@@std@@@2@@std@@QAEPAU?$_Tree_node@U?$pair@$$CBV?$basic_string@DU?$char_traits@D@std@@V?$allocator@D@2@@std@@V?$shared_ptr@VEvent_Tick@@@2@@std@@PAX@1@ABUpiecewise_construct_t@1@$$QAV?$tuple@ABV?$basic_string@DU?$char_traits@D@std@@V?$allocator@D@2@@std@@@1@$$QAV?$tuple@$$$V@1@@Z 0041d5e0 f i datarecorder.obj
 0001:0001c690       ??$_Buynode@ABUpiecewise_construct_t@std@@V?$tuple@ABV?$basic_string@DU?$char_traits@D@std@@V?$allocator@D@2@@std@@@2@V?$tuple@$$$V@2@@?$_Tree_buy@U?$pair@$$CBV?$basic_string@DU?$char_traits@D@std@@V?$allocator@D@2@@std@@VBarData@jsstructs@@@std@@V?$allocator@U?$pair@$$CBV?$basic_string@DU?$char_traits@D@std@@V?$allocator@D@2@@std@@VBarData@jsstructs@@@std@@@2@@std@@QAEPAU?$_Tree_node@U?$pair@$$CBV?$basic_string@DU?$char_traits@D@std@@V?$allocator@D@2@@std@@VBarData@jsstructs@@@std@@PAX@1@ABUpiecewise_construct_t@1@$$QAV?$tuple@ABV?$basic_string@DU?$char_traits@D@std@@V?$allocator@D@2@@std@@@1@$$QAV?$tuple@$$$V@1@@Z 0041d690 f i datarecorder.obj
 0001:0001c740       ??$_Buynode@ABUpiecewise_construct_t@std@@V?$tuple@ABV?$basic_string@DU?$char_traits@D@std@@V?$allocator@D@2@@std@@@2@V?$tuple@$$$V@2@@?$_Tree_buy@U?$pair@$$CBV?$basic_string@DU?$char_traits@D@std@@V?$allocator@D@2@@std@@_J@std@@V?$allocator@U?$pair@$$CBV?$basic_string@DU?$char_traits@D@std@@V?$allocator@D@2@@std@@_J@std@@@2@@std@@QAEPAU?$_Tree_node@U?$pair@$$CBV?$basic_string@DU?$char_traits@D@std@@V?$allocator@D@2@@std@@_J@std@@PAX@1@ABUpiecewise_construct_t@1@$$QAV?$tuple@ABV?$basic_string@DU?$char_traits@D@std@@V?$allocator@D@2@@std@@@1@$$QAV?$tuple@$$$V@1@@Z 0041d740 f i datarecorder.obj
 0001:0001c7f0       ??$_Buynode_if_nil@AAU?$pair@$$CBV?$basic_string@DU?$char_traits@D@std@@V?$allocator@D@2@@std@@H@std@@@?$_Tree@V?$_Tmap_traits@V?$basic_string@DU?$char_traits@D@std@@V?$allocator@D@2@@std@@HU?$less@V?$basic_string@DU?$char_traits@D@std@@V?$allocator@D@2@@std@@@2@V?$allocator@U?$pair@$$CBV?$basic_string@DU?$char_traits@D@std@@V?$allocator@D@2@@std@@H@std@@@2@$0A@@std@@@std@@IAEPAU?$_Tree_node@U?$pair@$$CBV?$basic_string@DU?$char_traits@D@std@@V?$allocator@D@2@@std@@H@std@@PAX@1@PAU21@AAU?$pair@$$CBV?$basic_string@DU?$char_traits@D@std@@V?$allocator@D@2@@std@@H@1@@Z 0041d7f0 f i datarecorder.obj
 0001:0001c800       ??$_Buynode_if_nil@AAU?$pair@$$CBV?$basic_string@DU?$char_traits@D@std@@V?$allocator@D@2@@std@@V?$shared_ptr@VEvent_Tick@@@2@@std@@@?$_Tree@V?$_Tmap_traits@V?$basic_string@DU?$char_traits@D@std@@V?$allocator@D@2@@std@@V?$shared_ptr@VEvent_Tick@@@2@U?$less@V?$basic_string@DU?$char_traits@D@std@@V?$allocator@D@2@@std@@@2@V?$allocator@U?$pair@$$CBV?$basic_string@DU?$char_traits@D@std@@V?$allocator@D@2@@std@@V?$shared_ptr@VEvent_Tick@@@2@@std@@@2@$0A@@std@@@std@@IAEPAU?$_Tree_node@U?$pair@$$CBV?$basic_string@DU?$char_traits@D@std@@V?$allocator@D@2@@std@@V?$shared_ptr@VEvent_Tick@@@2@@std@@PAX@1@PAU21@AAU?$pair@$$CBV?$basic_string@DU?$char_traits@D@std@@V?$allocator@D@2@@std@@V?$shared_ptr@VEvent_Tick@@@2@@1@@Z 0041d800 f i datarecorder.obj
 0001:0001c810       ??$_Buynode_if_nil@AAU?$pair@$$CBV?$basic_string@DU?$char_traits@D@std@@V?$allocator@D@2@@std@@V?$shared_ptr@Vlogger@spdlog@@@2@@std@@@?$_Hash@V?$_Umap_traits@V?$basic_string@DU?$char_traits@D@std@@V?$allocator@D@2@@std@@V?$shared_ptr@Vlogger@spdlog@@@2@V?$_Uhash_compare@V?$basic_string@DU?$char_traits@D@std@@V?$allocator@D@2@@std@@U?$hash@V?$basic_string@DU?$char_traits@D@std@@V?$allocator@D@2@@std@@@2@U?$equal_to@V?$basic_string@DU?$char_traits@D@std@@V?$allocator@D@2@@std@@@2@@2@V?$allocator@U?$pair@$$CBV?$basic_string@DU?$char_traits@D@std@@V?$allocator@D@2@@std@@V?$shared_ptr@Vlogger@spdlog@@@2@@std@@@2@$0A@@std@@@std@@IAE?AV?$_List_unchecked_iterator@V?$_List_val@U?$_List_simple_types@U?$pair@$$CBV?$basic_string@DU?$char_traits@D@std@@V?$allocator@D@2@@std@@V?$shared_ptr@Vlogger@spdlog@@@2@@std@@@std@@@std@@@1@AAU?$pair@$$CBV?$basic_string@DU?$char_traits@D@std@@V?$allocator@D@2@@std@@V?$shared_ptr@Vlogger@spdlog@@@2@@1@V21@@Z 0041d810 f i datarecorder.obj
 0001:0001c820       ??$_Buynode_if_nil@AAU?$pair@$$CBV?$basic_string@DU?$char_traits@D@std@@V?$allocator@D@2@@std@@VBarData@jsstructs@@@std@@@?$_Tree@V?$_Tmap_traits@V?$basic_string@DU?$char_traits@D@std@@V?$allocator@D@2@@std@@VBarData@jsstructs@@U?$less@V?$basic_string@DU?$char_traits@D@std@@V?$allocator@D@2@@std@@@2@V?$allocator@U?$pair@$$CBV?$basic_string@DU?$char_traits@D@std@@V?$allocator@D@2@@std@@VBarData@jsstructs@@@std@@@2@$0A@@std@@@std@@IAEPAU?$_Tree_node@U?$pair@$$CBV?$basic_string@DU?$char_traits@D@std@@V?$allocator@D@2@@std@@VBarData@jsstructs@@@std@@PAX@1@PAU21@AAU?$pair@$$CBV?$basic_string@DU?$char_traits@D@std@@V?$allocator@D@2@@std@@VBarData@jsstructs@@@1@@Z 0041d820 f i datarecorder.obj
 0001:0001c830       ??$_Buynode_if_nil@AAU?$pair@$$CBV?$basic_string@DU?$char_traits@D@std@@V?$allocator@D@2@@std@@_J@std@@@?$_Tree@V?$_Tmap_traits@V?$basic_string@DU?$char_traits@D@std@@V?$allocator@D@2@@std@@_JU?$less@V?$basic_string@DU?$char_traits@D@std@@V?$allocator@D@2@@std@@@2@V?$allocator@U?$pair@$$CBV?$basic_string@DU?$char_traits@D@std@@V?$allocator@D@2@@std@@_J@std@@@2@$0A@@std@@@std@@IAEPAU?$_Tree_node@U?$pair@$$CBV?$basic_string@DU?$char_traits@D@std@@V?$allocator@D@2@@std@@_J@std@@PAX@1@PAU21@AAU?$pair@$$CBV?$basic_string@DU?$char_traits@D@std@@V?$allocator@D@2@@std@@_J@1@@Z 0041d830 f i datarecorder.obj
 0001:0001c840       ??$_Construct@PBV?$shared_ptr@Vsink@sinks@spdlog@@@std@@@?$vector@V?$shared_ptr@Vsink@sinks@spdlog@@@std@@V?$allocator@V?$shared_ptr@Vsink@sinks@spdlog@@@std@@@2@@std@@QAEXPBV?$shared_ptr@Vsink@sinks@spdlog@@@1@0@Z 0041d840 f i datarecorder.obj
 0001:0001c860       ??$_Construct@PBV?$shared_ptr@Vsink@sinks@spdlog@@@std@@@?$vector@V?$shared_ptr@Vsink@sinks@spdlog@@@std@@V?$allocator@V?$shared_ptr@Vsink@sinks@spdlog@@@std@@@2@@std@@QAEXPBV?$shared_ptr@Vsink@sinks@spdlog@@@1@0Uforward_iterator_tag@1@@Z 0041d860 f i datarecorder.obj
 0001:0001c8f0       ??$_Construct@V?$move_iterator@V?$_Vector_iterator@V?$_Vector_val@U?$_Simple_types@V?$basic_string@DU?$char_traits@D@std@@V?$allocator@D@2@@std@@@std@@@std@@@std@@@std@@@?$vector@V?$basic_string@DU?$char_traits@D@std@@V?$allocator@D@2@@std@@V?$allocator@V?$basic_string@DU?$char_traits@D@std@@V?$allocator@D@2@@std@@@2@@std@@QAEXV?$move_iterator@V?$_Vector_iterator@V?$_Vector_val@U?$_Simple_types@V?$basic_string@DU?$char_traits@D@std@@V?$allocator@D@2@@std@@@std@@@std@@@std@@@1@0@Z 0041d8f0 f i datarecorder.obj
 0001:0001c910       ??$_Construct@V?$move_iterator@V?$_Vector_iterator@V?$_Vector_val@U?$_Simple_types@V?$basic_string@DU?$char_traits@D@std@@V?$allocator@D@2@@std@@@std@@@std@@@std@@@std@@@?$vector@V?$basic_string@DU?$char_traits@D@std@@V?$allocator@D@2@@std@@V?$allocator@V?$basic_string@DU?$char_traits@D@std@@V?$allocator@D@2@@std@@@2@@std@@QAEXV?$move_iterator@V?$_Vector_iterator@V?$_Vector_val@U?$_Simple_types@V?$basic_string@DU?$char_traits@D@std@@V?$allocator@D@2@@std@@@std@@@std@@@std@@@1@0Uforward_iterator_tag@1@@Z 0041d910 f i datarecorder.obj
 0001:0001c9b0       ??$_Copy_backward@PAV?$_List_unchecked_iterator@V?$_List_val@U?$_List_simple_types@U?$pair@$$CBV?$basic_string@DU?$char_traits@D@std@@V?$allocator@D@2@@std@@V?$shared_ptr@Vlogger@spdlog@@@2@@std@@@std@@@std@@@std@@PAV12@@std@@YAPAV?$_List_unchecked_iterator@V?$_List_val@U?$_List_simple_types@U?$pair@$$CBV?$basic_string@DU?$char_traits@D@std@@V?$allocator@D@2@@std@@V?$shared_ptr@Vlogger@spdlog@@@2@@std@@@std@@@std@@@0@PAV10@00@Z 0041d9b0 f i datarecorder.obj
 0001:0001c9e0       ??$_Copy_backward@PAV?$_List_unchecked_iterator@V?$_List_val@U?$_List_simple_types@U?$pair@$$CBV?$basic_string@DU?$char_traits@D@std@@V?$allocator@D@2@@std@@V?$shared_ptr@Vlogger@spdlog@@@2@@std@@@std@@@std@@@std@@PAV12@@std@@YAPAV?$_List_unchecked_iterator@V?$_List_val@U?$_List_simple_types@U?$pair@$$CBV?$basic_string@DU?$char_traits@D@std@@V?$allocator@D@2@@std@@V?$shared_ptr@Vlogger@spdlog@@@2@@std@@@std@@@std@@@0@PAV10@00U_Nonscalar_ptr_iterator_tag@0@@Z 0041d9e0 f i datarecorder.obj
 0001:0001ca10       ??$_Decay_copy@P8async_log_helper@details@spdlog@@AEXXZ@std@@YAP8async_log_helper@details@spdlog@@AEXXZ$$QAP8123@AEXXZ@Z 0041da10 f i datarecorder.obj
 0001:0001ca20       ??$_Decay_copy@QAVasync_log_helper@details@spdlog@@@std@@YAPAVasync_log_helper@details@spdlog@@$$QBQAV123@@Z 0041da20 f i datarecorder.obj
 0001:0001ca30       ??$_Destroy_range@U?$_Wrap_alloc@U?$_Wrap_alloc@V?$allocator@V?$_List_unchecked_iterator@V?$_List_val@U?$_List_simple_types@U?$pair@$$CBV?$basic_string@DU?$char_traits@D@std@@V?$allocator@D@2@@std@@V?$shared_ptr@Vlogger@spdlog@@@2@@std@@@std@@@std@@@std@@@std@@@std@@@std@@@std@@YAXPAV?$_List_unchecked_iterator@V?$_List_val@U?$_List_simple_types@U?$pair@$$CBV?$basic_string@DU?$char_traits@D@std@@V?$allocator@D@2@@std@@V?$shared_ptr@Vlogger@spdlog@@@2@@std@@@std@@@std@@@0@0AAU?$_Wrap_alloc@U?$_Wrap_alloc@V?$allocator@V?$_List_unchecked_iterator@V?$_List_val@U?$_List_simple_types@U?$pair@$$CBV?$basic_string@DU?$char_traits@D@std@@V?$allocator@D@2@@std@@V?$shared_ptr@Vlogger@spdlog@@@2@@std@@@std@@@std@@@std@@@std@@@std@@@0@@Z 0041da30 f i datarecorder.obj
 0001:0001ca40       ??$_Destroy_range@U?$_Wrap_alloc@U?$_Wrap_alloc@V?$allocator@V?$_List_unchecked_iterator@V?$_List_val@U?$_List_simple_types@U?$pair@$$CBV?$basic_string@DU?$char_traits@D@std@@V?$allocator@D@2@@std@@V?$shared_ptr@Vlogger@spdlog@@@2@@std@@@std@@@std@@@std@@@std@@@std@@@std@@@std@@YAXPAV?$_List_unchecked_iterator@V?$_List_val@U?$_List_simple_types@U?$pair@$$CBV?$basic_string@DU?$char_traits@D@std@@V?$allocator@D@2@@std@@V?$shared_ptr@Vlogger@spdlog@@@2@@std@@@std@@@std@@@0@0AAU?$_Wrap_alloc@U?$_Wrap_alloc@V?$allocator@V?$_List_unchecked_iterator@V?$_List_val@U?$_List_simple_types@U?$pair@$$CBV?$basic_string@DU?$char_traits@D@std@@V?$allocator@D@2@@std@@V?$shared_ptr@Vlogger@spdlog@@@2@@std@@@std@@@std@@@std@@@std@@@std@@@0@U_Nonscalar_ptr_iterator_tag@0@@Z 0041da40 f i datarecorder.obj
 0001:0001ca50       ??$_Destroy_range@U?$_Wrap_alloc@V?$allocator@U?$pair@V?$BasicStringRef@D@fmt@@UArg@internal@2@@std@@@std@@@std@@@std@@YAXPAU?$pair@V?$BasicStringRef@D@fmt@@UArg@internal@2@@0@0AAU?$_Wrap_alloc@V?$allocator@U?$pair@V?$BasicStringRef@D@fmt@@UArg@internal@2@@std@@@std@@@0@@Z 0041da50 f i datarecorder.obj
 0001:0001ca60       ??$_Destroy_range@U?$_Wrap_alloc@V?$allocator@U?$pair@V?$BasicStringRef@D@fmt@@UArg@internal@2@@std@@@std@@@std@@@std@@YAXPAU?$pair@V?$BasicStringRef@D@fmt@@UArg@internal@2@@0@0AAU?$_Wrap_alloc@V?$allocator@U?$pair@V?$BasicStringRef@D@fmt@@UArg@internal@2@@std@@@std@@@0@U_Nonscalar_ptr_iterator_tag@0@@Z 0041da60 f i datarecorder.obj
 0001:0001ca70       ??$_Destroy_range@U?$_Wrap_alloc@V?$allocator@V?$shared_ptr@Vsink@sinks@spdlog@@@std@@@std@@@std@@@std@@YAXPAV?$shared_ptr@Vsink@sinks@spdlog@@@0@0AAU?$_Wrap_alloc@V?$allocator@V?$shared_ptr@Vsink@sinks@spdlog@@@std@@@std@@@0@@Z 0041da70 f i datarecorder.obj
 0001:0001ca90       ??$_Destroy_range@U?$_Wrap_alloc@V?$allocator@V?$shared_ptr@Vsink@sinks@spdlog@@@std@@@std@@@std@@@std@@YAXPAV?$shared_ptr@Vsink@sinks@spdlog@@@0@0AAU?$_Wrap_alloc@V?$allocator@V?$shared_ptr@Vsink@sinks@spdlog@@@std@@@std@@@0@U_Nonscalar_ptr_iterator_tag@0@@Z 0041da90 f i datarecorder.obj
 0001:0001cae0       ??$_Destroy_range@U?$_Wrap_alloc@V?$allocator@V?$unique_ptr@Vflag_formatter@details@spdlog@@U?$default_delete@Vflag_formatter@details@spdlog@@@std@@@std@@@std@@@std@@@std@@YAXPAV?$unique_ptr@Vflag_formatter@details@spdlog@@U?$default_delete@Vflag_formatter@details@spdlog@@@std@@@0@0AAU?$_Wrap_alloc@V?$allocator@V?$unique_ptr@Vflag_formatter@details@spdlog@@U?$default_delete@Vflag_formatter@details@spdlog@@@std@@@std@@@std@@@0@@Z 0041dae0 f i datarecorder.obj
 0001:0001cb10       ??$_Destroy_range@U?$_Wrap_alloc@V?$allocator@V?$unique_ptr@Vflag_formatter@details@spdlog@@U?$default_delete@Vflag_formatter@details@spdlog@@@std@@@std@@@std@@@std@@@std@@YAXPAV?$unique_ptr@Vflag_formatter@details@spdlog@@U?$default_delete@Vflag_formatter@details@spdlog@@@std@@@0@0AAU?$_Wrap_alloc@V?$allocator@V?$unique_ptr@Vflag_formatter@details@spdlog@@U?$default_delete@Vflag_formatter@details@spdlog@@@std@@@std@@@std@@@0@U_Nonscalar_ptr_iterator_tag@0@@Z 0041db10 f i datarecorder.obj
 0001:0001cb40       ??$_Distance2@PBV?$shared_ptr@Vsink@sinks@spdlog@@@std@@H@std@@YAXPBV?$shared_ptr@Vsink@sinks@spdlog@@@0@0AAHUrandom_access_iterator_tag@0@@Z 0041db40 f i datarecorder.obj
 0001:0001cb60       ??$_Distance2@V?$_Tree_iterator@V?$_Tree_val@U?$_Tree_simple_types@U?$pair@$$CBV?$basic_string@DU?$char_traits@D@std@@V?$allocator@D@2@@std@@VBarData@jsstructs@@@std@@@std@@@std@@@std@@I@std@@YAXV?$_Tree_iterator@V?$_Tree_val@U?$_Tree_simple_types@U?$pair@$$CBV?$basic_string@DU?$char_traits@D@std@@V?$allocator@D@2@@std@@VBarData@jsstructs@@@std@@@std@@@std@@@0@0AAIUbidirectional_iterator_tag@0@@Z 0041db60 f i datarecorder.obj
 0001:0001cbd0       ??$_Distance2@V?$move_iterator@V?$_Vector_iterator@V?$_Vector_val@U?$_Simple_types@V?$basic_string@DU?$char_traits@D@std@@V?$allocator@D@2@@std@@@std@@@std@@@std@@@std@@H@std@@YAXV?$move_iterator@V?$_Vector_iterator@V?$_Vector_val@U?$_Simple_types@V?$basic_string@DU?$char_traits@D@std@@V?$allocator@D@2@@std@@@std@@@std@@@std@@@0@0AAHUrandom_access_iterator_tag@0@@Z 0041dbd0 f i datarecorder.obj
 0001:0001cc00       ??$_Distance@V?$_Tree_iterator@V?$_Tree_val@U?$_Tree_simple_types@U?$pair@$$CBV?$basic_string@DU?$char_traits@D@std@@V?$allocator@D@2@@std@@VBarData@jsstructs@@@std@@@std@@@std@@@std@@I@std@@YAXV?$_Tree_iterator@V?$_Tree_val@U?$_Tree_simple_types@U?$pair@$$CBV?$basic_string@DU?$char_traits@D@std@@V?$allocator@D@2@@std@@VBarData@jsstructs@@@std@@@std@@@std@@@0@0AAI@Z 0041dc00 f i datarecorder.obj
 0001:0001cc20       ??$_Do_alloc@V?$_Func_impl@U?$_Callable_obj@V<lambda_39bc3a8adb760765dcdc68c9b1844393>@@$0A@@std@@V?$allocator@V?$_Func_class@XABV?$basic_string@DU?$char_traits@D@std@@V?$allocator@D@2@@std@@@std@@@2@XABV?$basic_string@DU?$char_traits@D@std@@V?$allocator@D@2@@2@@std@@V<lambda_39bc3a8adb760765dcdc68c9b1844393>@@V?$allocator@V?$_Func_class@XABV?$basic_string@DU?$char_traits@D@std@@V?$allocator@D@2@@std@@@std@@@2@@?$_Func_class@XABV?$basic_string@DU?$char_traits@D@std@@V?$allocator@D@2@@std@@@std@@AAEX$$QAV<lambda_39bc3a8adb760765dcdc68c9b1844393>@@V?$allocator@V?$_Func_class@XABV?$basic_string@DU?$char_traits@D@std@@V?$allocator@D@2@@std@@@std@@@1@@Z 0041dc20 f i datarecorder.obj
 0001:0001cc50       ??$_Do_alloc@V?$_Func_impl@U?$_Callable_obj@V?$_Bind@$00XU?$_Pmf_wrap@P8Datarecorder@@AEXV?$shared_ptr@VEvent@@@std@@@ZXV1@V23@@std@@QAVDatarecorder@@AAV?$_Ph@$00@2@@std@@$0A@@std@@V?$allocator@V?$_Func_class@XV?$shared_ptr@VEvent@@@std@@@std@@@2@XV?$shared_ptr@VEvent@@@2@@std@@V?$_Bind@$00XU?$_Pmf_wrap@P8Datarecorder@@AEXV?$shared_ptr@VEvent@@@std@@@ZXV1@V23@@std@@QAVDatarecorder@@AAV?$_Ph@$00@2@@2@V?$allocator@V?$_Func_class@XV?$shared_ptr@VEvent@@@std@@@std@@@2@@?$_Func_class@XV?$shared_ptr@VEvent@@@std@@@std@@AAEX$$QAV?$_Bind@$00XU?$_Pmf_wrap@P8Datarecorder@@AEXV?$shared_ptr@VEvent@@@std@@@ZXV1@V23@@std@@QAVDatarecorder@@AAV?$_Ph@$00@2@@1@V?$allocator@V?$_Func_class@XV?$shared_ptr@VEvent@@@std@@@std@@@1@@Z 0041dc50 f i datarecorder.obj
 0001:0001cc90       ??$_Do_alloc@V?$_Func_impl@U?$_Callable_obj@V?$_Bind@$00XU?$_Pmf_wrap@P8Datarecorder@@AEXXZXV1@$$$V@std@@QAVDatarecorder@@@std@@$0A@@std@@V?$allocator@V?$_Func_class@XV?$shared_ptr@VEvent@@@std@@@std@@@2@XV?$shared_ptr@VEvent@@@2@@std@@V?$_Bind@$00XU?$_Pmf_wrap@P8Datarecorder@@AEXXZXV1@$$$V@std@@QAVDatarecorder@@@2@V?$allocator@V?$_Func_class@XV?$shared_ptr@VEvent@@@std@@@std@@@2@@?$_Func_class@XV?$shared_ptr@VEvent@@@std@@@std@@AAEX$$QAV?$_Bind@$00XU?$_Pmf_wrap@P8Datarecorder@@AEXXZXV1@$$$V@std@@QAVDatarecorder@@@1@V?$allocator@V?$_Func_class@XV?$shared_ptr@VEvent@@@std@@@std@@@1@@Z 0041dc90 f i datarecorder.obj
 0001:0001ccc0       ??$_Do_call@$$$V$0A@@?$_Bind@$00XU?$_Pmf_wrap@P8async_log_helper@details@spdlog@@AEXXZXV123@$$$V@std@@PAVasync_log_helper@details@spdlog@@@std@@QAEXV?$tuple@$$$V@1@U?$_Arg_idx@$0A@@1@@Z 0041dcc0 f i datarecorder.obj
 0001:0001ccd0       ??$_Do_call@V?$shared_ptr@VEvent@@@std@@$0A@$00@?$_Bind@$00XU?$_Pmf_wrap@P8Datarecorder@@AEXV?$shared_ptr@VEvent@@@std@@@ZXV1@V23@@std@@QAVDatarecorder@@AAV?$_Ph@$00@2@@std@@QAEXV?$tuple@AAV?$shared_ptr@VEvent@@@std@@@1@U?$_Arg_idx@$0A@$00@1@@Z 0041dcd0 f i datarecorder.obj
 0001:0001cd10       ??$_Do_call@V?$shared_ptr@VEvent@@@std@@$0A@@?$_Bind@$00XU?$_Pmf_wrap@P8Datarecorder@@AEXXZXV1@$$$V@std@@QAVDatarecorder@@@std@@QAEXV?$tuple@AAV?$shared_ptr@VEvent@@@std@@@1@U?$_Arg_idx@$0A@@1@@Z 0041dd10 f i datarecorder.obj
 0001:0001cd20       ??$_Equal@V?$_Vector_iterator@V?$_Vector_val@U?$_Simple_types@V?$basic_string@DU?$char_traits@D@std@@V?$allocator@D@2@@std@@@std@@@std@@@std@@@?$move_iterator@V?$_Vector_iterator@V?$_Vector_val@U?$_Simple_types@V?$basic_string@DU?$char_traits@D@std@@V?$allocator@D@2@@std@@@std@@@std@@@std@@@std@@QBE_NABV01@@Z 0041dd20 f i datarecorder.obj
 0001:0001cd40       ??$_Fill@PAV?$_List_unchecked_iterator@V?$_List_val@U?$_List_simple_types@U?$pair@$$CBV?$basic_string@DU?$char_traits@D@std@@V?$allocator@D@2@@std@@V?$shared_ptr@Vlogger@spdlog@@@2@@std@@@std@@@std@@@std@@V12@@std@@YAXPAV?$_List_unchecked_iterator@V?$_List_val@U?$_List_simple_types@U?$pair@$$CBV?$basic_string@DU?$char_traits@D@std@@V?$allocator@D@2@@std@@V?$shared_ptr@Vlogger@spdlog@@@2@@std@@@std@@@std@@@0@0ABV10@@Z 0041dd40 f i datarecorder.obj
 0001:0001cd80       ??$_Fixarg@AAU?$_Pmf_wrap@P8Datarecorder@@AEXV?$shared_ptr@VEvent@@@std@@@ZXV1@V23@@std@@PAVDatarecorder@@V?$tuple@PAVDatarecorder@@V?$_Ph@$00@std@@@2@V?$tuple@AAV?$shared_ptr@VEvent@@@std@@@2@@std@@YAAAPAVDatarecorder@@AAU?$_Pmf_wrap@P8Datarecorder@@AEXV?$shared_ptr@VEvent@@@std@@@ZXV1@V23@@0@AAV?$tuple@PAVDatarecorder@@V?$_Ph@$00@std@@@0@AAV?$tuple@AAV?$shared_ptr@VEvent@@@std@@@0@AAPAV1@@Z 0041dd80 f i datarecorder.obj
 0001:0001cd90       ??$_Fixarg@AAU?$_Pmf_wrap@P8Datarecorder@@AEXV?$shared_ptr@VEvent@@@std@@@ZXV1@V23@@std@@V?$_Ph@$00@2@V?$tuple@PAVDatarecorder@@V?$_Ph@$00@std@@@2@V?$tuple@AAV?$shared_ptr@VEvent@@@std@@@2@@std@@YAAAV?$shared_ptr@VEvent@@@0@AAU?$_Pmf_wrap@P8Datarecorder@@AEXV?$shared_ptr@VEvent@@@std@@@ZXV1@V23@@0@AAV?$tuple@PAVDatarecorder@@V?$_Ph@$00@std@@@0@AAV?$tuple@AAV?$shared_ptr@VEvent@@@std@@@0@AAV?$_Ph@$00@0@@Z 0041dd90 f i datarecorder.obj
 0001:0001cda0       ??$_Fixarg@AAU?$_Pmf_wrap@P8Datarecorder@@AEXXZXV1@$$$V@std@@PAVDatarecorder@@V?$tuple@PAVDatarecorder@@@2@V?$tuple@AAV?$shared_ptr@VEvent@@@std@@@2@@std@@YAAAPAVDatarecorder@@AAU?$_Pmf_wrap@P8Datarecorder@@AEXXZXV1@$$$V@0@AAV?$tuple@PAVDatarecorder@@@0@AAV?$tuple@AAV?$shared_ptr@VEvent@@@std@@@0@AAPAV1@@Z 0041dda0 f i datarecorder.obj
 0001:0001cdb0       ??$_Fixarg@AAU?$_Pmf_wrap@P8async_log_helper@details@spdlog@@AEXXZXV123@$$$V@std@@PAVasync_log_helper@details@spdlog@@V?$tuple@PAVasync_log_helper@details@spdlog@@@2@V?$tuple@$$$V@2@@std@@YAAAPAVasync_log_helper@details@spdlog@@AAU?$_Pmf_wrap@P8async_log_helper@details@spdlog@@AEXXZXV123@$$$V@0@AAV?$tuple@PAVasync_log_helper@details@spdlog@@@0@AAV?$tuple@$$$V@0@AAPAV123@@Z 0041ddb0 f i datarecorder.obj
 0001:0001cdc0       ??$_Fn@U?$_Wrap_alloc@V?$allocator@V?$_List_unchecked_iterator@V?$_List_val@U?$_List_simple_types@U?$pair@$$CBV?$basic_string@DU?$char_traits@D@std@@V?$allocator@D@2@@std@@V?$shared_ptr@Vlogger@spdlog@@@2@@std@@@std@@@std@@@std@@@std@@@std@@@_Alloc_max_size@std@@SAIHABU?$_Wrap_alloc@V?$allocator@V?$_List_unchecked_iterator@V?$_List_val@U?$_List_simple_types@U?$pair@$$CBV?$basic_string@DU?$char_traits@D@std@@V?$allocator@D@2@@std@@V?$shared_ptr@Vlogger@spdlog@@@2@@std@@@std@@@std@@@std@@@std@@@1@@Z 0041ddc0 f i datarecorder.obj
 0001:0001cdd0       ??$_Fn@U?$_Wrap_alloc@V?$allocator@V?$_List_unchecked_iterator@V?$_List_val@U?$_List_simple_types@U?$pair@$$CBV?$basic_string@DU?$char_traits@D@std@@V?$allocator@D@2@@std@@V?$shared_ptr@Vlogger@spdlog@@@2@@std@@@std@@@std@@@std@@@std@@@std@@V?$_List_unchecked_iterator@V?$_List_val@U?$_List_simple_types@U?$pair@$$CBV?$basic_string@DU?$char_traits@D@std@@V?$allocator@D@2@@std@@V?$shared_ptr@Vlogger@spdlog@@@2@@std@@@std@@@std@@@2@@_Alloc_destroy@std@@SAXHAAU?$_Wrap_alloc@V?$allocator@V?$_List_unchecked_iterator@V?$_List_val@U?$_List_simple_types@U?$pair@$$CBV?$basic_string@DU?$char_traits@D@std@@V?$allocator@D@2@@std@@V?$shared_ptr@Vlogger@spdlog@@@2@@std@@@std@@@std@@@std@@@std@@@1@PAV?$_List_unchecked_iterator@V?$_List_val@U?$_List_simple_types@U?$pair@$$CBV?$basic_string@DU?$char_traits@D@std@@V?$allocator@D@2@@std@@V?$shared_ptr@Vlogger@spdlog@@@2@@std@@@std@@@std@@@1@@Z 0041ddd0 f i datarecorder.obj
 0001:0001cde0       ??$_Fn@U?$_Wrap_alloc@V?$allocator@V?$_List_unchecked_iterator@V?$_List_val@U?$_List_simple_types@U?$pair@$$CBV?$basic_string@DU?$char_traits@D@std@@V?$allocator@D@2@@std@@V?$shared_ptr@Vlogger@spdlog@@@2@@std@@@std@@@std@@@std@@@std@@@std@@V?$_List_unchecked_iterator@V?$_List_val@U?$_List_simple_types@U?$pair@$$CBV?$basic_string@DU?$char_traits@D@std@@V?$allocator@D@2@@std@@V?$shared_ptr@Vlogger@spdlog@@@2@@std@@@std@@@std@@@2@ABV32@@_Alloc_construct@std@@SAXHAAU?$_Wrap_alloc@V?$allocator@V?$_List_unchecked_iterator@V?$_List_val@U?$_List_simple_types@U?$pair@$$CBV?$basic_string@DU?$char_traits@D@std@@V?$allocator@D@2@@std@@V?$shared_ptr@Vlogger@spdlog@@@2@@std@@@std@@@std@@@std@@@std@@@1@PAV?$_List_unchecked_iterator@V?$_List_val@U?$_List_simple_types@U?$pair@$$CBV?$basic_string@DU?$char_traits@D@std@@V?$allocator@D@2@@std@@V?$shared_ptr@Vlogger@spdlog@@@2@@std@@@std@@@std@@@1@ABV31@@Z 0041dde0 f i datarecorder.obj
 0001:0001ce00       ??$_Fn@U?$_Wrap_alloc@V?$allocator@V?$_List_unchecked_iterator@V?$_List_val@U?$_List_simple_types@U?$pair@$$CBV?$basic_string@DU?$char_traits@D@std@@V?$allocator@D@2@@std@@V?$shared_ptr@Vlogger@spdlog@@@2@@std@@@std@@@std@@@std@@@std@@@std@@V?$_List_unchecked_iterator@V?$_List_val@U?$_List_simple_types@U?$pair@$$CBV?$basic_string@DU?$char_traits@D@std@@V?$allocator@D@2@@std@@V?$shared_ptr@Vlogger@spdlog@@@2@@std@@@std@@@std@@@2@V32@@_Alloc_construct@std@@SAXHAAU?$_Wrap_alloc@V?$allocator@V?$_List_unchecked_iterator@V?$_List_val@U?$_List_simple_types@U?$pair@$$CBV?$basic_string@DU?$char_traits@D@std@@V?$allocator@D@2@@std@@V?$shared_ptr@Vlogger@spdlog@@@2@@std@@@std@@@std@@@std@@@std@@@1@PAV?$_List_unchecked_iterator@V?$_List_val@U?$_List_simple_types@U?$pair@$$CBV?$basic_string@DU?$char_traits@D@std@@V?$allocator@D@2@@std@@V?$shared_ptr@Vlogger@spdlog@@@2@@std@@@std@@@std@@@1@$$QAV31@@Z 0041de00 f i datarecorder.obj
 0001:0001ce20       ??$_Getvals@D@?$numpunct@D@std@@IAEXDPBUlconv@@U_Cvtvec@@@Z 0041de20 f i datarecorder.obj
 0001:0001ce40       ??$_Insert@AAU?$pair@$$CBV?$basic_string@DU?$char_traits@D@std@@V?$allocator@D@2@@std@@V?$shared_ptr@Vlogger@spdlog@@@2@@std@@V?$_List_unchecked_iterator@V?$_List_val@U?$_List_simple_types@U?$pair@$$CBV?$basic_string@DU?$char_traits@D@std@@V?$allocator@D@2@@std@@V?$shared_ptr@Vlogger@spdlog@@@2@@std@@@std@@@std@@@2@@?$_Hash@V?$_Umap_traits@V?$basic_string@DU?$char_traits@D@std@@V?$allocator@D@2@@std@@V?$shared_ptr@Vlogger@spdlog@@@2@V?$_Uhash_compare@V?$basic_string@DU?$char_traits@D@std@@V?$allocator@D@2@@std@@U?$hash@V?$basic_string@DU?$char_traits@D@std@@V?$allocator@D@2@@std@@@2@U?$equal_to@V?$basic_string@DU?$char_traits@D@std@@V?$allocator@D@2@@std@@@2@@2@V?$allocator@U?$pair@$$CBV?$basic_string@DU?$char_traits@D@std@@V?$allocator@D@2@@std@@V?$shared_ptr@Vlogger@spdlog@@@2@@std@@@2@$0A@@std@@@std@@IAE?AU?$pair@V?$_List_iterator@V?$_List_val@U?$_List_simple_types@U?$pair@$$CBV?$basic_string@DU?$char_traits@D@std@@V?$allocator@D@2@@std@@V?$shared_ptr@Vlogger@spdlog@@@2@@std@@@std@@@std@@@std@@_N@1@AAU?$pair@$$CBV?$basic_string@DU?$char_traits@D@std@@V?$allocator@D@2@@std@@V?$shared_ptr@Vlogger@spdlog@@@2@@1@V?$_List_unchecked_iterator@V?$_List_val@U?$_List_simple_types@U?$pair@$$CBV?$basic_string@DU?$char_traits@D@std@@V?$allocator@D@2@@std@@V?$shared_ptr@Vlogger@spdlog@@@2@@std@@@std@@@std@@@1@@Z 0041de40 f i datarecorder.obj
 0001:0001d0b0       ??$_Insert@ABUpiecewise_construct_t@std@@V?$tuple@ABV?$basic_string@DU?$char_traits@D@std@@V?$allocator@D@2@@std@@@2@V?$tuple@$$$V@2@@?$list@U?$pair@$$CBV?$basic_string@DU?$char_traits@D@std@@V?$allocator@D@2@@std@@V?$shared_ptr@Vlogger@spdlog@@@2@@std@@V?$allocator@U?$pair@$$CBV?$basic_string@DU?$char_traits@D@std@@V?$allocator@D@2@@std@@V?$shared_ptr@Vlogger@spdlog@@@2@@std@@@2@@std@@QAEXV?$_List_unchecked_const_iterator@V?$_List_val@U?$_List_simple_types@U?$pair@$$CBV?$basic_string@DU?$char_traits@D@std@@V?$allocator@D@2@@std@@V?$shared_ptr@Vlogger@spdlog@@@2@@std@@@std@@@std@@U_Iterator_base0@2@@1@ABUpiecewise_construct_t@1@$$QAV?$tuple@ABV?$basic_string@DU?$char_traits@D@std@@V?$allocator@D@2@@std@@@1@$$QAV?$tuple@$$$V@1@@Z 0041e0b0 f i datarecorder.obj
 0001:0001d100       ??$_Insert_at@AAU?$pair@$$CBV?$basic_string@DU?$char_traits@D@std@@V?$allocator@D@2@@std@@H@std@@PAU?$_Tree_node@U?$pair@$$CBV?$basic_string@DU?$char_traits@D@std@@V?$allocator@D@2@@std@@H@std@@PAX@2@@?$_Tree@V?$_Tmap_traits@V?$basic_string@DU?$char_traits@D@std@@V?$allocator@D@2@@std@@HU?$less@V?$basic_string@DU?$char_traits@D@std@@V?$allocator@D@2@@std@@@2@V?$allocator@U?$pair@$$CBV?$basic_string@DU?$char_traits@D@std@@V?$allocator@D@2@@std@@H@std@@@2@$0A@@std@@@std@@IAE?AV?$_Tree_iterator@V?$_Tree_val@U?$_Tree_simple_types@U?$pair@$$CBV?$basic_string@DU?$char_traits@D@std@@V?$allocator@D@2@@std@@H@std@@@std@@@std@@@1@_NPAU?$_Tree_node@U?$pair@$$CBV?$basic_string@DU?$char_traits@D@std@@V?$allocator@D@2@@std@@H@std@@PAX@1@AAU?$pair@$$CBV?$basic_string@DU?$char_traits@D@std@@V?$allocator@D@2@@std@@H@1@1@Z 0041e100 f i datarecorder.obj
 0001:0001d330       ??$_Insert_at@AAU?$pair@$$CBV?$basic_string@DU?$char_traits@D@std@@V?$allocator@D@2@@std@@V?$shared_ptr@VEvent_Tick@@@2@@std@@PAU?$_Tree_node@U?$pair@$$CBV?$basic_string@DU?$char_traits@D@std@@V?$allocator@D@2@@std@@V?$shared_ptr@VEvent_Tick@@@2@@std@@PAX@2@@?$_Tree@V?$_Tmap_traits@V?$basic_string@DU?$char_traits@D@std@@V?$allocator@D@2@@std@@V?$shared_ptr@VEvent_Tick@@@2@U?$less@V?$basic_string@DU?$char_traits@D@std@@V?$allocator@D@2@@std@@@2@V?$allocator@U?$pair@$$CBV?$basic_string@DU?$char_traits@D@std@@V?$allocator@D@2@@std@@V?$shared_ptr@VEvent_Tick@@@2@@std@@@2@$0A@@std@@@std@@IAE?AV?$_Tree_iterator@V?$_Tree_val@U?$_Tree_simple_types@U?$pair@$$CBV?$basic_string@DU?$char_traits@D@std@@V?$allocator@D@2@@std@@V?$shared_ptr@VEvent_Tick@@@2@@std@@@std@@@std@@@1@_NPAU?$_Tree_node@U?$pair@$$CBV?$basic_string@DU?$char_traits@D@std@@V?$allocator@D@2@@std@@V?$shared_ptr@VEvent_Tick@@@2@@std@@PAX@1@AAU?$pair@$$CBV?$basic_string@DU?$char_traits@D@std@@V?$allocator@D@2@@std@@V?$shared_ptr@VEvent_Tick@@@2@@1@1@Z 0041e330 f i datarecorder.obj
 0001:0001d540       ??$_Insert_at@AAU?$pair@$$CBV?$basic_string@DU?$char_traits@D@std@@V?$allocator@D@2@@std@@VBarData@jsstructs@@@std@@PAU?$_Tree_node@U?$pair@$$CBV?$basic_string@DU?$char_traits@D@std@@V?$allocator@D@2@@std@@VBarData@jsstructs@@@std@@PAX@2@@?$_Tree@V?$_Tmap_traits@V?$basic_string@DU?$char_traits@D@std@@V?$allocator@D@2@@std@@VBarData@jsstructs@@U?$less@V?$basic_string@DU?$char_traits@D@std@@V?$allocator@D@2@@std@@@2@V?$allocator@U?$pair@$$CBV?$basic_string@DU?$char_traits@D@std@@V?$allocator@D@2@@std@@VBarData@jsstructs@@@std@@@2@$0A@@std@@@std@@IAE?AV?$_Tree_iterator@V?$_Tree_val@U?$_Tree_simple_types@U?$pair@$$CBV?$basic_string@DU?$char_traits@D@std@@V?$allocator@D@2@@std@@VBarData@jsstructs@@@std@@@std@@@std@@@1@_NPAU?$_Tree_node@U?$pair@$$CBV?$basic_string@DU?$char_traits@D@std@@V?$allocator@D@2@@std@@VBarData@jsstructs@@@std@@PAX@1@AAU?$pair@$$CBV?$basic_string@DU?$char_traits@D@std@@V?$allocator@D@2@@std@@VBarData@jsstructs@@@1@1@Z 0041e540 f i datarecorder.obj
 0001:0001d780       ??$_Insert_at@AAU?$pair@$$CBV?$basic_string@DU?$char_traits@D@std@@V?$allocator@D@2@@std@@_J@std@@PAU?$_Tree_node@U?$pair@$$CBV?$basic_string@DU?$char_traits@D@std@@V?$allocator@D@2@@std@@_J@std@@PAX@2@@?$_Tree@V?$_Tmap_traits@V?$basic_string@DU?$char_traits@D@std@@V?$allocator@D@2@@std@@_JU?$less@V?$basic_string@DU?$char_traits@D@std@@V?$allocator@D@2@@std@@@2@V?$allocator@U?$pair@$$CBV?$basic_string@DU?$char_traits@D@std@@V?$allocator@D@2@@std@@_J@std@@@2@$0A@@std@@@std@@IAE?AV?$_Tree_iterator@V?$_Tree_val@U?$_Tree_simple_types@U?$pair@$$CBV?$basic_string@DU?$char_traits@D@std@@V?$allocator@D@2@@std@@_J@std@@@std@@@std@@@1@_NPAU?$_Tree_node@U?$pair@$$CBV?$basic_string@DU?$char_traits@D@std@@V?$allocator@D@2@@std@@_J@std@@PAX@1@AAU?$pair@$$CBV?$basic_string@DU?$char_traits@D@std@@V?$allocator@D@2@@std@@_J@1@1@Z 0041e780 f i datarecorder.obj
 0001:0001d9b0       ??$_Insert_hint@AAU?$pair@$$CBV?$basic_string@DU?$char_traits@D@std@@V?$allocator@D@2@@std@@H@std@@PAU?$_Tree_node@U?$pair@$$CBV?$basic_string@DU?$char_traits@D@std@@V?$allocator@D@2@@std@@H@std@@PAX@2@@?$_Tree@V?$_Tmap_traits@V?$basic_string@DU?$char_traits@D@std@@V?$allocator@D@2@@std@@HU?$less@V?$basic_string@DU?$char_traits@D@std@@V?$allocator@D@2@@std@@@2@V?$allocator@U?$pair@$$CBV?$basic_string@DU?$char_traits@D@std@@V?$allocator@D@2@@std@@H@std@@@2@$0A@@std@@@std@@IAE?AV?$_Tree_iterator@V?$_Tree_val@U?$_Tree_simple_types@U?$pair@$$CBV?$basic_string@DU?$char_traits@D@std@@V?$allocator@D@2@@std@@H@std@@@std@@@std@@@1@V?$_Tree_const_iterator@V?$_Tree_val@U?$_Tree_simple_types@U?$pair@$$CBV?$basic_string@DU?$char_traits@D@std@@V?$allocator@D@2@@std@@H@std@@@std@@@std@@@1@AAU?$pair@$$CBV?$basic_string@DU?$char_traits@D@std@@V?$allocator@D@2@@std@@H@1@PAU?$_Tree_node@U?$pair@$$CBV?$basic_string@DU?$char_traits@D@std@@V?$allocator@D@2@@std@@H@std@@PAX@1@@Z 0041e9b0 f i datarecorder.obj
 0001:0001dba0       ??$_Insert_hint@AAU?$pair@$$CBV?$basic_string@DU?$char_traits@D@std@@V?$allocator@D@2@@std@@V?$shared_ptr@VEvent_Tick@@@2@@std@@PAU?$_Tree_node@U?$pair@$$CBV?$basic_string@DU?$char_traits@D@std@@V?$allocator@D@2@@std@@V?$shared_ptr@VEvent_Tick@@@2@@std@@PAX@2@@?$_Tree@V?$_Tmap_traits@V?$basic_string@DU?$char_traits@D@std@@V?$allocator@D@2@@std@@V?$shared_ptr@VEvent_Tick@@@2@U?$less@V?$basic_string@DU?$char_traits@D@std@@V?$allocator@D@2@@std@@@2@V?$allocator@U?$pair@$$CBV?$basic_string@DU?$char_traits@D@std@@V?$allocator@D@2@@std@@V?$shared_ptr@VEvent_Tick@@@2@@std@@@2@$0A@@std@@@std@@IAE?AV?$_Tree_iterator@V?$_Tree_val@U?$_Tree_simple_types@U?$pair@$$CBV?$basic_string@DU?$char_traits@D@std@@V?$allocator@D@2@@std@@V?$shared_ptr@VEvent_Tick@@@2@@std@@@std@@@std@@@1@V?$_Tree_const_iterator@V?$_Tree_val@U?$_Tree_simple_types@U?$pair@$$CBV?$basic_string@DU?$char_traits@D@std@@V?$allocator@D@2@@std@@V?$shared_ptr@VEvent_Tick@@@2@@std@@@std@@@std@@@1@AAU?$pair@$$CBV?$basic_string@DU?$char_traits@D@std@@V?$allocator@D@2@@std@@V?$shared_ptr@VEvent_Tick@@@2@@1@PAU?$_Tree_node@U?$pair@$$CBV?$basic_string@DU?$char_traits@D@std@@V?$allocator@D@2@@std@@V?$shared_ptr@VEvent_Tick@@@2@@std@@PAX@1@@Z 0041eba0 f i datarecorder.obj
 0001:0001dd90       ??$_Insert_hint@AAU?$pair@$$CBV?$basic_string@DU?$char_traits@D@std@@V?$allocator@D@2@@std@@VBarData@jsstructs@@@std@@PAU?$_Tree_node@U?$pair@$$CBV?$basic_string@DU?$char_traits@D@std@@V?$allocator@D@2@@std@@VBarData@jsstructs@@@std@@PAX@2@@?$_Tree@V?$_Tmap_traits@V?$basic_string@DU?$char_traits@D@std@@V?$allocator@D@2@@std@@VBarData@jsstructs@@U?$less@V?$basic_string@DU?$char_traits@D@std@@V?$allocator@D@2@@std@@@2@V?$allocator@U?$pair@$$CBV?$basic_string@DU?$char_traits@D@std@@V?$allocator@D@2@@std@@VBarData@jsstructs@@@std@@@2@$0A@@std@@@std@@IAE?AV?$_Tree_iterator@V?$_Tree_val@U?$_Tree_simple_types@U?$pair@$$CBV?$basic_string@DU?$char_traits@D@std@@V?$allocator@D@2@@std@@VBarData@jsstructs@@@std@@@std@@@std@@@1@V?$_Tree_const_iterator@V?$_Tree_val@U?$_Tree_simple_types@U?$pair@$$CBV?$basic_string@DU?$char_traits@D@std@@V?$allocator@D@2@@std@@VBarData@jsstructs@@@std@@@std@@@std@@@1@AAU?$pair@$$CBV?$basic_string@DU?$char_traits@D@std@@V?$allocator@D@2@@std@@VBarData@jsstructs@@@1@PAU?$_Tree_node@U?$pair@$$CBV?$basic_string@DU?$char_traits@D@std@@V?$allocator@D@2@@std@@VBarData@jsstructs@@@std@@PAX@1@@Z 0041ed90 f i datarecorder.obj
 0001:0001df80       ??$_Insert_hint@AAU?$pair@$$CBV?$basic_string@DU?$char_traits@D@std@@V?$allocator@D@2@@std@@_J@std@@PAU?$_Tree_node@U?$pair@$$CBV?$basic_string@DU?$char_traits@D@std@@V?$allocator@D@2@@std@@_J@std@@PAX@2@@?$_Tree@V?$_Tmap_traits@V?$basic_string@DU?$char_traits@D@std@@V?$allocator@D@2@@std@@_JU?$less@V?$basic_string@DU?$char_traits@D@std@@V?$allocator@D@2@@std@@@2@V?$allocator@U?$pair@$$CBV?$basic_string@DU?$char_traits@D@std@@V?$allocator@D@2@@std@@_J@std@@@2@$0A@@std@@@std@@IAE?AV?$_Tree_iterator@V?$_Tree_val@U?$_Tree_simple_types@U?$pair@$$CBV?$basic_string@DU?$char_traits@D@std@@V?$allocator@D@2@@std@@_J@std@@@std@@@std@@@1@V?$_Tree_const_iterator@V?$_Tree_val@U?$_Tree_simple_types@U?$pair@$$CBV?$basic_string@DU?$char_traits@D@std@@V?$allocator@D@2@@std@@_J@std@@@std@@@std@@@1@AAU?$pair@$$CBV?$basic_string@DU?$char_traits@D@std@@V?$allocator@D@2@@std@@_J@1@PAU?$_Tree_node@U?$pair@$$CBV?$basic_string@DU?$char_traits@D@std@@V?$allocator@D@2@@std@@_J@std@@PAX@1@@Z 0041ef80 f i datarecorder.obj
 0001:0001e170       ??$_Insert_nohint@AAU?$pair@$$CBV?$basic_string@DU?$char_traits@D@std@@V?$allocator@D@2@@std@@H@std@@PAU?$_Tree_node@U?$pair@$$CBV?$basic_string@DU?$char_traits@D@std@@V?$allocator@D@2@@std@@H@std@@PAX@2@@?$_Tree@V?$_Tmap_traits@V?$basic_string@DU?$char_traits@D@std@@V?$allocator@D@2@@std@@HU?$less@V?$basic_string@DU?$char_traits@D@std@@V?$allocator@D@2@@std@@@2@V?$allocator@U?$pair@$$CBV?$basic_string@DU?$char_traits@D@std@@V?$allocator@D@2@@std@@H@std@@@2@$0A@@std@@@std@@IAE?AU?$pair@V?$_Tree_iterator@V?$_Tree_val@U?$_Tree_simple_types@U?$pair@$$CBV?$basic_string@DU?$char_traits@D@std@@V?$allocator@D@2@@std@@H@std@@@std@@@std@@@std@@_N@1@_NAAU?$pair@$$CBV?$basic_string@DU?$char_traits@D@std@@V?$allocator@D@2@@std@@H@1@PAU?$_Tree_node@U?$pair@$$CBV?$basic_string@DU?$char_traits@D@std@@V?$allocator@D@2@@std@@H@std@@PAX@1@@Z 0041f170 f i datarecorder.obj
 0001:0001e400       ??$_Insert_nohint@AAU?$pair@$$CBV?$basic_string@DU?$char_traits@D@std@@V?$allocator@D@2@@std@@V?$shared_ptr@VEvent_Tick@@@2@@std@@PAU?$_Tree_node@U?$pair@$$CBV?$basic_string@DU?$char_traits@D@std@@V?$allocator@D@2@@std@@V?$shared_ptr@VEvent_Tick@@@2@@std@@PAX@2@@?$_Tree@V?$_Tmap_traits@V?$basic_string@DU?$char_traits@D@std@@V?$allocator@D@2@@std@@V?$shared_ptr@VEvent_Tick@@@2@U?$less@V?$basic_string@DU?$char_traits@D@std@@V?$allocator@D@2@@std@@@2@V?$allocator@U?$pair@$$CBV?$basic_string@DU?$char_traits@D@std@@V?$allocator@D@2@@std@@V?$shared_ptr@VEvent_Tick@@@2@@std@@@2@$0A@@std@@@std@@IAE?AU?$pair@V?$_Tree_iterator@V?$_Tree_val@U?$_Tree_simple_types@U?$pair@$$CBV?$basic_string@DU?$char_traits@D@std@@V?$allocator@D@2@@std@@V?$shared_ptr@VEvent_Tick@@@2@@std@@@std@@@std@@@std@@_N@1@_NAAU?$pair@$$CBV?$basic_string@DU?$char_traits@D@std@@V?$allocator@D@2@@std@@V?$shared_ptr@VEvent_Tick@@@2@@1@PAU?$_Tree_node@U?$pair@$$CBV?$basic_string@DU?$char_traits@D@std@@V?$allocator@D@2@@std@@V?$shared_ptr@VEvent_Tick@@@2@@std@@PAX@1@@Z 0041f400 f i datarecorder.obj
 0001:0001e670       ??$_Insert_nohint@AAU?$pair@$$CBV?$basic_string@DU?$char_traits@D@std@@V?$allocator@D@2@@std@@VBarData@jsstructs@@@std@@PAU?$_Tree_node@U?$pair@$$CBV?$basic_string@DU?$char_traits@D@std@@V?$allocator@D@2@@std@@VBarData@jsstructs@@@std@@PAX@2@@?$_Tree@V?$_Tmap_traits@V?$basic_string@DU?$char_traits@D@std@@V?$allocator@D@2@@std@@VBarData@jsstructs@@U?$less@V?$basic_string@DU?$char_traits@D@std@@V?$allocator@D@2@@std@@@2@V?$allocator@U?$pair@$$CBV?$basic_string@DU?$char_traits@D@std@@V?$allocator@D@2@@std@@VBarData@jsstructs@@@std@@@2@$0A@@std@@@std@@IAE?AU?$pair@V?$_Tree_iterator@V?$_Tree_val@U?$_Tree_simple_types@U?$pair@$$CBV?$basic_string@DU?$char_traits@D@std@@V?$allocator@D@2@@std@@VBarData@jsstructs@@@std@@@std@@@std@@@std@@_N@1@_NAAU?$pair@$$CBV?$basic_string@DU?$char_traits@D@std@@V?$allocator@D@2@@std@@VBarData@jsstructs@@@1@PAU?$_Tree_node@U?$pair@$$CBV?$basic_string@DU?$char_traits@D@std@@V?$allocator@D@2@@std@@VBarData@jsstructs@@@std@@PAX@1@@Z 0041f670 f i datarecorder.obj
 0001:0001e8e0       ??$_Insert_nohint@AAU?$pair@$$CBV?$basic_string@DU?$char_traits@D@std@@V?$allocator@D@2@@std@@_J@std@@PAU?$_Tree_node@U?$pair@$$CBV?$basic_string@DU?$char_traits@D@std@@V?$allocator@D@2@@std@@_J@std@@PAX@2@@?$_Tree@V?$_Tmap_traits@V?$basic_string@DU?$char_traits@D@std@@V?$allocator@D@2@@std@@_JU?$less@V?$basic_string@DU?$char_traits@D@std@@V?$allocator@D@2@@std@@@2@V?$allocator@U?$pair@$$CBV?$basic_string@DU?$char_traits@D@std@@V?$allocator@D@2@@std@@_J@std@@@2@$0A@@std@@@std@@IAE?AU?$pair@V?$_Tree_iterator@V?$_Tree_val@U?$_Tree_simple_types@U?$pair@$$CBV?$basic_string@DU?$char_traits@D@std@@V?$allocator@D@2@@std@@_J@std@@@std@@@std@@@std@@_N@1@_NAAU?$pair@$$CBV?$basic_string@DU?$char_traits@D@std@@V?$allocator@D@2@@std@@_J@1@PAU?$_Tree_node@U?$pair@$$CBV?$basic_string@DU?$char_traits@D@std@@V?$allocator@D@2@@std@@_J@std@@PAX@1@@Z 0041f8e0 f i datarecorder.obj
 0001:0001eb70       ??$_Iter_cat@PBV?$shared_ptr@Vsink@sinks@spdlog@@@std@@@std@@YA?AUrandom_access_iterator_tag@0@ABQBV?$shared_ptr@Vsink@sinks@spdlog@@@0@@Z 0041fb70 f i datarecorder.obj
 0001:0001eb80       ??$_Iter_cat@V?$_Tree_iterator@V?$_Tree_val@U?$_Tree_simple_types@U?$pair@$$CBV?$basic_string@DU?$char_traits@D@std@@V?$allocator@D@2@@std@@VBarData@jsstructs@@@std@@@std@@@std@@@std@@@std@@YA?AUbidirectional_iterator_tag@0@ABV?$_Tree_iterator@V?$_Tree_val@U?$_Tree_simple_types@U?$pair@$$CBV?$basic_string@DU?$char_traits@D@std@@V?$allocator@D@2@@std@@VBarData@jsstructs@@@std@@@std@@@std@@@0@@Z 0041fb80 f i datarecorder.obj
 0001:0001eb90       ??$_Iter_cat@V?$move_iterator@V?$_Vector_iterator@V?$_Vector_val@U?$_Simple_types@V?$basic_string@DU?$char_traits@D@std@@V?$allocator@D@2@@std@@@std@@@std@@@std@@@std@@@std@@YA?AUrandom_access_iterator_tag@0@ABV?$move_iterator@V?$_Vector_iterator@V?$_Vector_val@U?$_Simple_types@V?$basic_string@DU?$char_traits@D@std@@V?$allocator@D@2@@std@@@std@@@std@@@std@@@0@@Z 0041fb90 f i datarecorder.obj
 0001:0001eba0       ??$_Kfn@$$CBV?$basic_string@DU?$char_traits@D@std@@V?$allocator@D@2@@std@@H@?$_Tmap_traits@V?$basic_string@DU?$char_traits@D@std@@V?$allocator@D@2@@std@@HU?$less@V?$basic_string@DU?$char_traits@D@std@@V?$allocator@D@2@@std@@@2@V?$allocator@U?$pair@$$CBV?$basic_string@DU?$char_traits@D@std@@V?$allocator@D@2@@std@@H@std@@@2@$0A@@std@@SAABV?$basic_string@DU?$char_traits@D@std@@V?$allocator@D@2@@1@ABU?$pair@$$CBV?$basic_string@DU?$char_traits@D@std@@V?$allocator@D@2@@std@@H@1@@Z 0041fba0 f i datarecorder.obj
 0001:0001ebb0       ??$_Kfn@$$CBV?$basic_string@DU?$char_traits@D@std@@V?$allocator@D@2@@std@@V?$shared_ptr@VEvent_Tick@@@2@@?$_Tmap_traits@V?$basic_string@DU?$char_traits@D@std@@V?$allocator@D@2@@std@@V?$shared_ptr@VEvent_Tick@@@2@U?$less@V?$basic_string@DU?$char_traits@D@std@@V?$allocator@D@2@@std@@@2@V?$allocator@U?$pair@$$CBV?$basic_string@DU?$char_traits@D@std@@V?$allocator@D@2@@std@@V?$shared_ptr@VEvent_Tick@@@2@@std@@@2@$0A@@std@@SAABV?$basic_string@DU?$char_traits@D@std@@V?$allocator@D@2@@1@ABU?$pair@$$CBV?$basic_string@DU?$char_traits@D@std@@V?$allocator@D@2@@std@@V?$shared_ptr@VEvent_Tick@@@2@@1@@Z 0041fbb0 f i datarecorder.obj
 0001:0001ebc0       ??$_Kfn@$$CBV?$basic_string@DU?$char_traits@D@std@@V?$allocator@D@2@@std@@V?$shared_ptr@Vlogger@spdlog@@@2@@?$_Umap_traits@V?$basic_string@DU?$char_traits@D@std@@V?$allocator@D@2@@std@@V?$shared_ptr@Vlogger@spdlog@@@2@V?$_Uhash_compare@V?$basic_string@DU?$char_traits@D@std@@V?$allocator@D@2@@std@@U?$hash@V?$basic_string@DU?$char_traits@D@std@@V?$allocator@D@2@@std@@@2@U?$equal_to@V?$basic_string@DU?$char_traits@D@std@@V?$allocator@D@2@@std@@@2@@2@V?$allocator@U?$pair@$$CBV?$basic_string@DU?$char_traits@D@std@@V?$allocator@D@2@@std@@V?$shared_ptr@Vlogger@spdlog@@@2@@std@@@2@$0A@@std@@SAABV?$basic_string@DU?$char_traits@D@std@@V?$allocator@D@2@@1@ABU?$pair@$$CBV?$basic_string@DU?$char_traits@D@std@@V?$allocator@D@2@@std@@V?$shared_ptr@Vlogger@spdlog@@@2@@1@@Z 0041fbc0 f i datarecorder.obj
 0001:0001ebd0       ??$_Kfn@$$CBV?$basic_string@DU?$char_traits@D@std@@V?$allocator@D@2@@std@@VBarData@jsstructs@@@?$_Tmap_traits@V?$basic_string@DU?$char_traits@D@std@@V?$allocator@D@2@@std@@VBarData@jsstructs@@U?$less@V?$basic_string@DU?$char_traits@D@std@@V?$allocator@D@2@@std@@@2@V?$allocator@U?$pair@$$CBV?$basic_string@DU?$char_traits@D@std@@V?$allocator@D@2@@std@@VBarData@jsstructs@@@std@@@2@$0A@@std@@SAABV?$basic_string@DU?$char_traits@D@std@@V?$allocator@D@2@@1@ABU?$pair@$$CBV?$basic_string@DU?$char_traits@D@std@@V?$allocator@D@2@@std@@VBarData@jsstructs@@@1@@Z 0041fbd0 f i datarecorder.obj
 0001:0001ebe0       ??$_Kfn@$$CBV?$basic_string@DU?$char_traits@D@std@@V?$allocator@D@2@@std@@_J@?$_Tmap_traits@V?$basic_string@DU?$char_traits@D@std@@V?$allocator@D@2@@std@@_JU?$less@V?$basic_string@DU?$char_traits@D@std@@V?$allocator@D@2@@std@@@2@V?$allocator@U?$pair@$$CBV?$basic_string@DU?$char_traits@D@std@@V?$allocator@D@2@@std@@_J@std@@@2@$0A@@std@@SAABV?$basic_string@DU?$char_traits@D@std@@V?$allocator@D@2@@1@ABU?$pair@$$CBV?$basic_string@DU?$char_traits@D@std@@V?$allocator@D@2@@std@@_J@1@@Z 0041fbe0 f i datarecorder.obj
 0001:0001ebf0       ??$_Launch@V?$_Bind@$00XU?$_Pmf_wrap@P8async_log_helper@details@spdlog@@AEXXZXV123@$$$V@std@@PAVasync_log_helper@details@spdlog@@@std@@@std@@YAXPAU_Thrd_imp_t@@$$QAV?$_Bind@$00XU?$_Pmf_wrap@P8async_log_helper@details@spdlog@@AEXXZXV123@$$$V@std@@PAVasync_log_helper@details@spdlog@@@0@@Z 0041fbf0 f i datarecorder.obj
 0001:0001ec60       ??$_Maklocchr@D@std@@YADDPADABU_Cvtvec@@@Z 0041fc60 f i datarecorder.obj
 0001:0001ec70       ??$_Maklocstr@D@std@@YAPADPBDPADABU_Cvtvec@@@Z 0041fc70 f i datarecorder.obj
 0001:0001ecb0       ??$_Move@AAPAV?$rotating_file_sink@Vmutex@std@@@sinks@spdlog@@@std@@YA$$QAPAV?$rotating_file_sink@Vmutex@std@@@sinks@spdlog@@AAPAV123@@Z 0041fcb0 f i datarecorder.obj
 0001:0001ecc0       ??$_Move@AAPAV?$stderr_sink@Vmutex@std@@@sinks@spdlog@@@std@@YA$$QAPAV?$stderr_sink@Vmutex@std@@@sinks@spdlog@@AAPAV123@@Z 0041fcc0 f i datarecorder.obj
 0001:0001ecd0       ??$_Move@AAPAVEvent@@@std@@YA$$QAPAVEvent@@AAPAV1@@Z 0041fcd0 f i datarecorder.obj
 0001:0001ece0       ??$_Move@AAPAVasync_logger@spdlog@@@std@@YA$$QAPAVasync_logger@spdlog@@AAPAV12@@Z 0041fce0 f i datarecorder.obj
 0001:0001ecf0       ??$_Move@AAPAVformatter@spdlog@@@std@@YA$$QAPAVformatter@spdlog@@AAPAV12@@Z 0041fcf0 f i datarecorder.obj
 0001:0001ed00       ??$_Move@AAPAVlogger@spdlog@@@std@@YA$$QAPAVlogger@spdlog@@AAPAV12@@Z 0041fd00 f i datarecorder.obj
 0001:0001ed10       ??$_Move@AAPAVpattern_formatter@spdlog@@@std@@YA$$QAPAVpattern_formatter@spdlog@@AAPAV12@@Z 0041fd10 f i datarecorder.obj
 0001:0001ed20       ??$_Ptr_cat@U?$pair@V?$BasicStringRef@D@fmt@@UArg@internal@2@@std@@U12@@std@@YA?AU_Nonscalar_ptr_iterator_tag@0@PAU?$pair@V?$BasicStringRef@D@fmt@@UArg@internal@2@@0@0@Z 0041fd20 f i datarecorder.obj
 0001:0001ed30       ??$_Ptr_cat@V?$_List_unchecked_iterator@V?$_List_val@U?$_List_simple_types@U?$pair@$$CBV?$basic_string@DU?$char_traits@D@std@@V?$allocator@D@2@@std@@V?$shared_ptr@Vlogger@spdlog@@@2@@std@@@std@@@std@@@std@@V12@@std@@YA?AU_Nonscalar_ptr_iterator_tag@0@PAV?$_List_unchecked_iterator@V?$_List_val@U?$_List_simple_types@U?$pair@$$CBV?$basic_string@DU?$char_traits@D@std@@V?$allocator@D@2@@std@@V?$shared_ptr@Vlogger@spdlog@@@2@@std@@@std@@@std@@@0@0@Z 0041fd30 f i datarecorder.obj
 0001:0001ed40       ??$_Ptr_cat@V?$move_iterator@V?$_Vector_iterator@V?$_Vector_val@U?$_Simple_types@V?$basic_string@DU?$char_traits@D@std@@V?$allocator@D@2@@std@@@std@@@std@@@std@@@std@@PAV?$basic_string@DU?$char_traits@D@std@@V?$allocator@D@2@@2@@std@@YA?AU_Nonscalar_ptr_iterator_tag@0@AAV?$move_iterator@V?$_Vector_iterator@V?$_Vector_val@U?$_Simple_types@V?$basic_string@DU?$char_traits@D@std@@V?$allocator@D@2@@std@@@std@@@std@@@std@@@0@AAPAV?$basic_string@DU?$char_traits@D@std@@V?$allocator@D@2@@0@@Z 0041fd40 f i datarecorder.obj
 0001:0001ed50       ??$_Ptr_cat@V?$shared_ptr@Vsink@sinks@spdlog@@@std@@V12@@std@@YA?AU_Nonscalar_ptr_iterator_tag@0@PAV?$shared_ptr@Vsink@sinks@spdlog@@@0@0@Z 0041fd50 f i datarecorder.obj
 0001:0001ed60       ??$_Ptr_cat@V?$shared_ptr@Vsink@sinks@spdlog@@@std@@V12@@std@@YA?AU_Nonscalar_ptr_iterator_tag@0@PBV?$shared_ptr@Vsink@sinks@spdlog@@@0@PAV20@@Z 0041fd60 f i datarecorder.obj
 0001:0001ed70       ??$_Ptr_cat@V?$unique_ptr@Vflag_formatter@details@spdlog@@U?$default_delete@Vflag_formatter@details@spdlog@@@std@@@std@@V12@@std@@YA?AU_Nonscalar_ptr_iterator_tag@0@PAV?$unique_ptr@Vflag_formatter@details@spdlog@@U?$default_delete@Vflag_formatter@details@spdlog@@@std@@@0@0@Z 0041fd70 f i datarecorder.obj
 0001:0001ed80       ??$_Rechecked@PAU?$pair@V?$BasicStringRef@D@fmt@@UArg@internal@2@@std@@PAU12@@std@@YAAAPAU?$pair@V?$BasicStringRef@D@fmt@@UArg@internal@2@@0@AAPAU10@PAU10@@Z 0041fd80 f i datarecorder.obj
 0001:0001ed90       ??$_Rechecked@PAV?$_List_unchecked_iterator@V?$_List_val@U?$_List_simple_types@U?$pair@$$CBV?$basic_string@DU?$char_traits@D@std@@V?$allocator@D@2@@std@@V?$shared_ptr@Vlogger@spdlog@@@2@@std@@@std@@@std@@@std@@PAV12@@std@@YAAAPAV?$_List_unchecked_iterator@V?$_List_val@U?$_List_simple_types@U?$pair@$$CBV?$basic_string@DU?$char_traits@D@std@@V?$allocator@D@2@@std@@V?$shared_ptr@Vlogger@spdlog@@@2@@std@@@std@@@std@@@0@AAPAV10@PAV10@@Z 0041fd90 f i datarecorder.obj
 0001:0001eda0       ??$_Rechecked@PAV?$shared_ptr@Vsink@sinks@spdlog@@@std@@PAV12@@std@@YAAAPAV?$shared_ptr@Vsink@sinks@spdlog@@@0@AAPAV10@PAV10@@Z 0041fda0 f i datarecorder.obj
 0001:0001edb0       ??$_Rechecked@PAV?$unique_ptr@Vflag_formatter@details@spdlog@@U?$default_delete@Vflag_formatter@details@spdlog@@@std@@@std@@PAV12@@std@@YAAAPAV?$unique_ptr@Vflag_formatter@details@spdlog@@U?$default_delete@Vflag_formatter@details@spdlog@@@std@@@0@AAPAV10@PAV10@@Z 0041fdb0 f i datarecorder.obj
 0001:0001edc0       ??$_Reset@V<lambda_39bc3a8adb760765dcdc68c9b1844393>@@@?$_Func_class@XABV?$basic_string@DU?$char_traits@D@std@@V?$allocator@D@2@@std@@@std@@IAEX$$QAV<lambda_39bc3a8adb760765dcdc68c9b1844393>@@@Z 0041fdc0 f i datarecorder.obj
 0001:0001edf0       ??$_Reset@V?$_Bind@$00XU?$_Pmf_wrap@P8Datarecorder@@AEXV?$shared_ptr@VEvent@@@std@@@ZXV1@V23@@std@@QAVDatarecorder@@AAV?$_Ph@$00@2@@std@@@?$_Func_class@XV?$shared_ptr@VEvent@@@std@@@std@@IAEX$$QAV?$_Bind@$00XU?$_Pmf_wrap@P8Datarecorder@@AEXV?$shared_ptr@VEvent@@@std@@@ZXV1@V23@@std@@QAVDatarecorder@@AAV?$_Ph@$00@2@@1@@Z 0041fdf0 f i datarecorder.obj
 0001:0001ee30       ??$_Reset@V?$_Bind@$00XU?$_Pmf_wrap@P8Datarecorder@@AEXXZXV1@$$$V@std@@QAVDatarecorder@@@std@@@?$_Func_class@XV?$shared_ptr@VEvent@@@std@@@std@@IAEX$$QAV?$_Bind@$00XU?$_Pmf_wrap@P8Datarecorder@@AEXXZXV1@$$$V@std@@QAVDatarecorder@@@1@@Z 0041fe30 f i datarecorder.obj
 0001:0001ee60       ??$_Reset@V?$stderr_sink@Vmutex@std@@@sinks@spdlog@@@?$_Ptr_base@V?$stderr_sink@Vmutex@std@@@sinks@spdlog@@@std@@QAEXABV01@@Z 0041fe60 f i datarecorder.obj
 0001:0001eed0       ??$_Reset@VEvent@@@?$_Ptr_base@VEvent@@@std@@QAEXABV01@@Z 0041fed0 f i datarecorder.obj
 0001:0001ef40       ??$_Reset@VEvent@@@?$_Ptr_base@VEvent_Log@@@std@@QAEXABV?$_Ptr_base@VEvent@@@1@ABU_Static_tag@1@@Z 0041ff40 f i datarecorder.obj
 0001:0001efb0       ??$_Reset@VEvent@@@?$_Ptr_base@VEvent_Tick@@@std@@QAEXABV?$_Ptr_base@VEvent@@@1@ABU_Static_tag@1@@Z 0041ffb0 f i datarecorder.obj
 0001:0001f020       ??$_Reset@VEvent_Tick@@@?$_Ptr_base@VEvent_Tick@@@std@@QAEXABV01@@Z 00420020 f i datarecorder.obj
 0001:0001f090       ??$_Reset@Vformatter@spdlog@@@?$_Ptr_base@Vformatter@spdlog@@@std@@QAEXABV01@@Z 00420090 f i datarecorder.obj
 0001:0001f100       ??$_Reset@Vlogger@spdlog@@@?$_Ptr_base@Vlogger@spdlog@@@std@@QAEXABV01@@Z 00420100 f i datarecorder.obj
 0001:0001f170       ??$_Reset@Vsink@sinks@spdlog@@@?$_Ptr_base@Vsink@sinks@spdlog@@@std@@QAEXABV01@@Z 00420170 f i datarecorder.obj
 0001:0001f1e0       ??$_Reset_alloc@V<lambda_39bc3a8adb760765dcdc68c9b1844393>@@V?$allocator@V?$_Func_class@XABV?$basic_string@DU?$char_traits@D@std@@V?$allocator@D@2@@std@@@std@@@std@@@?$_Func_class@XABV?$basic_string@DU?$char_traits@D@std@@V?$allocator@D@2@@std@@@std@@IAEX$$QAV<lambda_39bc3a8adb760765dcdc68c9b1844393>@@V?$allocator@V?$_Func_class@XABV?$basic_string@DU?$char_traits@D@std@@V?$allocator@D@2@@std@@@std@@@1@@Z 004201e0 f i datarecorder.obj
 0001:0001f210       ??$_Reset_alloc@V?$_Bind@$00XU?$_Pmf_wrap@P8Datarecorder@@AEXV?$shared_ptr@VEvent@@@std@@@ZXV1@V23@@std@@QAVDatarecorder@@AAV?$_Ph@$00@2@@std@@V?$allocator@V?$_Func_class@XV?$shared_ptr@VEvent@@@std@@@std@@@2@@?$_Func_class@XV?$shared_ptr@VEvent@@@std@@@std@@IAEX$$QAV?$_Bind@$00XU?$_Pmf_wrap@P8Datarecorder@@AEXV?$shared_ptr@VEvent@@@std@@@ZXV1@V23@@std@@QAVDatarecorder@@AAV?$_Ph@$00@2@@1@V?$allocator@V?$_Func_class@XV?$shared_ptr@VEvent@@@std@@@std@@@1@@Z 00420210 f i datarecorder.obj
 0001:0001f250       ??$_Reset_alloc@V?$_Bind@$00XU?$_Pmf_wrap@P8Datarecorder@@AEXXZXV1@$$$V@std@@QAVDatarecorder@@@std@@V?$allocator@V?$_Func_class@XV?$shared_ptr@VEvent@@@std@@@std@@@2@@?$_Func_class@XV?$shared_ptr@VEvent@@@std@@@std@@IAEX$$QAV?$_Bind@$00XU?$_Pmf_wrap@P8Datarecorder@@AEXXZXV1@$$$V@std@@QAVDatarecorder@@@1@V?$allocator@V?$_Func_class@XV?$shared_ptr@VEvent@@@std@@@std@@@1@@Z 00420250 f i datarecorder.obj
 0001:0001f280       ??$_Resetp0@V?$rotating_file_sink@Vmutex@std@@@sinks@spdlog@@@?$shared_ptr@V?$rotating_file_sink@Vmutex@std@@@sinks@spdlog@@@std@@QAEXPAV?$rotating_file_sink@Vmutex@std@@@sinks@spdlog@@PAV_Ref_count_base@1@@Z 00420280 f i datarecorder.obj
 0001:0001f2e0       ??$_Resetp0@V?$stderr_sink@Vmutex@std@@@sinks@spdlog@@@?$shared_ptr@V?$stderr_sink@Vmutex@std@@@sinks@spdlog@@@std@@QAEXPAV?$stderr_sink@Vmutex@std@@@sinks@spdlog@@PAV_Ref_count_base@1@@Z 004202e0 f i datarecorder.obj
 0001:0001f340       ??$_Resetp0@Vasync_logger@spdlog@@@?$shared_ptr@Vasync_logger@spdlog@@@std@@QAEXPAVasync_logger@spdlog@@PAV_Ref_count_base@1@@Z 00420340 f i datarecorder.obj
 0001:0001f3a0       ??$_Resetp0@Vlogger@spdlog@@@?$shared_ptr@Vlogger@spdlog@@@std@@QAEXPAVlogger@spdlog@@PAV_Ref_count_base@1@@Z 004203a0 f i datarecorder.obj
 0001:0001f400       ??$_Resetp0@Vpattern_formatter@spdlog@@@?$shared_ptr@Vpattern_formatter@spdlog@@@std@@QAEXPAVpattern_formatter@spdlog@@PAV_Ref_count_base@1@@Z 00420400 f i datarecorder.obj
 0001:0001f460       ??$_Test_callable@V<lambda_39bc3a8adb760765dcdc68c9b1844393>@@@std@@YA_NAAV<lambda_39bc3a8adb760765dcdc68c9b1844393>@@@Z 00420460 f i datarecorder.obj
 0001:0001f470       ??$_Test_callable@V<lambda_39bc3a8adb760765dcdc68c9b1844393>@@@std@@YA_NAAV<lambda_39bc3a8adb760765dcdc68c9b1844393>@@U?$integral_constant@_N$0A@@0@@Z 00420470 f i datarecorder.obj
 0001:0001f480       ??$_Test_callable@V?$_Bind@$00XU?$_Pmf_wrap@P8Datarecorder@@AEXV?$shared_ptr@VEvent@@@std@@@ZXV1@V23@@std@@QAVDatarecorder@@AAV?$_Ph@$00@2@@std@@@std@@YA_NAAV?$_Bind@$00XU?$_Pmf_wrap@P8Datarecorder@@AEXV?$shared_ptr@VEvent@@@std@@@ZXV1@V23@@std@@QAVDatarecorder@@AAV?$_Ph@$00@2@@0@@Z 00420480 f i datarecorder.obj
 0001:0001f490       ??$_Test_callable@V?$_Bind@$00XU?$_Pmf_wrap@P8Datarecorder@@AEXV?$shared_ptr@VEvent@@@std@@@ZXV1@V23@@std@@QAVDatarecorder@@AAV?$_Ph@$00@2@@std@@@std@@YA_NAAV?$_Bind@$00XU?$_Pmf_wrap@P8Datarecorder@@AEXV?$shared_ptr@VEvent@@@std@@@ZXV1@V23@@std@@QAVDatarecorder@@AAV?$_Ph@$00@2@@0@U?$integral_constant@_N$0A@@0@@Z 00420490 f i datarecorder.obj
 0001:0001f4a0       ??$_Test_callable@V?$_Bind@$00XU?$_Pmf_wrap@P8Datarecorder@@AEXXZXV1@$$$V@std@@QAVDatarecorder@@@std@@@std@@YA_NAAV?$_Bind@$00XU?$_Pmf_wrap@P8Datarecorder@@AEXXZXV1@$$$V@std@@QAVDatarecorder@@@0@@Z 004204a0 f i datarecorder.obj
 0001:0001f4b0       ??$_Test_callable@V?$_Bind@$00XU?$_Pmf_wrap@P8Datarecorder@@AEXXZXV1@$$$V@std@@QAVDatarecorder@@@std@@@std@@YA_NAAV?$_Bind@$00XU?$_Pmf_wrap@P8Datarecorder@@AEXXZXV1@$$$V@std@@QAVDatarecorder@@@0@U?$integral_constant@_N$0A@@0@@Z 004204b0 f i datarecorder.obj
 0001:0001f4c0       ??$_To_xtime@_JU?$ratio@$00$0DOI@@std@@@std@@YA?AUxtime@@ABV?$duration@_JU?$ratio@$00$0DOI@@std@@@chrono@0@@Z 004204c0 f i datarecorder.obj
 0001:0001f560       ??$_Ucopy@PBV?$shared_ptr@Vsink@sinks@spdlog@@@std@@@?$vector@V?$shared_ptr@Vsink@sinks@spdlog@@@std@@V?$allocator@V?$shared_ptr@Vsink@sinks@spdlog@@@std@@@2@@std@@IAEPAV?$shared_ptr@Vsink@sinks@spdlog@@@1@PBV21@0PAV21@@Z 00420560 f i datarecorder.obj
 0001:0001f590       ??$_Ucopy@V?$_Vector_const_iterator@V?$_Vector_val@U?$_Simple_types@V?$shared_ptr@Vsink@sinks@spdlog@@@std@@@std@@@std@@@std@@@?$vector@V?$shared_ptr@Vsink@sinks@spdlog@@@std@@V?$allocator@V?$shared_ptr@Vsink@sinks@spdlog@@@std@@@2@@std@@IAEPAV?$shared_ptr@Vsink@sinks@spdlog@@@1@V?$_Vector_const_iterator@V?$_Vector_val@U?$_Simple_types@V?$shared_ptr@Vsink@sinks@spdlog@@@std@@@std@@@std@@@1@0PAV21@@Z 00420590 f i datarecorder.obj
 0001:0001f5c0       ??$_Ucopy@V?$move_iterator@V?$_Vector_iterator@V?$_Vector_val@U?$_Simple_types@V?$basic_string@DU?$char_traits@D@std@@V?$allocator@D@2@@std@@@std@@@std@@@std@@@std@@@?$vector@V?$basic_string@DU?$char_traits@D@std@@V?$allocator@D@2@@std@@V?$allocator@V?$basic_string@DU?$char_traits@D@std@@V?$allocator@D@2@@std@@@2@@std@@IAEPAV?$basic_string@DU?$char_traits@D@std@@V?$allocator@D@2@@1@V?$move_iterator@V?$_Vector_iterator@V?$_Vector_val@U?$_Simple_types@V?$basic_string@DU?$char_traits@D@std@@V?$allocator@D@2@@std@@@std@@@std@@@std@@@1@0PAV21@@Z 004205c0 f i datarecorder.obj
 0001:0001f5f0       ??$_Umove@PAU?$pair@V?$BasicStringRef@D@fmt@@UArg@internal@2@@std@@@?$vector@U?$pair@V?$BasicStringRef@D@fmt@@UArg@internal@2@@std@@V?$allocator@U?$pair@V?$BasicStringRef@D@fmt@@UArg@internal@2@@std@@@2@@std@@IAEPAU?$pair@V?$BasicStringRef@D@fmt@@UArg@internal@2@@1@PAU21@00@Z 004205f0 f i datarecorder.obj
 0001:0001f620       ??$_Umove@PAV?$_List_unchecked_iterator@V?$_List_val@U?$_List_simple_types@U?$pair@$$CBV?$basic_string@DU?$char_traits@D@std@@V?$allocator@D@2@@std@@V?$shared_ptr@Vlogger@spdlog@@@2@@std@@@std@@@std@@@std@@@?$vector@V?$_List_unchecked_iterator@V?$_List_val@U?$_List_simple_types@U?$pair@$$CBV?$basic_string@DU?$char_traits@D@std@@V?$allocator@D@2@@std@@V?$shared_ptr@Vlogger@spdlog@@@2@@std@@@std@@@std@@@std@@U?$_Wrap_alloc@V?$allocator@V?$_List_unchecked_iterator@V?$_List_val@U?$_List_simple_types@U?$pair@$$CBV?$basic_string@DU?$char_traits@D@std@@V?$allocator@D@2@@std@@V?$shared_ptr@Vlogger@spdlog@@@2@@std@@@std@@@std@@@std@@@std@@@2@@std@@IAEPAV?$_List_unchecked_iterator@V?$_List_val@U?$_List_simple_types@U?$pair@$$CBV?$basic_string@DU?$char_traits@D@std@@V?$allocator@D@2@@std@@V?$shared_ptr@Vlogger@spdlog@@@2@@std@@@std@@@std@@@1@PAV21@00@Z 00420620 f i datarecorder.obj
 0001:0001f650       ??$_Umove@PAV?$unique_ptr@Vflag_formatter@details@spdlog@@U?$default_delete@Vflag_formatter@details@spdlog@@@std@@@std@@@?$vector@V?$unique_ptr@Vflag_formatter@details@spdlog@@U?$default_delete@Vflag_formatter@details@spdlog@@@std@@@std@@V?$allocator@V?$unique_ptr@Vflag_formatter@details@spdlog@@U?$default_delete@Vflag_formatter@details@spdlog@@@std@@@std@@@2@@std@@IAEPAV?$unique_ptr@Vflag_formatter@details@spdlog@@U?$default_delete@Vflag_formatter@details@spdlog@@@std@@@1@PAV21@00@Z 00420650 f i datarecorder.obj
 0001:0001f680       ??$_Unchecked@PAU?$pair@V?$BasicStringRef@D@fmt@@UArg@internal@2@@std@@@std@@YAPAU?$pair@V?$BasicStringRef@D@fmt@@UArg@internal@2@@0@PAU10@@Z 00420680 f i datarecorder.obj
 0001:0001f690       ??$_Unchecked@PAV?$_List_unchecked_iterator@V?$_List_val@U?$_List_simple_types@U?$pair@$$CBV?$basic_string@DU?$char_traits@D@std@@V?$allocator@D@2@@std@@V?$shared_ptr@Vlogger@spdlog@@@2@@std@@@std@@@std@@@std@@@std@@YAPAV?$_List_unchecked_iterator@V?$_List_val@U?$_List_simple_types@U?$pair@$$CBV?$basic_string@DU?$char_traits@D@std@@V?$allocator@D@2@@std@@V?$shared_ptr@Vlogger@spdlog@@@2@@std@@@std@@@std@@@0@PAV10@@Z 00420690 f i datarecorder.obj
 0001:0001f6a0       ??$_Unchecked@PAV?$shared_ptr@Vsink@sinks@spdlog@@@std@@@std@@YAPAV?$shared_ptr@Vsink@sinks@spdlog@@@0@PAV10@@Z 004206a0 f i datarecorder.obj
 0001:0001f6b0       ??$_Unchecked@PAV?$unique_ptr@Vflag_formatter@details@spdlog@@U?$default_delete@Vflag_formatter@details@spdlog@@@std@@@std@@@std@@YAPAV?$unique_ptr@Vflag_formatter@details@spdlog@@U?$default_delete@Vflag_formatter@details@spdlog@@@std@@@0@PAV10@@Z 004206b0 f i datarecorder.obj
 0001:0001f6c0       ??$_Unchecked@PBV?$shared_ptr@Vsink@sinks@spdlog@@@std@@@std@@YAPBV?$shared_ptr@Vsink@sinks@spdlog@@@0@PBV10@@Z 004206c0 f i datarecorder.obj
 0001:0001f6d0       ??$_Unchecked@V?$_Vector_val@U?$_Simple_types@V?$shared_ptr@Vsink@sinks@spdlog@@@std@@@std@@@std@@@std@@YAPBV?$shared_ptr@Vsink@sinks@spdlog@@@0@V?$_Vector_const_iterator@V?$_Vector_val@U?$_Simple_types@V?$shared_ptr@Vsink@sinks@spdlog@@@std@@@std@@@std@@@0@@Z 004206d0 f i datarecorder.obj
 0001:0001f6e0       ??$_Unchecked@V?$move_iterator@V?$_Vector_iterator@V?$_Vector_val@U?$_Simple_types@V?$basic_string@DU?$char_traits@D@std@@V?$allocator@D@2@@std@@@std@@@std@@@std@@@std@@@std@@YA?AV?$move_iterator@V?$_Vector_iterator@V?$_Vector_val@U?$_Simple_types@V?$basic_string@DU?$char_traits@D@std@@V?$allocator@D@2@@std@@@std@@@std@@@std@@@0@V10@@Z 004206e0 f i datarecorder.obj
 0001:0001f6f0       ??$_Uninit_copy@PBV?$shared_ptr@Vsink@sinks@spdlog@@@std@@PAV12@U?$_Wrap_alloc@V?$allocator@V?$shared_ptr@Vsink@sinks@spdlog@@@std@@@std@@@2@@std@@YAPAV?$shared_ptr@Vsink@sinks@spdlog@@@0@PBV10@0PAV10@AAU?$_Wrap_alloc@V?$allocator@V?$shared_ptr@Vsink@sinks@spdlog@@@std@@@std@@@0@@Z 004206f0 f i datarecorder.obj
 0001:0001f710       ??$_Uninit_copy@PBV?$shared_ptr@Vsink@sinks@spdlog@@@std@@PAV12@V?$allocator@V?$shared_ptr@Vsink@sinks@spdlog@@@std@@@2@@std@@YAPAV?$shared_ptr@Vsink@sinks@spdlog@@@0@PBV10@0PAV10@AAU?$_Wrap_alloc@V?$allocator@V?$shared_ptr@Vsink@sinks@spdlog@@@std@@@std@@@0@U_Nonscalar_ptr_iterator_tag@0@@Z 00420710 f i datarecorder.obj
 0001:0001f800       ??$_Uninit_copy@V?$move_iterator@V?$_Vector_iterator@V?$_Vector_val@U?$_Simple_types@V?$basic_string@DU?$char_traits@D@std@@V?$allocator@D@2@@std@@@std@@@std@@@std@@@std@@PAV?$basic_string@DU?$char_traits@D@std@@V?$allocator@D@2@@2@U?$_Wrap_alloc@V?$allocator@V?$basic_string@DU?$char_traits@D@std@@V?$allocator@D@2@@std@@@std@@@2@@std@@YAPAV?$basic_string@DU?$char_traits@D@std@@V?$allocator@D@2@@0@V?$move_iterator@V?$_Vector_iterator@V?$_Vector_val@U?$_Simple_types@V?$basic_string@DU?$char_traits@D@std@@V?$allocator@D@2@@std@@@std@@@std@@@std@@@0@0PAV10@AAU?$_Wrap_alloc@V?$allocator@V?$basic_string@DU?$char_traits@D@std@@V?$allocator@D@2@@std@@@std@@@0@@Z 00420800 f i datarecorder.obj
 0001:0001f820       ??$_Uninit_copy@V?$move_iterator@V?$_Vector_iterator@V?$_Vector_val@U?$_Simple_types@V?$basic_string@DU?$char_traits@D@std@@V?$allocator@D@2@@std@@@std@@@std@@@std@@@std@@PAV?$basic_string@DU?$char_traits@D@std@@V?$allocator@D@2@@2@V?$allocator@V?$basic_string@DU?$char_traits@D@std@@V?$allocator@D@2@@std@@@2@@std@@YAPAV?$basic_string@DU?$char_traits@D@std@@V?$allocator@D@2@@0@V?$move_iterator@V?$_Vector_iterator@V?$_Vector_val@U?$_Simple_types@V?$basic_string@DU?$char_traits@D@std@@V?$allocator@D@2@@std@@@std@@@std@@@std@@@0@0PAV10@AAU?$_Wrap_alloc@V?$allocator@V?$basic_string@DU?$char_traits@D@std@@V?$allocator@D@2@@std@@@std@@@0@U_Nonscalar_ptr_iterator_tag@0@@Z 00420820 f i datarecorder.obj
 0001:0001f8c0       ??$_Uninit_fill@DD@std@@YAXPAD0ABDU_Scalar_ptr_iterator_tag@0@@Z 004208c0 f i datarecorder.obj
 0001:0001f8e0       ??$_Uninit_fill_n@DID@std@@YAPADPADIABDU_Scalar_ptr_iterator_tag@0@@Z 004208e0 f i datarecorder.obj
 0001:0001f910       ??$_Uninit_fill_n@PAV?$_List_unchecked_iterator@V?$_List_val@U?$_List_simple_types@U?$pair@$$CBV?$basic_string@DU?$char_traits@D@std@@V?$allocator@D@2@@std@@V?$shared_ptr@Vlogger@spdlog@@@2@@std@@@std@@@std@@@std@@IV12@U?$_Wrap_alloc@V?$allocator@V?$_List_unchecked_iterator@V?$_List_val@U?$_List_simple_types@U?$pair@$$CBV?$basic_string@DU?$char_traits@D@std@@V?$allocator@D@2@@std@@V?$shared_ptr@Vlogger@spdlog@@@2@@std@@@std@@@std@@@std@@@std@@@2@V12@@std@@YAXPAV?$_List_unchecked_iterator@V?$_List_val@U?$_List_simple_types@U?$pair@$$CBV?$basic_string@DU?$char_traits@D@std@@V?$allocator@D@2@@std@@V?$shared_ptr@Vlogger@spdlog@@@2@@std@@@std@@@std@@@0@IPBV10@AAU?$_Wrap_alloc@U?$_Wrap_alloc@V?$allocator@V?$_List_unchecked_iterator@V?$_List_val@U?$_List_simple_types@U?$pair@$$CBV?$basic_string@DU?$char_traits@D@std@@V?$allocator@D@2@@std@@V?$shared_ptr@Vlogger@spdlog@@@2@@std@@@std@@@std@@@std@@@std@@@std@@@0@0U_Nonscalar_ptr_iterator_tag@0@@Z 00420910 f i datarecorder.obj
 0001:0001f940       ??$_Uninit_move@PAU?$pair@V?$BasicStringRef@D@fmt@@UArg@internal@2@@std@@PAU12@U?$_Wrap_alloc@V?$allocator@U?$pair@V?$BasicStringRef@D@fmt@@UArg@internal@2@@std@@@std@@@2@@std@@YAPAU?$pair@V?$BasicStringRef@D@fmt@@UArg@internal@2@@0@PAU10@00AAU?$_Wrap_alloc@V?$allocator@U?$pair@V?$BasicStringRef@D@fmt@@UArg@internal@2@@std@@@std@@@0@@Z 00420940 f i datarecorder.obj
 0001:0001f970       ??$_Uninit_move@PAU?$pair@V?$BasicStringRef@D@fmt@@UArg@internal@2@@std@@PAU12@V?$allocator@U?$pair@V?$BasicStringRef@D@fmt@@UArg@internal@2@@std@@@2@U12@@std@@YAPAU?$pair@V?$BasicStringRef@D@fmt@@UArg@internal@2@@0@PAU10@00AAU?$_Wrap_alloc@V?$allocator@U?$pair@V?$BasicStringRef@D@fmt@@UArg@internal@2@@std@@@std@@@0@0U_Nonscalar_ptr_iterator_tag@0@@Z 00420970 f i datarecorder.obj
 0001:0001f9b0       ??$_Uninit_move@PAV?$_List_unchecked_iterator@V?$_List_val@U?$_List_simple_types@U?$pair@$$CBV?$basic_string@DU?$char_traits@D@std@@V?$allocator@D@2@@std@@V?$shared_ptr@Vlogger@spdlog@@@2@@std@@@std@@@std@@@std@@PAV12@U?$_Wrap_alloc@U?$_Wrap_alloc@V?$allocator@V?$_List_unchecked_iterator@V?$_List_val@U?$_List_simple_types@U?$pair@$$CBV?$basic_string@DU?$char_traits@D@std@@V?$allocator@D@2@@std@@V?$shared_ptr@Vlogger@spdlog@@@2@@std@@@std@@@std@@@std@@@std@@@std@@@2@@std@@YAPAV?$_List_unchecked_iterator@V?$_List_val@U?$_List_simple_types@U?$pair@$$CBV?$basic_string@DU?$char_traits@D@std@@V?$allocator@D@2@@std@@V?$shared_ptr@Vlogger@spdlog@@@2@@std@@@std@@@std@@@0@PAV10@00AAU?$_Wrap_alloc@U?$_Wrap_alloc@V?$allocator@V?$_List_unchecked_iterator@V?$_List_val@U?$_List_simple_types@U?$pair@$$CBV?$basic_string@DU?$char_traits@D@std@@V?$allocator@D@2@@std@@V?$shared_ptr@Vlogger@spdlog@@@2@@std@@@std@@@std@@@std@@@std@@@std@@@0@@Z 004209b0 f i datarecorder.obj
 0001:0001f9e0       ??$_Uninit_move@PAV?$_List_unchecked_iterator@V?$_List_val@U?$_List_simple_types@U?$pair@$$CBV?$basic_string@DU?$char_traits@D@std@@V?$allocator@D@2@@std@@V?$shared_ptr@Vlogger@spdlog@@@2@@std@@@std@@@std@@@std@@PAV12@U?$_Wrap_alloc@V?$allocator@V?$_List_unchecked_iterator@V?$_List_val@U?$_List_simple_types@U?$pair@$$CBV?$basic_string@DU?$char_traits@D@std@@V?$allocator@D@2@@std@@V?$shared_ptr@Vlogger@spdlog@@@2@@std@@@std@@@std@@@std@@@std@@@2@V12@@std@@YAPAV?$_List_unchecked_iterator@V?$_List_val@U?$_List_simple_types@U?$pair@$$CBV?$basic_string@DU?$char_traits@D@std@@V?$allocator@D@2@@std@@V?$shared_ptr@Vlogger@spdlog@@@2@@std@@@std@@@std@@@0@PAV10@00AAU?$_Wrap_alloc@U?$_Wrap_alloc@V?$allocator@V?$_List_unchecked_iterator@V?$_List_val@U?$_List_simple_types@U?$pair@$$CBV?$basic_string@DU?$char_traits@D@std@@V?$allocator@D@2@@std@@V?$shared_ptr@Vlogger@spdlog@@@2@@std@@@std@@@std@@@std@@@std@@@std@@@0@0U_Nonscalar_ptr_iterator_tag@0@@Z 004209e0 f i datarecorder.obj
 0001:0001fa20       ??$_Uninit_move@PAV?$unique_ptr@Vflag_formatter@details@spdlog@@U?$default_delete@Vflag_formatter@details@spdlog@@@std@@@std@@PAV12@U?$_Wrap_alloc@V?$allocator@V?$unique_ptr@Vflag_formatter@details@spdlog@@U?$default_delete@Vflag_formatter@details@spdlog@@@std@@@std@@@std@@@2@@std@@YAPAV?$unique_ptr@Vflag_formatter@details@spdlog@@U?$default_delete@Vflag_formatter@details@spdlog@@@std@@@0@PAV10@00AAU?$_Wrap_alloc@V?$allocator@V?$unique_ptr@Vflag_formatter@details@spdlog@@U?$default_delete@Vflag_formatter@details@spdlog@@@std@@@std@@@std@@@0@@Z 00420a20 f i datarecorder.obj
 0001:0001fa50       ??$_Uninit_move@PAV?$unique_ptr@Vflag_formatter@details@spdlog@@U?$default_delete@Vflag_formatter@details@spdlog@@@std@@@std@@PAV12@V?$allocator@V?$unique_ptr@Vflag_formatter@details@spdlog@@U?$default_delete@Vflag_formatter@details@spdlog@@@std@@@std@@@2@V12@@std@@YAPAV?$unique_ptr@Vflag_formatter@details@spdlog@@U?$default_delete@Vflag_formatter@details@spdlog@@@std@@@0@PAV10@00AAU?$_Wrap_alloc@V?$allocator@V?$unique_ptr@Vflag_formatter@details@spdlog@@U?$default_delete@Vflag_formatter@details@spdlog@@@std@@@std@@@std@@@0@0U_Nonscalar_ptr_iterator_tag@0@@Z 00420a50 f i datarecorder.obj
 0001:0001faa0       ??$_Uninitialized_copy@PBV?$shared_ptr@Vsink@sinks@spdlog@@@std@@PAV12@U?$_Wrap_alloc@V?$allocator@V?$shared_ptr@Vsink@sinks@spdlog@@@std@@@std@@@2@@std@@YAPAV?$shared_ptr@Vsink@sinks@spdlog@@@0@PBV10@0PAV10@AAU?$_Wrap_alloc@V?$allocator@V?$shared_ptr@Vsink@sinks@spdlog@@@std@@@std@@@0@@Z 00420aa0 f i datarecorder.obj
 0001:0001fac0       ??$_Uninitialized_copy@V?$_Vector_const_iterator@V?$_Vector_val@U?$_Simple_types@V?$shared_ptr@Vsink@sinks@spdlog@@@std@@@std@@@std@@@std@@PAV?$shared_ptr@Vsink@sinks@spdlog@@@2@U?$_Wrap_alloc@V?$allocator@V?$shared_ptr@Vsink@sinks@spdlog@@@std@@@std@@@2@@std@@YAPAV?$shared_ptr@Vsink@sinks@spdlog@@@0@V?$_Vector_const_iterator@V?$_Vector_val@U?$_Simple_types@V?$shared_ptr@Vsink@sinks@spdlog@@@std@@@std@@@std@@@0@0PAV10@AAU?$_Wrap_alloc@V?$allocator@V?$shared_ptr@Vsink@sinks@spdlog@@@std@@@std@@@0@@Z 00420ac0 f i datarecorder.obj
 0001:0001fae0       ??$_Uninitialized_copy@V?$move_iterator@V?$_Vector_iterator@V?$_Vector_val@U?$_Simple_types@V?$basic_string@DU?$char_traits@D@std@@V?$allocator@D@2@@std@@@std@@@std@@@std@@@std@@PAV?$basic_string@DU?$char_traits@D@std@@V?$allocator@D@2@@2@U?$_Wrap_alloc@V?$allocator@V?$basic_string@DU?$char_traits@D@std@@V?$allocator@D@2@@std@@@std@@@2@@std@@YAPAV?$basic_string@DU?$char_traits@D@std@@V?$allocator@D@2@@0@V?$move_iterator@V?$_Vector_iterator@V?$_Vector_val@U?$_Simple_types@V?$basic_string@DU?$char_traits@D@std@@V?$allocator@D@2@@std@@@std@@@std@@@std@@@0@0PAV10@AAU?$_Wrap_alloc@V?$allocator@V?$basic_string@DU?$char_traits@D@std@@V?$allocator@D@2@@std@@@std@@@0@@Z 00420ae0 f i datarecorder.obj
 0001:0001fb00       ??$_Uninitialized_fill_n@PAV?$_List_unchecked_iterator@V?$_List_val@U?$_List_simple_types@U?$pair@$$CBV?$basic_string@DU?$char_traits@D@std@@V?$allocator@D@2@@std@@V?$shared_ptr@Vlogger@spdlog@@@2@@std@@@std@@@std@@@std@@IV12@U?$_Wrap_alloc@U?$_Wrap_alloc@V?$allocator@V?$_List_unchecked_iterator@V?$_List_val@U?$_List_simple_types@U?$pair@$$CBV?$basic_string@DU?$char_traits@D@std@@V?$allocator@D@2@@std@@V?$shared_ptr@Vlogger@spdlog@@@2@@std@@@std@@@std@@@std@@@std@@@std@@@2@@std@@YAXPAV?$_List_unchecked_iterator@V?$_List_val@U?$_List_simple_types@U?$pair@$$CBV?$basic_string@DU?$char_traits@D@std@@V?$allocator@D@2@@std@@V?$shared_ptr@Vlogger@spdlog@@@2@@std@@@std@@@std@@@0@IPBV10@AAU?$_Wrap_alloc@U?$_Wrap_alloc@V?$allocator@V?$_List_unchecked_iterator@V?$_List_val@U?$_List_simple_types@U?$pair@$$CBV?$basic_string@DU?$char_traits@D@std@@V?$allocator@D@2@@std@@V?$shared_ptr@Vlogger@spdlog@@@2@@std@@@std@@@std@@@std@@@std@@@std@@@0@@Z 00420b00 f i datarecorder.obj
 0001:0001fb30       ??$_Uninitialized_move@PAU?$pair@V?$BasicStringRef@D@fmt@@UArg@internal@2@@std@@PAU12@U?$_Wrap_alloc@V?$allocator@U?$pair@V?$BasicStringRef@D@fmt@@UArg@internal@2@@std@@@std@@@2@@std@@YAPAU?$pair@V?$BasicStringRef@D@fmt@@UArg@internal@2@@0@PAU10@00AAU?$_Wrap_alloc@V?$allocator@U?$pair@V?$BasicStringRef@D@fmt@@UArg@internal@2@@std@@@std@@@0@@Z 00420b30 f i datarecorder.obj
 0001:0001fb50       ??$_Uninitialized_move@PAV?$_List_unchecked_iterator@V?$_List_val@U?$_List_simple_types@U?$pair@$$CBV?$basic_string@DU?$char_traits@D@std@@V?$allocator@D@2@@std@@V?$shared_ptr@Vlogger@spdlog@@@2@@std@@@std@@@std@@@std@@PAV12@U?$_Wrap_alloc@U?$_Wrap_alloc@V?$allocator@V?$_List_unchecked_iterator@V?$_List_val@U?$_List_simple_types@U?$pair@$$CBV?$basic_string@DU?$char_traits@D@std@@V?$allocator@D@2@@std@@V?$shared_ptr@Vlogger@spdlog@@@2@@std@@@std@@@std@@@std@@@std@@@std@@@2@@std@@YAPAV?$_List_unchecked_iterator@V?$_List_val@U?$_List_simple_types@U?$pair@$$CBV?$basic_string@DU?$char_traits@D@std@@V?$allocator@D@2@@std@@V?$shared_ptr@Vlogger@spdlog@@@2@@std@@@std@@@std@@@0@PAV10@00AAU?$_Wrap_alloc@U?$_Wrap_alloc@V?$allocator@V?$_List_unchecked_iterator@V?$_List_val@U?$_List_simple_types@U?$pair@$$CBV?$basic_string@DU?$char_traits@D@std@@V?$allocator@D@2@@std@@V?$shared_ptr@Vlogger@spdlog@@@2@@std@@@std@@@std@@@std@@@std@@@std@@@0@@Z 00420b50 f i datarecorder.obj
 0001:0001fb70       ??$_Uninitialized_move@PAV?$unique_ptr@Vflag_formatter@details@spdlog@@U?$default_delete@Vflag_formatter@details@spdlog@@@std@@@std@@PAV12@U?$_Wrap_alloc@V?$allocator@V?$unique_ptr@Vflag_formatter@details@spdlog@@U?$default_delete@Vflag_formatter@details@spdlog@@@std@@@std@@@std@@@2@@std@@YAPAV?$unique_ptr@Vflag_formatter@details@spdlog@@U?$default_delete@Vflag_formatter@details@spdlog@@@std@@@0@PAV10@00AAU?$_Wrap_alloc@V?$allocator@V?$unique_ptr@Vflag_formatter@details@spdlog@@U?$default_delete@Vflag_formatter@details@spdlog@@@std@@@std@@@std@@@0@@Z 00420b70 f i datarecorder.obj
 0001:0001fb90       ??$_Val_type@PAU?$pair@V?$BasicStringRef@D@fmt@@UArg@internal@2@@std@@@std@@YAPAU?$pair@V?$BasicStringRef@D@fmt@@UArg@internal@2@@0@PAU10@@Z 00420b90 f i datarecorder.obj
 0001:0001fba0       ??$_Val_type@PAV?$_List_unchecked_iterator@V?$_List_val@U?$_List_simple_types@U?$pair@$$CBV?$basic_string@DU?$char_traits@D@std@@V?$allocator@D@2@@std@@V?$shared_ptr@Vlogger@spdlog@@@2@@std@@@std@@@std@@@std@@@std@@YAPAV?$_List_unchecked_iterator@V?$_List_val@U?$_List_simple_types@U?$pair@$$CBV?$basic_string@DU?$char_traits@D@std@@V?$allocator@D@2@@std@@V?$shared_ptr@Vlogger@spdlog@@@2@@std@@@std@@@std@@@0@PAV10@@Z 00420ba0 f i datarecorder.obj
 0001:0001fbb0       ??$_Val_type@PAV?$unique_ptr@Vflag_formatter@details@spdlog@@U?$default_delete@Vflag_formatter@details@spdlog@@@std@@@std@@@std@@YAPAV?$unique_ptr@Vflag_formatter@details@spdlog@@U?$default_delete@Vflag_formatter@details@spdlog@@@std@@@0@PAV10@@Z 00420bb0 f i datarecorder.obj
 0001:0001fbc0       ??$addressof@$$CBU?$pair@V?$BasicStringRef@D@fmt@@UArg@internal@2@@std@@@std@@YAPBU?$pair@V?$BasicStringRef@D@fmt@@UArg@internal@2@@0@ABU10@@Z 00420bc0 f i datarecorder.obj
 0001:0001fbd0       ??$addressof@$$CBV?$_List_unchecked_iterator@V?$_List_val@U?$_List_simple_types@U?$pair@$$CBV?$basic_string@DU?$char_traits@D@std@@V?$allocator@D@2@@std@@V?$shared_ptr@Vlogger@spdlog@@@2@@std@@@std@@@std@@@std@@@std@@YAPBV?$_List_unchecked_iterator@V?$_List_val@U?$_List_simple_types@U?$pair@$$CBV?$basic_string@DU?$char_traits@D@std@@V?$allocator@D@2@@std@@V?$shared_ptr@Vlogger@spdlog@@@2@@std@@@std@@@std@@@0@ABV10@@Z 00420bd0 f i datarecorder.obj
 0001:0001fbe0       ??$addressof@$$CBV?$basic_string@DU?$char_traits@D@std@@V?$allocator@D@2@@std@@@std@@YAPBV?$basic_string@DU?$char_traits@D@std@@V?$allocator@D@2@@0@ABV10@@Z 00420be0 f i datarecorder.obj
 0001:0001fbf0       ??$addressof@PAU?$_List_node@U?$pair@$$CBV?$basic_string@DU?$char_traits@D@std@@V?$allocator@D@2@@std@@V?$shared_ptr@Vlogger@spdlog@@@2@@std@@PAX@std@@@std@@YAPAPAU?$_List_node@U?$pair@$$CBV?$basic_string@DU?$char_traits@D@std@@V?$allocator@D@2@@std@@V?$shared_ptr@Vlogger@spdlog@@@2@@std@@PAX@0@AAPAU10@@Z 00420bf0 f i datarecorder.obj
 0001:0001fc00       ??$addressof@PAU?$_Tree_node@U?$pair@$$CBV?$basic_string@DU?$char_traits@D@std@@V?$allocator@D@2@@std@@H@std@@PAX@std@@@std@@YAPAPAU?$_Tree_node@U?$pair@$$CBV?$basic_string@DU?$char_traits@D@std@@V?$allocator@D@2@@std@@H@std@@PAX@0@AAPAU10@@Z 00420c00 f i datarecorder.obj
 0001:0001fc10       ??$addressof@PAU?$_Tree_node@U?$pair@$$CBV?$basic_string@DU?$char_traits@D@std@@V?$allocator@D@2@@std@@V?$shared_ptr@VEvent_Tick@@@2@@std@@PAX@std@@@std@@YAPAPAU?$_Tree_node@U?$pair@$$CBV?$basic_string@DU?$char_traits@D@std@@V?$allocator@D@2@@std@@V?$shared_ptr@VEvent_Tick@@@2@@std@@PAX@0@AAPAU10@@Z 00420c10 f i datarecorder.obj
 0001:0001fc20       ??$addressof@PAU?$_Tree_node@U?$pair@$$CBV?$basic_string@DU?$char_traits@D@std@@V?$allocator@D@2@@std@@VBarData@jsstructs@@@std@@PAX@std@@@std@@YAPAPAU?$_Tree_node@U?$pair@$$CBV?$basic_string@DU?$char_traits@D@std@@V?$allocator@D@2@@std@@VBarData@jsstructs@@@std@@PAX@0@AAPAU10@@Z 00420c20 f i datarecorder.obj
 0001:0001fc30       ??$addressof@PAU?$_Tree_node@U?$pair@$$CBV?$basic_string@DU?$char_traits@D@std@@V?$allocator@D@2@@std@@_J@std@@PAX@std@@@std@@YAPAPAU?$_Tree_node@U?$pair@$$CBV?$basic_string@DU?$char_traits@D@std@@V?$allocator@D@2@@std@@_J@std@@PAX@0@AAPAU10@@Z 00420c30 f i datarecorder.obj
 0001:0001fc40       ??$addressof@U?$pair@$$CBV?$basic_string@DU?$char_traits@D@std@@V?$allocator@D@2@@std@@H@std@@@std@@YAPAU?$pair@$$CBV?$basic_string@DU?$char_traits@D@std@@V?$allocator@D@2@@std@@H@0@AAU10@@Z 00420c40 f i datarecorder.obj
 0001:0001fc50       ??$addressof@U?$pair@$$CBV?$basic_string@DU?$char_traits@D@std@@V?$allocator@D@2@@std@@V?$shared_ptr@VEvent_Tick@@@2@@std@@@std@@YAPAU?$pair@$$CBV?$basic_string@DU?$char_traits@D@std@@V?$allocator@D@2@@std@@V?$shared_ptr@VEvent_Tick@@@2@@0@AAU10@@Z 00420c50 f i datarecorder.obj
 0001:0001fc60       ??$addressof@U?$pair@$$CBV?$basic_string@DU?$char_traits@D@std@@V?$allocator@D@2@@std@@V?$shared_ptr@Vlogger@spdlog@@@2@@std@@@std@@YAPAU?$pair@$$CBV?$basic_string@DU?$char_traits@D@std@@V?$allocator@D@2@@std@@V?$shared_ptr@Vlogger@spdlog@@@2@@0@AAU10@@Z 00420c60 f i datarecorder.obj
 0001:0001fc70       ??$addressof@U?$pair@$$CBV?$basic_string@DU?$char_traits@D@std@@V?$allocator@D@2@@std@@VBarData@jsstructs@@@std@@@std@@YAPAU?$pair@$$CBV?$basic_string@DU?$char_traits@D@std@@V?$allocator@D@2@@std@@VBarData@jsstructs@@@0@AAU10@@Z 00420c70 f i datarecorder.obj
 0001:0001fc80       ??$addressof@U?$pair@$$CBV?$basic_string@DU?$char_traits@D@std@@V?$allocator@D@2@@std@@_J@std@@@std@@YAPAU?$pair@$$CBV?$basic_string@DU?$char_traits@D@std@@V?$allocator@D@2@@std@@_J@0@AAU10@@Z 00420c80 f i datarecorder.obj
 0001:0001fc90       ??$addressof@U?$pair@V?$BasicStringRef@D@fmt@@UArg@internal@2@@std@@@std@@YAPAU?$pair@V?$BasicStringRef@D@fmt@@UArg@internal@2@@0@AAU10@@Z 00420c90 f i datarecorder.obj
 0001:0001fca0       ??$addressof@V?$_List_unchecked_iterator@V?$_List_val@U?$_List_simple_types@U?$pair@$$CBV?$basic_string@DU?$char_traits@D@std@@V?$allocator@D@2@@std@@V?$shared_ptr@Vlogger@spdlog@@@2@@std@@@std@@@std@@@std@@@std@@YAPAV?$_List_unchecked_iterator@V?$_List_val@U?$_List_simple_types@U?$pair@$$CBV?$basic_string@DU?$char_traits@D@std@@V?$allocator@D@2@@std@@V?$shared_ptr@Vlogger@spdlog@@@2@@std@@@std@@@std@@@0@AAV10@@Z 00420ca0 f i datarecorder.obj
 0001:0001fcb0       ??$addressof@V?$unique_ptr@Vflag_formatter@details@spdlog@@U?$default_delete@Vflag_formatter@details@spdlog@@@std@@@std@@@std@@YAPAV?$unique_ptr@Vflag_formatter@details@spdlog@@U?$default_delete@Vflag_formatter@details@spdlog@@@std@@@0@AAV10@@Z 00420cb0 f i datarecorder.obj
 0001:0001fcc0       ??$addressof@Vaggregate_formatter@details@spdlog@@@std@@YAPAVaggregate_formatter@details@spdlog@@AAV123@@Z 00420cc0 f i datarecorder.obj
 0001:0001fcd0       ??$addressof@Vasync_log_helper@details@spdlog@@@std@@YAPAVasync_log_helper@details@spdlog@@AAV123@@Z 00420cd0 f i datarecorder.obj
 0001:0001fce0       ??$addressof@Vflag_formatter@details@spdlog@@@std@@YAPAVflag_formatter@details@spdlog@@AAV123@@Z 00420ce0 f i datarecorder.obj
 0001:0001fcf0       ??$append_float_length@N@?$BasicWriter@D@fmt@@AAEXAAPADN@Z 00420cf0 f i datarecorder.obj
 0001:0001fd00       ??$bind@XVDatarecorder@@$$$VQAV1@@std@@YA?AV?$_Bind@$00XU?$_Pmf_wrap@P8Datarecorder@@AEXXZXV1@$$$V@std@@QAVDatarecorder@@@0@Q8Datarecorder@@AEXXZ$$QBQAV2@@Z 00420d00 f i datarecorder.obj
 0001:0001fd20       ??$bind@XVDatarecorder@@V?$shared_ptr@VEvent@@@std@@QAV1@AAV?$_Ph@$00@3@@std@@YA?AV?$_Bind@$00XU?$_Pmf_wrap@P8Datarecorder@@AEXV?$shared_ptr@VEvent@@@std@@@ZXV1@V23@@std@@QAVDatarecorder@@AAV?$_Ph@$00@2@@0@Q8Datarecorder@@AEXV?$shared_ptr@VEvent@@@0@@Z$$QBQAV2@AAV?$_Ph@$00@0@@Z 00420d20 f i datarecorder.obj
 0001:0001fd40       ??$bind@XVasync_log_helper@details@spdlog@@$$$VPAV123@@std@@YA?AV?$_Bind@$00XU?$_Pmf_wrap@P8async_log_helper@details@spdlog@@AEXXZXV123@$$$V@std@@PAVasync_log_helper@details@spdlog@@@0@Q8async_log_helper@details@spdlog@@AEXXZ$$QAPAV234@@Z 00420d40 f i datarecorder.obj
 0001:0001fd60       ??$check_sign@D@internal@fmt@@YAXAAPBDABUArg@01@@Z 00420d60 f i datarecorder.obj
 0001:0001fe20       ??$const_check@I@internal@fmt@@YAII@Z 00420e20 f i datarecorder.obj
 0001:0001fe30       ??$const_check@_N@internal@fmt@@YA_N_N@Z 00420e30 f i datarecorder.obj
 0001:0001fe40       ??$construct@PAU?$_List_node@U?$pair@$$CBV?$basic_string@DU?$char_traits@D@std@@V?$allocator@D@2@@std@@V?$shared_ptr@Vlogger@spdlog@@@2@@std@@PAX@std@@AAPAU12@@?$_Wrap_alloc@V?$allocator@U?$_List_node@U?$pair@$$CBV?$basic_string@DU?$char_traits@D@std@@V?$allocator@D@2@@std@@V?$shared_ptr@Vlogger@spdlog@@@2@@std@@PAX@std@@@std@@@std@@QAEXPAPAU?$_List_node@U?$pair@$$CBV?$basic_string@DU?$char_traits@D@std@@V?$allocator@D@2@@std@@V?$shared_ptr@Vlogger@spdlog@@@2@@std@@PAX@1@AAPAU21@@Z 00420e40 f i datarecorder.obj
 0001:0001fe60       ??$construct@PAU?$_List_node@U?$pair@$$CBV?$basic_string@DU?$char_traits@D@std@@V?$allocator@D@2@@std@@V?$shared_ptr@Vlogger@spdlog@@@2@@std@@PAX@std@@AAPAU12@@?$allocator@U?$_List_node@U?$pair@$$CBV?$basic_string@DU?$char_traits@D@std@@V?$allocator@D@2@@std@@V?$shared_ptr@Vlogger@spdlog@@@2@@std@@PAX@std@@@std@@QAEXPAPAU?$_List_node@U?$pair@$$CBV?$basic_string@DU?$char_traits@D@std@@V?$allocator@D@2@@std@@V?$shared_ptr@Vlogger@spdlog@@@2@@std@@PAX@1@AAPAU21@@Z 00420e60 f i datarecorder.obj
 0001:0001fe80       ??$construct@PAU?$_List_node@U?$pair@$$CBV?$basic_string@DU?$char_traits@D@std@@V?$allocator@D@2@@std@@V?$shared_ptr@Vlogger@spdlog@@@2@@std@@PAX@std@@AAPAU12@@?$allocator_traits@V?$allocator@U?$_List_node@U?$pair@$$CBV?$basic_string@DU?$char_traits@D@std@@V?$allocator@D@2@@std@@V?$shared_ptr@Vlogger@spdlog@@@2@@std@@PAX@std@@@std@@@std@@SAXAAV?$allocator@U?$_List_node@U?$pair@$$CBV?$basic_string@DU?$char_traits@D@std@@V?$allocator@D@2@@std@@V?$shared_ptr@Vlogger@spdlog@@@2@@std@@PAX@std@@@1@PAPAU?$_List_node@U?$pair@$$CBV?$basic_string@DU?$char_traits@D@std@@V?$allocator@D@2@@std@@V?$shared_ptr@Vlogger@spdlog@@@2@@std@@PAX@1@AAPAU31@@Z 00420e80 f i datarecorder.obj
 0001:0001fea0       ??$construct@PAU?$_Tree_node@U?$pair@$$CBV?$basic_string@DU?$char_traits@D@std@@V?$allocator@D@2@@std@@H@std@@PAX@std@@AAPAU12@@?$_Wrap_alloc@V?$allocator@U?$_Tree_node@U?$pair@$$CBV?$basic_string@DU?$char_traits@D@std@@V?$allocator@D@2@@std@@H@std@@PAX@std@@@std@@@std@@QAEXPAPAU?$_Tree_node@U?$pair@$$CBV?$basic_string@DU?$char_traits@D@std@@V?$allocator@D@2@@std@@H@std@@PAX@1@AAPAU21@@Z 00420ea0 f i datarecorder.obj
 0001:0001fec0       ??$construct@PAU?$_Tree_node@U?$pair@$$CBV?$basic_string@DU?$char_traits@D@std@@V?$allocator@D@2@@std@@H@std@@PAX@std@@AAPAU12@@?$allocator@U?$_Tree_node@U?$pair@$$CBV?$basic_string@DU?$char_traits@D@std@@V?$allocator@D@2@@std@@H@std@@PAX@std@@@std@@QAEXPAPAU?$_Tree_node@U?$pair@$$CBV?$basic_string@DU?$char_traits@D@std@@V?$allocator@D@2@@std@@H@std@@PAX@1@AAPAU21@@Z 00420ec0 f i datarecorder.obj
 0001:0001fee0       ??$construct@PAU?$_Tree_node@U?$pair@$$CBV?$basic_string@DU?$char_traits@D@std@@V?$allocator@D@2@@std@@H@std@@PAX@std@@AAPAU12@@?$allocator_traits@V?$allocator@U?$_Tree_node@U?$pair@$$CBV?$basic_string@DU?$char_traits@D@std@@V?$allocator@D@2@@std@@H@std@@PAX@std@@@std@@@std@@SAXAAV?$allocator@U?$_Tree_node@U?$pair@$$CBV?$basic_string@DU?$char_traits@D@std@@V?$allocator@D@2@@std@@H@std@@PAX@std@@@1@PAPAU?$_Tree_node@U?$pair@$$CBV?$basic_string@DU?$char_traits@D@std@@V?$allocator@D@2@@std@@H@std@@PAX@1@AAPAU31@@Z 00420ee0 f i datarecorder.obj
 0001:0001ff00       ??$construct@PAU?$_Tree_node@U?$pair@$$CBV?$basic_string@DU?$char_traits@D@std@@V?$allocator@D@2@@std@@V?$shared_ptr@VEvent_Tick@@@2@@std@@PAX@std@@AAPAU12@@?$_Wrap_alloc@V?$allocator@U?$_Tree_node@U?$pair@$$CBV?$basic_string@DU?$char_traits@D@std@@V?$allocator@D@2@@std@@V?$shared_ptr@VEvent_Tick@@@2@@std@@PAX@std@@@std@@@std@@QAEXPAPAU?$_Tree_node@U?$pair@$$CBV?$basic_string@DU?$char_traits@D@std@@V?$allocator@D@2@@std@@V?$shared_ptr@VEvent_Tick@@@2@@std@@PAX@1@AAPAU21@@Z 00420f00 f i datarecorder.obj
 0001:0001ff20       ??$construct@PAU?$_Tree_node@U?$pair@$$CBV?$basic_string@DU?$char_traits@D@std@@V?$allocator@D@2@@std@@V?$shared_ptr@VEvent_Tick@@@2@@std@@PAX@std@@AAPAU12@@?$allocator@U?$_Tree_node@U?$pair@$$CBV?$basic_string@DU?$char_traits@D@std@@V?$allocator@D@2@@std@@V?$shared_ptr@VEvent_Tick@@@2@@std@@PAX@std@@@std@@QAEXPAPAU?$_Tree_node@U?$pair@$$CBV?$basic_string@DU?$char_traits@D@std@@V?$allocator@D@2@@std@@V?$shared_ptr@VEvent_Tick@@@2@@std@@PAX@1@AAPAU21@@Z 00420f20 f i datarecorder.obj
 0001:0001ff40       ??$construct@PAU?$_Tree_node@U?$pair@$$CBV?$basic_string@DU?$char_traits@D@std@@V?$allocator@D@2@@std@@V?$shared_ptr@VEvent_Tick@@@2@@std@@PAX@std@@AAPAU12@@?$allocator_traits@V?$allocator@U?$_Tree_node@U?$pair@$$CBV?$basic_string@DU?$char_traits@D@std@@V?$allocator@D@2@@std@@V?$shared_ptr@VEvent_Tick@@@2@@std@@PAX@std@@@std@@@std@@SAXAAV?$allocator@U?$_Tree_node@U?$pair@$$CBV?$basic_string@DU?$char_traits@D@std@@V?$allocator@D@2@@std@@V?$shared_ptr@VEvent_Tick@@@2@@std@@PAX@std@@@1@PAPAU?$_Tree_node@U?$pair@$$CBV?$basic_string@DU?$char_traits@D@std@@V?$allocator@D@2@@std@@V?$shared_ptr@VEvent_Tick@@@2@@std@@PAX@1@AAPAU31@@Z 00420f40 f i datarecorder.obj
 0001:0001ff60       ??$construct@PAU?$_Tree_node@U?$pair@$$CBV?$basic_string@DU?$char_traits@D@std@@V?$allocator@D@2@@std@@VBarData@jsstructs@@@std@@PAX@std@@AAPAU12@@?$_Wrap_alloc@V?$allocator@U?$_Tree_node@U?$pair@$$CBV?$basic_string@DU?$char_traits@D@std@@V?$allocator@D@2@@std@@VBarData@jsstructs@@@std@@PAX@std@@@std@@@std@@QAEXPAPAU?$_Tree_node@U?$pair@$$CBV?$basic_string@DU?$char_traits@D@std@@V?$allocator@D@2@@std@@VBarData@jsstructs@@@std@@PAX@1@AAPAU21@@Z 00420f60 f i datarecorder.obj
 0001:0001ff80       ??$construct@PAU?$_Tree_node@U?$pair@$$CBV?$basic_string@DU?$char_traits@D@std@@V?$allocator@D@2@@std@@VBarData@jsstructs@@@std@@PAX@std@@AAPAU12@@?$allocator@U?$_Tree_node@U?$pair@$$CBV?$basic_string@DU?$char_traits@D@std@@V?$allocator@D@2@@std@@VBarData@jsstructs@@@std@@PAX@std@@@std@@QAEXPAPAU?$_Tree_node@U?$pair@$$CBV?$basic_string@DU?$char_traits@D@std@@V?$allocator@D@2@@std@@VBarData@jsstructs@@@std@@PAX@1@AAPAU21@@Z 00420f80 f i datarecorder.obj
 0001:0001ffa0       ??$construct@PAU?$_Tree_node@U?$pair@$$CBV?$basic_string@DU?$char_traits@D@std@@V?$allocator@D@2@@std@@VBarData@jsstructs@@@std@@PAX@std@@AAPAU12@@?$allocator_traits@V?$allocator@U?$_Tree_node@U?$pair@$$CBV?$basic_string@DU?$char_traits@D@std@@V?$allocator@D@2@@std@@VBarData@jsstructs@@@std@@PAX@std@@@std@@@std@@SAXAAV?$allocator@U?$_Tree_node@U?$pair@$$CBV?$basic_string@DU?$char_traits@D@std@@V?$allocator@D@2@@std@@VBarData@jsstructs@@@std@@PAX@std@@@1@PAPAU?$_Tree_node@U?$pair@$$CBV?$basic_string@DU?$char_traits@D@std@@V?$allocator@D@2@@std@@VBarData@jsstructs@@@std@@PAX@1@AAPAU31@@Z 00420fa0 f i datarecorder.obj
 0001:0001ffc0       ??$construct@PAU?$_Tree_node@U?$pair@$$CBV?$basic_string@DU?$char_traits@D@std@@V?$allocator@D@2@@std@@_J@std@@PAX@std@@AAPAU12@@?$_Wrap_alloc@V?$allocator@U?$_Tree_node@U?$pair@$$CBV?$basic_string@DU?$char_traits@D@std@@V?$allocator@D@2@@std@@_J@std@@PAX@std@@@std@@@std@@QAEXPAPAU?$_Tree_node@U?$pair@$$CBV?$basic_string@DU?$char_traits@D@std@@V?$allocator@D@2@@std@@_J@std@@PAX@1@AAPAU21@@Z 00420fc0 f i datarecorder.obj
 0001:0001ffe0       ??$construct@PAU?$_Tree_node@U?$pair@$$CBV?$basic_string@DU?$char_traits@D@std@@V?$allocator@D@2@@std@@_J@std@@PAX@std@@AAPAU12@@?$allocator@U?$_Tree_node@U?$pair@$$CBV?$basic_string@DU?$char_traits@D@std@@V?$allocator@D@2@@std@@_J@std@@PAX@std@@@std@@QAEXPAPAU?$_Tree_node@U?$pair@$$CBV?$basic_string@DU?$char_traits@D@std@@V?$allocator@D@2@@std@@_J@std@@PAX@1@AAPAU21@@Z 00420fe0 f i datarecorder.obj
 0001:00020000       ??$construct@PAU?$_Tree_node@U?$pair@$$CBV?$basic_string@DU?$char_traits@D@std@@V?$allocator@D@2@@std@@_J@std@@PAX@std@@AAPAU12@@?$allocator_traits@V?$allocator@U?$_Tree_node@U?$pair@$$CBV?$basic_string@DU?$char_traits@D@std@@V?$allocator@D@2@@std@@_J@std@@PAX@std@@@std@@@std@@SAXAAV?$allocator@U?$_Tree_node@U?$pair@$$CBV?$basic_string@DU?$char_traits@D@std@@V?$allocator@D@2@@std@@_J@std@@PAX@std@@@1@PAPAU?$_Tree_node@U?$pair@$$CBV?$basic_string@DU?$char_traits@D@std@@V?$allocator@D@2@@std@@_J@std@@PAX@1@AAPAU31@@Z 00421000 f i datarecorder.obj
 0001:00020020       ??$construct@U?$pair@$$CBV?$basic_string@DU?$char_traits@D@std@@V?$allocator@D@2@@std@@H@std@@ABUpiecewise_construct_t@2@V?$tuple@ABV?$basic_string@DU?$char_traits@D@std@@V?$allocator@D@2@@std@@@2@V?$tuple@$$$V@2@@?$_Wrap_alloc@V?$allocator@U?$_Tree_node@U?$pair@$$CBV?$basic_string@DU?$char_traits@D@std@@V?$allocator@D@2@@std@@H@std@@PAX@std@@@std@@@std@@QAEXPAU?$pair@$$CBV?$basic_string@DU?$char_traits@D@std@@V?$allocator@D@2@@std@@H@1@ABUpiecewise_construct_t@1@$$QAV?$tuple@ABV?$basic_string@DU?$char_traits@D@std@@V?$allocator@D@2@@std@@@1@$$QAV?$tuple@$$$V@1@@Z 00421020 f i datarecorder.obj
 0001:00020090       ??$construct@U?$pair@$$CBV?$basic_string@DU?$char_traits@D@std@@V?$allocator@D@2@@std@@H@std@@ABUpiecewise_construct_t@2@V?$tuple@ABV?$basic_string@DU?$char_traits@D@std@@V?$allocator@D@2@@std@@@2@V?$tuple@$$$V@2@@?$allocator@U?$_Tree_node@U?$pair@$$CBV?$basic_string@DU?$char_traits@D@std@@V?$allocator@D@2@@std@@H@std@@PAX@std@@@std@@QAEXPAU?$pair@$$CBV?$basic_string@DU?$char_traits@D@std@@V?$allocator@D@2@@std@@H@1@ABUpiecewise_construct_t@1@$$QAV?$tuple@ABV?$basic_string@DU?$char_traits@D@std@@V?$allocator@D@2@@std@@@1@$$QAV?$tuple@$$$V@1@@Z 00421090 f i datarecorder.obj
 0001:00020100       ??$construct@U?$pair@$$CBV?$basic_string@DU?$char_traits@D@std@@V?$allocator@D@2@@std@@H@std@@ABUpiecewise_construct_t@2@V?$tuple@ABV?$basic_string@DU?$char_traits@D@std@@V?$allocator@D@2@@std@@@2@V?$tuple@$$$V@2@@?$allocator_traits@V?$allocator@U?$_Tree_node@U?$pair@$$CBV?$basic_string@DU?$char_traits@D@std@@V?$allocator@D@2@@std@@H@std@@PAX@std@@@std@@@std@@SAXAAV?$allocator@U?$_Tree_node@U?$pair@$$CBV?$basic_string@DU?$char_traits@D@std@@V?$allocator@D@2@@std@@H@std@@PAX@std@@@1@PAU?$pair@$$CBV?$basic_string@DU?$char_traits@D@std@@V?$allocator@D@2@@std@@H@1@ABUpiecewise_construct_t@1@$$QAV?$tuple@ABV?$basic_string@DU?$char_traits@D@std@@V?$allocator@D@2@@std@@@1@$$QAV?$tuple@$$$V@1@@Z 00421100 f i datarecorder.obj
 0001:00020170       ??$construct@U?$pair@$$CBV?$basic_string@DU?$char_traits@D@std@@V?$allocator@D@2@@std@@V?$shared_ptr@VEvent_Tick@@@2@@std@@ABUpiecewise_construct_t@2@V?$tuple@ABV?$basic_string@DU?$char_traits@D@std@@V?$allocator@D@2@@std@@@2@V?$tuple@$$$V@2@@?$_Wrap_alloc@V?$allocator@U?$_Tree_node@U?$pair@$$CBV?$basic_string@DU?$char_traits@D@std@@V?$allocator@D@2@@std@@V?$shared_ptr@VEvent_Tick@@@2@@std@@PAX@std@@@std@@@std@@QAEXPAU?$pair@$$CBV?$basic_string@DU?$char_traits@D@std@@V?$allocator@D@2@@std@@V?$shared_ptr@VEvent_Tick@@@2@@1@ABUpiecewise_construct_t@1@$$QAV?$tuple@ABV?$basic_string@DU?$char_traits@D@std@@V?$allocator@D@2@@std@@@1@$$QAV?$tuple@$$$V@1@@Z 00421170 f i datarecorder.obj
 0001:000201f0       ??$construct@U?$pair@$$CBV?$basic_string@DU?$char_traits@D@std@@V?$allocator@D@2@@std@@V?$shared_ptr@VEvent_Tick@@@2@@std@@ABUpiecewise_construct_t@2@V?$tuple@ABV?$basic_string@DU?$char_traits@D@std@@V?$allocator@D@2@@std@@@2@V?$tuple@$$$V@2@@?$allocator@U?$_Tree_node@U?$pair@$$CBV?$basic_string@DU?$char_traits@D@std@@V?$allocator@D@2@@std@@V?$shared_ptr@VEvent_Tick@@@2@@std@@PAX@std@@@std@@QAEXPAU?$pair@$$CBV?$basic_string@DU?$char_traits@D@std@@V?$allocator@D@2@@std@@V?$shared_ptr@VEvent_Tick@@@2@@1@ABUpiecewise_construct_t@1@$$QAV?$tuple@ABV?$basic_string@DU?$char_traits@D@std@@V?$allocator@D@2@@std@@@1@$$QAV?$tuple@$$$V@1@@Z 004211f0 f i datarecorder.obj
 0001:00020270       ??$construct@U?$pair@$$CBV?$basic_string@DU?$char_traits@D@std@@V?$allocator@D@2@@std@@V?$shared_ptr@VEvent_Tick@@@2@@std@@ABUpiecewise_construct_t@2@V?$tuple@ABV?$basic_string@DU?$char_traits@D@std@@V?$allocator@D@2@@std@@@2@V?$tuple@$$$V@2@@?$allocator_traits@V?$allocator@U?$_Tree_node@U?$pair@$$CBV?$basic_string@DU?$char_traits@D@std@@V?$allocator@D@2@@std@@V?$shared_ptr@VEvent_Tick@@@2@@std@@PAX@std@@@std@@@std@@SAXAAV?$allocator@U?$_Tree_node@U?$pair@$$CBV?$basic_string@DU?$char_traits@D@std@@V?$allocator@D@2@@std@@V?$shared_ptr@VEvent_Tick@@@2@@std@@PAX@std@@@1@PAU?$pair@$$CBV?$basic_string@DU?$char_traits@D@std@@V?$allocator@D@2@@std@@V?$shared_ptr@VEvent_Tick@@@2@@1@ABUpiecewise_construct_t@1@$$QAV?$tuple@ABV?$basic_string@DU?$char_traits@D@std@@V?$allocator@D@2@@std@@@1@$$QAV?$tuple@$$$V@1@@Z 00421270 f i datarecorder.obj
 0001:000202f0       ??$construct@U?$pair@$$CBV?$basic_string@DU?$char_traits@D@std@@V?$allocator@D@2@@std@@V?$shared_ptr@Vlogger@spdlog@@@2@@std@@ABUpiecewise_construct_t@2@V?$tuple@ABV?$basic_string@DU?$char_traits@D@std@@V?$allocator@D@2@@std@@@2@V?$tuple@$$$V@2@@?$_Wrap_alloc@V?$allocator@U?$_List_node@U?$pair@$$CBV?$basic_string@DU?$char_traits@D@std@@V?$allocator@D@2@@std@@V?$shared_ptr@Vlogger@spdlog@@@2@@std@@PAX@std@@@std@@@std@@QAEXPAU?$pair@$$CBV?$basic_string@DU?$char_traits@D@std@@V?$allocator@D@2@@std@@V?$shared_ptr@Vlogger@spdlog@@@2@@1@ABUpiecewise_construct_t@1@$$QAV?$tuple@ABV?$basic_string@DU?$char_traits@D@std@@V?$allocator@D@2@@std@@@1@$$QAV?$tuple@$$$V@1@@Z 004212f0 f i datarecorder.obj
 0001:00020370       ??$construct@U?$pair@$$CBV?$basic_string@DU?$char_traits@D@std@@V?$allocator@D@2@@std@@V?$shared_ptr@Vlogger@spdlog@@@2@@std@@ABUpiecewise_construct_t@2@V?$tuple@ABV?$basic_string@DU?$char_traits@D@std@@V?$allocator@D@2@@std@@@2@V?$tuple@$$$V@2@@?$allocator@U?$_List_node@U?$pair@$$CBV?$basic_string@DU?$char_traits@D@std@@V?$allocator@D@2@@std@@V?$shared_ptr@Vlogger@spdlog@@@2@@std@@PAX@std@@@std@@QAEXPAU?$pair@$$CBV?$basic_string@DU?$char_traits@D@std@@V?$allocator@D@2@@std@@V?$shared_ptr@Vlogger@spdlog@@@2@@1@ABUpiecewise_construct_t@1@$$QAV?$tuple@ABV?$basic_string@DU?$char_traits@D@std@@V?$allocator@D@2@@std@@@1@$$QAV?$tuple@$$$V@1@@Z 00421370 f i datarecorder.obj
 0001:000203f0       ??$construct@U?$pair@$$CBV?$basic_string@DU?$char_traits@D@std@@V?$allocator@D@2@@std@@V?$shared_ptr@Vlogger@spdlog@@@2@@std@@ABUpiecewise_construct_t@2@V?$tuple@ABV?$basic_string@DU?$char_traits@D@std@@V?$allocator@D@2@@std@@@2@V?$tuple@$$$V@2@@?$allocator_traits@V?$allocator@U?$_List_node@U?$pair@$$CBV?$basic_string@DU?$char_traits@D@std@@V?$allocator@D@2@@std@@V?$shared_ptr@Vlogger@spdlog@@@2@@std@@PAX@std@@@std@@@std@@SAXAAV?$allocator@U?$_List_node@U?$pair@$$CBV?$basic_string@DU?$char_traits@D@std@@V?$allocator@D@2@@std@@V?$shared_ptr@Vlogger@spdlog@@@2@@std@@PAX@std@@@1@PAU?$pair@$$CBV?$basic_string@DU?$char_traits@D@std@@V?$allocator@D@2@@std@@V?$shared_ptr@Vlogger@spdlog@@@2@@1@ABUpiecewise_construct_t@1@$$QAV?$tuple@ABV?$basic_string@DU?$char_traits@D@std@@V?$allocator@D@2@@std@@@1@$$QAV?$tuple@$$$V@1@@Z 004213f0 f i datarecorder.obj
 0001:00020470       ??$construct@U?$pair@$$CBV?$basic_string@DU?$char_traits@D@std@@V?$allocator@D@2@@std@@VBarData@jsstructs@@@std@@ABUpiecewise_construct_t@2@V?$tuple@ABV?$basic_string@DU?$char_traits@D@std@@V?$allocator@D@2@@std@@@2@V?$tuple@$$$V@2@@?$_Wrap_alloc@V?$allocator@U?$_Tree_node@U?$pair@$$CBV?$basic_string@DU?$char_traits@D@std@@V?$allocator@D@2@@std@@VBarData@jsstructs@@@std@@PAX@std@@@std@@@std@@QAEXPAU?$pair@$$CBV?$basic_string@DU?$char_traits@D@std@@V?$allocator@D@2@@std@@VBarData@jsstructs@@@1@ABUpiecewise_construct_t@1@$$QAV?$tuple@ABV?$basic_string@DU?$char_traits@D@std@@V?$allocator@D@2@@std@@@1@$$QAV?$tuple@$$$V@1@@Z 00421470 f i datarecorder.obj
 0001:000204f0       ??$construct@U?$pair@$$CBV?$basic_string@DU?$char_traits@D@std@@V?$allocator@D@2@@std@@VBarData@jsstructs@@@std@@ABUpiecewise_construct_t@2@V?$tuple@ABV?$basic_string@DU?$char_traits@D@std@@V?$allocator@D@2@@std@@@2@V?$tuple@$$$V@2@@?$allocator@U?$_Tree_node@U?$pair@$$CBV?$basic_string@DU?$char_traits@D@std@@V?$allocator@D@2@@std@@VBarData@jsstructs@@@std@@PAX@std@@@std@@QAEXPAU?$pair@$$CBV?$basic_string@DU?$char_traits@D@std@@V?$allocator@D@2@@std@@VBarData@jsstructs@@@1@ABUpiecewise_construct_t@1@$$QAV?$tuple@ABV?$basic_string@DU?$char_traits@D@std@@V?$allocator@D@2@@std@@@1@$$QAV?$tuple@$$$V@1@@Z 004214f0 f i datarecorder.obj
 0001:00020570       ??$construct@U?$pair@$$CBV?$basic_string@DU?$char_traits@D@std@@V?$allocator@D@2@@std@@VBarData@jsstructs@@@std@@ABUpiecewise_construct_t@2@V?$tuple@ABV?$basic_string@DU?$char_traits@D@std@@V?$allocator@D@2@@std@@@2@V?$tuple@$$$V@2@@?$allocator_traits@V?$allocator@U?$_Tree_node@U?$pair@$$CBV?$basic_string@DU?$char_traits@D@std@@V?$allocator@D@2@@std@@VBarData@jsstructs@@@std@@PAX@std@@@std@@@std@@SAXAAV?$allocator@U?$_Tree_node@U?$pair@$$CBV?$basic_string@DU?$char_traits@D@std@@V?$allocator@D@2@@std@@VBarData@jsstructs@@@std@@PAX@std@@@1@PAU?$pair@$$CBV?$basic_string@DU?$char_traits@D@std@@V?$allocator@D@2@@std@@VBarData@jsstructs@@@1@ABUpiecewise_construct_t@1@$$QAV?$tuple@ABV?$basic_string@DU?$char_traits@D@std@@V?$allocator@D@2@@std@@@1@$$QAV?$tuple@$$$V@1@@Z 00421570 f i datarecorder.obj
 0001:000205e0       ??$construct@U?$pair@$$CBV?$basic_string@DU?$char_traits@D@std@@V?$allocator@D@2@@std@@_J@std@@ABUpiecewise_construct_t@2@V?$tuple@ABV?$basic_string@DU?$char_traits@D@std@@V?$allocator@D@2@@std@@@2@V?$tuple@$$$V@2@@?$_Wrap_alloc@V?$allocator@U?$_Tree_node@U?$pair@$$CBV?$basic_string@DU?$char_traits@D@std@@V?$allocator@D@2@@std@@_J@std@@PAX@std@@@std@@@std@@QAEXPAU?$pair@$$CBV?$basic_string@DU?$char_traits@D@std@@V?$allocator@D@2@@std@@_J@1@ABUpiecewise_construct_t@1@$$QAV?$tuple@ABV?$basic_string@DU?$char_traits@D@std@@V?$allocator@D@2@@std@@@1@$$QAV?$tuple@$$$V@1@@Z 004215e0 f i datarecorder.obj
 0001:00020660       ??$construct@U?$pair@$$CBV?$basic_string@DU?$char_traits@D@std@@V?$allocator@D@2@@std@@_J@std@@ABUpiecewise_construct_t@2@V?$tuple@ABV?$basic_string@DU?$char_traits@D@std@@V?$allocator@D@2@@std@@@2@V?$tuple@$$$V@2@@?$allocator@U?$_Tree_node@U?$pair@$$CBV?$basic_string@DU?$char_traits@D@std@@V?$allocator@D@2@@std@@_J@std@@PAX@std@@@std@@QAEXPAU?$pair@$$CBV?$basic_string@DU?$char_traits@D@std@@V?$allocator@D@2@@std@@_J@1@ABUpiecewise_construct_t@1@$$QAV?$tuple@ABV?$basic_string@DU?$char_traits@D@std@@V?$allocator@D@2@@std@@@1@$$QAV?$tuple@$$$V@1@@Z 00421660 f i datarecorder.obj
 0001:000206e0       ??$construct@U?$pair@$$CBV?$basic_string@DU?$char_traits@D@std@@V?$allocator@D@2@@std@@_J@std@@ABUpiecewise_construct_t@2@V?$tuple@ABV?$basic_string@DU?$char_traits@D@std@@V?$allocator@D@2@@std@@@2@V?$tuple@$$$V@2@@?$allocator_traits@V?$allocator@U?$_Tree_node@U?$pair@$$CBV?$basic_string@DU?$char_traits@D@std@@V?$allocator@D@2@@std@@_J@std@@PAX@std@@@std@@@std@@SAXAAV?$allocator@U?$_Tree_node@U?$pair@$$CBV?$basic_string@DU?$char_traits@D@std@@V?$allocator@D@2@@std@@_J@std@@PAX@std@@@1@PAU?$pair@$$CBV?$basic_string@DU?$char_traits@D@std@@V?$allocator@D@2@@std@@_J@1@ABUpiecewise_construct_t@1@$$QAV?$tuple@ABV?$basic_string@DU?$char_traits@D@std@@V?$allocator@D@2@@std@@@1@$$QAV?$tuple@$$$V@1@@Z 004216e0 f i datarecorder.obj
 0001:00020760       ??$construct@U?$pair@V?$BasicStringRef@D@fmt@@UArg@internal@2@@std@@U12@@?$_Wrap_alloc@V?$allocator@U?$pair@V?$BasicStringRef@D@fmt@@UArg@internal@2@@std@@@std@@@std@@QAEXPAU?$pair@V?$BasicStringRef@D@fmt@@UArg@internal@2@@1@$$QAU21@@Z 00421760 f i datarecorder.obj
 0001:00020790       ??$construct@U?$pair@V?$BasicStringRef@D@fmt@@UArg@internal@2@@std@@U12@@?$allocator@U?$pair@V?$BasicStringRef@D@fmt@@UArg@internal@2@@std@@@std@@QAEXPAU?$pair@V?$BasicStringRef@D@fmt@@UArg@internal@2@@1@$$QAU21@@Z 00421790 f i datarecorder.obj
 0001:000207c0       ??$construct@U?$pair@V?$BasicStringRef@D@fmt@@UArg@internal@2@@std@@U12@@?$allocator_traits@V?$allocator@U?$pair@V?$BasicStringRef@D@fmt@@UArg@internal@2@@std@@@std@@@std@@SAXAAV?$allocator@U?$pair@V?$BasicStringRef@D@fmt@@UArg@internal@2@@std@@@1@PAU?$pair@V?$BasicStringRef@D@fmt@@UArg@internal@2@@1@$$QAU31@@Z 004217c0 f i datarecorder.obj
 0001:000207f0       ??$construct@V?$_List_unchecked_iterator@V?$_List_val@U?$_List_simple_types@U?$pair@$$CBV?$basic_string@DU?$char_traits@D@std@@V?$allocator@D@2@@std@@V?$shared_ptr@Vlogger@spdlog@@@2@@std@@@std@@@std@@@std@@ABV12@@?$_Wrap_alloc@U?$_Wrap_alloc@V?$allocator@V?$_List_unchecked_iterator@V?$_List_val@U?$_List_simple_types@U?$pair@$$CBV?$basic_string@DU?$char_traits@D@std@@V?$allocator@D@2@@std@@V?$shared_ptr@Vlogger@spdlog@@@2@@std@@@std@@@std@@@std@@@std@@@std@@@std@@QAEXPAV?$_List_unchecked_iterator@V?$_List_val@U?$_List_simple_types@U?$pair@$$CBV?$basic_string@DU?$char_traits@D@std@@V?$allocator@D@2@@std@@V?$shared_ptr@Vlogger@spdlog@@@2@@std@@@std@@@std@@@1@ABV21@@Z 004217f0 f i datarecorder.obj
 0001:00020810       ??$construct@V?$_List_unchecked_iterator@V?$_List_val@U?$_List_simple_types@U?$pair@$$CBV?$basic_string@DU?$char_traits@D@std@@V?$allocator@D@2@@std@@V?$shared_ptr@Vlogger@spdlog@@@2@@std@@@std@@@std@@@std@@ABV12@@?$_Wrap_alloc@V?$allocator@V?$_List_unchecked_iterator@V?$_List_val@U?$_List_simple_types@U?$pair@$$CBV?$basic_string@DU?$char_traits@D@std@@V?$allocator@D@2@@std@@V?$shared_ptr@Vlogger@spdlog@@@2@@std@@@std@@@std@@@std@@@std@@@std@@QAEXPAV?$_List_unchecked_iterator@V?$_List_val@U?$_List_simple_types@U?$pair@$$CBV?$basic_string@DU?$char_traits@D@std@@V?$allocator@D@2@@std@@V?$shared_ptr@Vlogger@spdlog@@@2@@std@@@std@@@std@@@1@ABV21@@Z 00421810 f i datarecorder.obj
 0001:00020830       ??$construct@V?$_List_unchecked_iterator@V?$_List_val@U?$_List_simple_types@U?$pair@$$CBV?$basic_string@DU?$char_traits@D@std@@V?$allocator@D@2@@std@@V?$shared_ptr@Vlogger@spdlog@@@2@@std@@@std@@@std@@@std@@ABV12@@?$allocator_traits@U?$_Wrap_alloc@V?$allocator@V?$_List_unchecked_iterator@V?$_List_val@U?$_List_simple_types@U?$pair@$$CBV?$basic_string@DU?$char_traits@D@std@@V?$allocator@D@2@@std@@V?$shared_ptr@Vlogger@spdlog@@@2@@std@@@std@@@std@@@std@@@std@@@std@@@std@@SAXAAU?$_Wrap_alloc@V?$allocator@V?$_List_unchecked_iterator@V?$_List_val@U?$_List_simple_types@U?$pair@$$CBV?$basic_string@DU?$char_traits@D@std@@V?$allocator@D@2@@std@@V?$shared_ptr@Vlogger@spdlog@@@2@@std@@@std@@@std@@@std@@@std@@@1@PAV?$_List_unchecked_iterator@V?$_List_val@U?$_List_simple_types@U?$pair@$$CBV?$basic_string@DU?$char_traits@D@std@@V?$allocator@D@2@@std@@V?$shared_ptr@Vlogger@spdlog@@@2@@std@@@std@@@std@@@1@ABV31@@Z 00421830 f i datarecorder.obj
 0001:00020850       ??$construct@V?$_List_unchecked_iterator@V?$_List_val@U?$_List_simple_types@U?$pair@$$CBV?$basic_string@DU?$char_traits@D@std@@V?$allocator@D@2@@std@@V?$shared_ptr@Vlogger@spdlog@@@2@@std@@@std@@@std@@@std@@ABV12@@?$allocator_traits@V?$allocator@V?$_List_unchecked_iterator@V?$_List_val@U?$_List_simple_types@U?$pair@$$CBV?$basic_string@DU?$char_traits@D@std@@V?$allocator@D@2@@std@@V?$shared_ptr@Vlogger@spdlog@@@2@@std@@@std@@@std@@@std@@@std@@@std@@SAXAAV?$allocator@V?$_List_unchecked_iterator@V?$_List_val@U?$_List_simple_types@U?$pair@$$CBV?$basic_string@DU?$char_traits@D@std@@V?$allocator@D@2@@std@@V?$shared_ptr@Vlogger@spdlog@@@2@@std@@@std@@@std@@@std@@@1@PAV?$_List_unchecked_iterator@V?$_List_val@U?$_List_simple_types@U?$pair@$$CBV?$basic_string@DU?$char_traits@D@std@@V?$allocator@D@2@@std@@V?$shared_ptr@Vlogger@spdlog@@@2@@std@@@std@@@std@@@1@ABV31@@Z 00421850 f i datarecorder.obj
 0001:00020870       ??$construct@V?$_List_unchecked_iterator@V?$_List_val@U?$_List_simple_types@U?$pair@$$CBV?$basic_string@DU?$char_traits@D@std@@V?$allocator@D@2@@std@@V?$shared_ptr@Vlogger@spdlog@@@2@@std@@@std@@@std@@@std@@V12@@?$_Wrap_alloc@U?$_Wrap_alloc@V?$allocator@V?$_List_unchecked_iterator@V?$_List_val@U?$_List_simple_types@U?$pair@$$CBV?$basic_string@DU?$char_traits@D@std@@V?$allocator@D@2@@std@@V?$shared_ptr@Vlogger@spdlog@@@2@@std@@@std@@@std@@@std@@@std@@@std@@@std@@QAEXPAV?$_List_unchecked_iterator@V?$_List_val@U?$_List_simple_types@U?$pair@$$CBV?$basic_string@DU?$char_traits@D@std@@V?$allocator@D@2@@std@@V?$shared_ptr@Vlogger@spdlog@@@2@@std@@@std@@@std@@@1@$$QAV21@@Z 00421870 f i datarecorder.obj
 0001:00020890       ??$construct@V?$_List_unchecked_iterator@V?$_List_val@U?$_List_simple_types@U?$pair@$$CBV?$basic_string@DU?$char_traits@D@std@@V?$allocator@D@2@@std@@V?$shared_ptr@Vlogger@spdlog@@@2@@std@@@std@@@std@@@std@@V12@@?$_Wrap_alloc@V?$allocator@V?$_List_unchecked_iterator@V?$_List_val@U?$_List_simple_types@U?$pair@$$CBV?$basic_string@DU?$char_traits@D@std@@V?$allocator@D@2@@std@@V?$shared_ptr@Vlogger@spdlog@@@2@@std@@@std@@@std@@@std@@@std@@@std@@QAEXPAV?$_List_unchecked_iterator@V?$_List_val@U?$_List_simple_types@U?$pair@$$CBV?$basic_string@DU?$char_traits@D@std@@V?$allocator@D@2@@std@@V?$shared_ptr@Vlogger@spdlog@@@2@@std@@@std@@@std@@@1@$$QAV21@@Z 00421890 f i datarecorder.obj
 0001:000208b0       ??$construct@V?$_List_unchecked_iterator@V?$_List_val@U?$_List_simple_types@U?$pair@$$CBV?$basic_string@DU?$char_traits@D@std@@V?$allocator@D@2@@std@@V?$shared_ptr@Vlogger@spdlog@@@2@@std@@@std@@@std@@@std@@V12@@?$allocator@V?$_List_unchecked_iterator@V?$_List_val@U?$_List_simple_types@U?$pair@$$CBV?$basic_string@DU?$char_traits@D@std@@V?$allocator@D@2@@std@@V?$shared_ptr@Vlogger@spdlog@@@2@@std@@@std@@@std@@@std@@@std@@QAEXPAV?$_List_unchecked_iterator@V?$_List_val@U?$_List_simple_types@U?$pair@$$CBV?$basic_string@DU?$char_traits@D@std@@V?$allocator@D@2@@std@@V?$shared_ptr@Vlogger@spdlog@@@2@@std@@@std@@@std@@@1@$$QAV21@@Z 004218b0 f i datarecorder.obj
 0001:000208d0       ??$construct@V?$_List_unchecked_iterator@V?$_List_val@U?$_List_simple_types@U?$pair@$$CBV?$basic_string@DU?$char_traits@D@std@@V?$allocator@D@2@@std@@V?$shared_ptr@Vlogger@spdlog@@@2@@std@@@std@@@std@@@std@@V12@@?$allocator_traits@U?$_Wrap_alloc@V?$allocator@V?$_List_unchecked_iterator@V?$_List_val@U?$_List_simple_types@U?$pair@$$CBV?$basic_string@DU?$char_traits@D@std@@V?$allocator@D@2@@std@@V?$shared_ptr@Vlogger@spdlog@@@2@@std@@@std@@@std@@@std@@@std@@@std@@@std@@SAXAAU?$_Wrap_alloc@V?$allocator@V?$_List_unchecked_iterator@V?$_List_val@U?$_List_simple_types@U?$pair@$$CBV?$basic_string@DU?$char_traits@D@std@@V?$allocator@D@2@@std@@V?$shared_ptr@Vlogger@spdlog@@@2@@std@@@std@@@std@@@std@@@std@@@1@PAV?$_List_unchecked_iterator@V?$_List_val@U?$_List_simple_types@U?$pair@$$CBV?$basic_string@DU?$char_traits@D@std@@V?$allocator@D@2@@std@@V?$shared_ptr@Vlogger@spdlog@@@2@@std@@@std@@@std@@@1@$$QAV31@@Z 004218d0 f i datarecorder.obj
 0001:000208f0       ??$construct@V?$_List_unchecked_iterator@V?$_List_val@U?$_List_simple_types@U?$pair@$$CBV?$basic_string@DU?$char_traits@D@std@@V?$allocator@D@2@@std@@V?$shared_ptr@Vlogger@spdlog@@@2@@std@@@std@@@std@@@std@@V12@@?$allocator_traits@V?$allocator@V?$_List_unchecked_iterator@V?$_List_val@U?$_List_simple_types@U?$pair@$$CBV?$basic_string@DU?$char_traits@D@std@@V?$allocator@D@2@@std@@V?$shared_ptr@Vlogger@spdlog@@@2@@std@@@std@@@std@@@std@@@std@@@std@@SAXAAV?$allocator@V?$_List_unchecked_iterator@V?$_List_val@U?$_List_simple_types@U?$pair@$$CBV?$basic_string@DU?$char_traits@D@std@@V?$allocator@D@2@@std@@V?$shared_ptr@Vlogger@spdlog@@@2@@std@@@std@@@std@@@std@@@1@PAV?$_List_unchecked_iterator@V?$_List_val@U?$_List_simple_types@U?$pair@$$CBV?$basic_string@DU?$char_traits@D@std@@V?$allocator@D@2@@std@@V?$shared_ptr@Vlogger@spdlog@@@2@@std@@@std@@@std@@@1@$$QAV31@@Z 004218f0 f i datarecorder.obj
 0001:00020910       ??$construct@V?$basic_string@DU?$char_traits@D@std@@V?$allocator@D@2@@std@@AAV12@@?$_Wrap_alloc@V?$allocator@V?$basic_string@DU?$char_traits@D@std@@V?$allocator@D@2@@std@@@std@@@std@@QAEXPAV?$basic_string@DU?$char_traits@D@std@@V?$allocator@D@2@@1@AAV21@@Z 00421910 f i datarecorder.obj
 0001:00020980       ??$construct@V?$basic_string@DU?$char_traits@D@std@@V?$allocator@D@2@@std@@AAV12@@?$allocator@V?$basic_string@DU?$char_traits@D@std@@V?$allocator@D@2@@std@@@std@@QAEXPAV?$basic_string@DU?$char_traits@D@std@@V?$allocator@D@2@@1@AAV21@@Z 00421980 f i datarecorder.obj
 0001:000209f0       ??$construct@V?$basic_string@DU?$char_traits@D@std@@V?$allocator@D@2@@std@@AAV12@@?$allocator_traits@V?$allocator@V?$basic_string@DU?$char_traits@D@std@@V?$allocator@D@2@@std@@@std@@@std@@SAXAAV?$allocator@V?$basic_string@DU?$char_traits@D@std@@V?$allocator@D@2@@std@@@1@PAV?$basic_string@DU?$char_traits@D@std@@V?$allocator@D@2@@1@AAV31@@Z 004219f0 f i datarecorder.obj
 0001:00020a50       ??$construct@V?$shared_ptr@Vsink@sinks@spdlog@@@std@@ABV12@@?$_Wrap_alloc@V?$allocator@V?$shared_ptr@Vsink@sinks@spdlog@@@std@@@std@@@std@@QAEXPAV?$shared_ptr@Vsink@sinks@spdlog@@@1@ABV21@@Z 00421a50 f i datarecorder.obj
 0001:00020a80       ??$construct@V?$shared_ptr@Vsink@sinks@spdlog@@@std@@ABV12@@?$allocator_traits@V?$allocator@V?$shared_ptr@Vsink@sinks@spdlog@@@std@@@std@@@std@@SAXAAV?$allocator@V?$shared_ptr@Vsink@sinks@spdlog@@@std@@@1@PAV?$shared_ptr@Vsink@sinks@spdlog@@@1@ABV31@@Z 00421a80 f i datarecorder.obj
 0001:00020ab0       ??$construct@V?$unique_ptr@Vflag_formatter@details@spdlog@@U?$default_delete@Vflag_formatter@details@spdlog@@@std@@@std@@V12@@?$_Wrap_alloc@V?$allocator@V?$unique_ptr@Vflag_formatter@details@spdlog@@U?$default_delete@Vflag_formatter@details@spdlog@@@std@@@std@@@std@@@std@@QAEXPAV?$unique_ptr@Vflag_formatter@details@spdlog@@U?$default_delete@Vflag_formatter@details@spdlog@@@std@@@1@$$QAV21@@Z 00421ab0 f i datarecorder.obj
 0001:00020ad0       ??$construct@V?$unique_ptr@Vflag_formatter@details@spdlog@@U?$default_delete@Vflag_formatter@details@spdlog@@@std@@@std@@V12@@?$allocator@V?$unique_ptr@Vflag_formatter@details@spdlog@@U?$default_delete@Vflag_formatter@details@spdlog@@@std@@@std@@@std@@QAEXPAV?$unique_ptr@Vflag_formatter@details@spdlog@@U?$default_delete@Vflag_formatter@details@spdlog@@@std@@@1@$$QAV21@@Z 00421ad0 f i datarecorder.obj
 0001:00020af0       ??$construct@V?$unique_ptr@Vflag_formatter@details@spdlog@@U?$default_delete@Vflag_formatter@details@spdlog@@@std@@@std@@V12@@?$allocator_traits@V?$allocator@V?$unique_ptr@Vflag_formatter@details@spdlog@@U?$default_delete@Vflag_formatter@details@spdlog@@@std@@@std@@@std@@@std@@SAXAAV?$allocator@V?$unique_ptr@Vflag_formatter@details@spdlog@@U?$default_delete@Vflag_formatter@details@spdlog@@@std@@@std@@@1@PAV?$unique_ptr@Vflag_formatter@details@spdlog@@U?$default_delete@Vflag_formatter@details@spdlog@@@std@@@1@$$QAV31@@Z 00421af0 f i datarecorder.obj
 0001:00020b10       ??$create@PBV?$shared_ptr@Vsink@sinks@spdlog@@@std@@@?$registry_t@Vmutex@std@@@details@spdlog@@QAE?AV?$shared_ptr@Vlogger@spdlog@@@std@@ABV?$basic_string@DU?$char_traits@D@std@@V?$allocator@D@2@@4@ABQBV?$shared_ptr@Vsink@sinks@spdlog@@@4@1@Z 00421b10 f i datarecorder.obj
 0001:00020d30       ??$create@V?$rotating_file_sink@Vmutex@std@@@sinks@spdlog@@V?$basic_string@DU?$char_traits@D@std@@V?$allocator@D@2@@std@@II@spdlog@@YA?AV?$shared_ptr@Vlogger@spdlog@@@std@@ABV?$basic_string@DU?$char_traits@D@std@@V?$allocator@D@2@@2@V32@II@Z 00421d30 f i datarecorder.obj
 0001:00020ef0       ??$destroy@PAU?$_List_node@U?$pair@$$CBV?$basic_string@DU?$char_traits@D@std@@V?$allocator@D@2@@std@@V?$shared_ptr@Vlogger@spdlog@@@2@@std@@PAX@std@@@?$_Wrap_alloc@V?$allocator@U?$_List_node@U?$pair@$$CBV?$basic_string@DU?$char_traits@D@std@@V?$allocator@D@2@@std@@V?$shared_ptr@Vlogger@spdlog@@@2@@std@@PAX@std@@@std@@@std@@QAEXPAPAU?$_List_node@U?$pair@$$CBV?$basic_string@DU?$char_traits@D@std@@V?$allocator@D@2@@std@@V?$shared_ptr@Vlogger@spdlog@@@2@@std@@PAX@1@@Z 00421ef0 f i datarecorder.obj
 0001:00020f00       ??$destroy@PAU?$_List_node@U?$pair@$$CBV?$basic_string@DU?$char_traits@D@std@@V?$allocator@D@2@@std@@V?$shared_ptr@Vlogger@spdlog@@@2@@std@@PAX@std@@@?$allocator@U?$_List_node@U?$pair@$$CBV?$basic_string@DU?$char_traits@D@std@@V?$allocator@D@2@@std@@V?$shared_ptr@Vlogger@spdlog@@@2@@std@@PAX@std@@@std@@QAEXPAPAU?$_List_node@U?$pair@$$CBV?$basic_string@DU?$char_traits@D@std@@V?$allocator@D@2@@std@@V?$shared_ptr@Vlogger@spdlog@@@2@@std@@PAX@1@@Z 00421f00 f i datarecorder.obj
 0001:00020f10       ??$destroy@PAU?$_List_node@U?$pair@$$CBV?$basic_string@DU?$char_traits@D@std@@V?$allocator@D@2@@std@@V?$shared_ptr@Vlogger@spdlog@@@2@@std@@PAX@std@@@?$allocator_traits@V?$allocator@U?$_List_node@U?$pair@$$CBV?$basic_string@DU?$char_traits@D@std@@V?$allocator@D@2@@std@@V?$shared_ptr@Vlogger@spdlog@@@2@@std@@PAX@std@@@std@@@std@@SAXAAV?$allocator@U?$_List_node@U?$pair@$$CBV?$basic_string@DU?$char_traits@D@std@@V?$allocator@D@2@@std@@V?$shared_ptr@Vlogger@spdlog@@@2@@std@@PAX@std@@@1@PAPAU?$_List_node@U?$pair@$$CBV?$basic_string@DU?$char_traits@D@std@@V?$allocator@D@2@@std@@V?$shared_ptr@Vlogger@spdlog@@@2@@std@@PAX@1@@Z 00421f10 f i datarecorder.obj
 0001:00020f20       ??$destroy@PAU?$_Tree_node@U?$pair@$$CBV?$basic_string@DU?$char_traits@D@std@@V?$allocator@D@2@@std@@H@std@@PAX@std@@@?$_Wrap_alloc@V?$allocator@U?$_Tree_node@U?$pair@$$CBV?$basic_string@DU?$char_traits@D@std@@V?$allocator@D@2@@std@@H@std@@PAX@std@@@std@@@std@@QAEXPAPAU?$_Tree_node@U?$pair@$$CBV?$basic_string@DU?$char_traits@D@std@@V?$allocator@D@2@@std@@H@std@@PAX@1@@Z 00421f20 f i datarecorder.obj
 0001:00020f30       ??$destroy@PAU?$_Tree_node@U?$pair@$$CBV?$basic_string@DU?$char_traits@D@std@@V?$allocator@D@2@@std@@H@std@@PAX@std@@@?$allocator@U?$_Tree_node@U?$pair@$$CBV?$basic_string@DU?$char_traits@D@std@@V?$allocator@D@2@@std@@H@std@@PAX@std@@@std@@QAEXPAPAU?$_Tree_node@U?$pair@$$CBV?$basic_string@DU?$char_traits@D@std@@V?$allocator@D@2@@std@@H@std@@PAX@1@@Z 00421f30 f i datarecorder.obj
 0001:00020f40       ??$destroy@PAU?$_Tree_node@U?$pair@$$CBV?$basic_string@DU?$char_traits@D@std@@V?$allocator@D@2@@std@@H@std@@PAX@std@@@?$allocator_traits@V?$allocator@U?$_Tree_node@U?$pair@$$CBV?$basic_string@DU?$char_traits@D@std@@V?$allocator@D@2@@std@@H@std@@PAX@std@@@std@@@std@@SAXAAV?$allocator@U?$_Tree_node@U?$pair@$$CBV?$basic_string@DU?$char_traits@D@std@@V?$allocator@D@2@@std@@H@std@@PAX@std@@@1@PAPAU?$_Tree_node@U?$pair@$$CBV?$basic_string@DU?$char_traits@D@std@@V?$allocator@D@2@@std@@H@std@@PAX@1@@Z 00421f40 f i datarecorder.obj
 0001:00020f50       ??$destroy@PAU?$_Tree_node@U?$pair@$$CBV?$basic_string@DU?$char_traits@D@std@@V?$allocator@D@2@@std@@V?$shared_ptr@VEvent_Tick@@@2@@std@@PAX@std@@@?$_Wrap_alloc@V?$allocator@U?$_Tree_node@U?$pair@$$CBV?$basic_string@DU?$char_traits@D@std@@V?$allocator@D@2@@std@@V?$shared_ptr@VEvent_Tick@@@2@@std@@PAX@std@@@std@@@std@@QAEXPAPAU?$_Tree_node@U?$pair@$$CBV?$basic_string@DU?$char_traits@D@std@@V?$allocator@D@2@@std@@V?$shared_ptr@VEvent_Tick@@@2@@std@@PAX@1@@Z 00421f50 f i datarecorder.obj
 0001:00020f60       ??$destroy@PAU?$_Tree_node@U?$pair@$$CBV?$basic_string@DU?$char_traits@D@std@@V?$allocator@D@2@@std@@V?$shared_ptr@VEvent_Tick@@@2@@std@@PAX@std@@@?$allocator@U?$_Tree_node@U?$pair@$$CBV?$basic_string@DU?$char_traits@D@std@@V?$allocator@D@2@@std@@V?$shared_ptr@VEvent_Tick@@@2@@std@@PAX@std@@@std@@QAEXPAPAU?$_Tree_node@U?$pair@$$CBV?$basic_string@DU?$char_traits@D@std@@V?$allocator@D@2@@std@@V?$shared_ptr@VEvent_Tick@@@2@@std@@PAX@1@@Z 00421f60 f i datarecorder.obj
 0001:00020f70       ??$destroy@PAU?$_Tree_node@U?$pair@$$CBV?$basic_string@DU?$char_traits@D@std@@V?$allocator@D@2@@std@@V?$shared_ptr@VEvent_Tick@@@2@@std@@PAX@std@@@?$allocator_traits@V?$allocator@U?$_Tree_node@U?$pair@$$CBV?$basic_string@DU?$char_traits@D@std@@V?$allocator@D@2@@std@@V?$shared_ptr@VEvent_Tick@@@2@@std@@PAX@std@@@std@@@std@@SAXAAV?$allocator@U?$_Tree_node@U?$pair@$$CBV?$basic_string@DU?$char_traits@D@std@@V?$allocator@D@2@@std@@V?$shared_ptr@VEvent_Tick@@@2@@std@@PAX@std@@@1@PAPAU?$_Tree_node@U?$pair@$$CBV?$basic_string@DU?$char_traits@D@std@@V?$allocator@D@2@@std@@V?$shared_ptr@VEvent_Tick@@@2@@std@@PAX@1@@Z 00421f70 f i datarecorder.obj
 0001:00020f80       ??$destroy@PAU?$_Tree_node@U?$pair@$$CBV?$basic_string@DU?$char_traits@D@std@@V?$allocator@D@2@@std@@VBarData@jsstructs@@@std@@PAX@std@@@?$_Wrap_alloc@V?$allocator@U?$_Tree_node@U?$pair@$$CBV?$basic_string@DU?$char_traits@D@std@@V?$allocator@D@2@@std@@VBarData@jsstructs@@@std@@PAX@std@@@std@@@std@@QAEXPAPAU?$_Tree_node@U?$pair@$$CBV?$basic_string@DU?$char_traits@D@std@@V?$allocator@D@2@@std@@VBarData@jsstructs@@@std@@PAX@1@@Z 00421f80 f i datarecorder.obj
 0001:00020f90       ??$destroy@PAU?$_Tree_node@U?$pair@$$CBV?$basic_string@DU?$char_traits@D@std@@V?$allocator@D@2@@std@@VBarData@jsstructs@@@std@@PAX@std@@@?$allocator@U?$_Tree_node@U?$pair@$$CBV?$basic_string@DU?$char_traits@D@std@@V?$allocator@D@2@@std@@VBarData@jsstructs@@@std@@PAX@std@@@std@@QAEXPAPAU?$_Tree_node@U?$pair@$$CBV?$basic_string@DU?$char_traits@D@std@@V?$allocator@D@2@@std@@VBarData@jsstructs@@@std@@PAX@1@@Z 00421f90 f i datarecorder.obj
 0001:00020fa0       ??$destroy@PAU?$_Tree_node@U?$pair@$$CBV?$basic_string@DU?$char_traits@D@std@@V?$allocator@D@2@@std@@VBarData@jsstructs@@@std@@PAX@std@@@?$allocator_traits@V?$allocator@U?$_Tree_node@U?$pair@$$CBV?$basic_string@DU?$char_traits@D@std@@V?$allocator@D@2@@std@@VBarData@jsstructs@@@std@@PAX@std@@@std@@@std@@SAXAAV?$allocator@U?$_Tree_node@U?$pair@$$CBV?$basic_string@DU?$char_traits@D@std@@V?$allocator@D@2@@std@@VBarData@jsstructs@@@std@@PAX@std@@@1@PAPAU?$_Tree_node@U?$pair@$$CBV?$basic_string@DU?$char_traits@D@std@@V?$allocator@D@2@@std@@VBarData@jsstructs@@@std@@PAX@1@@Z 00421fa0 f i datarecorder.obj
 0001:00020fb0       ??$destroy@PAU?$_Tree_node@U?$pair@$$CBV?$basic_string@DU?$char_traits@D@std@@V?$allocator@D@2@@std@@_J@std@@PAX@std@@@?$_Wrap_alloc@V?$allocator@U?$_Tree_node@U?$pair@$$CBV?$basic_string@DU?$char_traits@D@std@@V?$allocator@D@2@@std@@_J@std@@PAX@std@@@std@@@std@@QAEXPAPAU?$_Tree_node@U?$pair@$$CBV?$basic_string@DU?$char_traits@D@std@@V?$allocator@D@2@@std@@_J@std@@PAX@1@@Z 00421fb0 f i datarecorder.obj
 0001:00020fc0       ??$destroy@PAU?$_Tree_node@U?$pair@$$CBV?$basic_string@DU?$char_traits@D@std@@V?$allocator@D@2@@std@@_J@std@@PAX@std@@@?$allocator@U?$_Tree_node@U?$pair@$$CBV?$basic_string@DU?$char_traits@D@std@@V?$allocator@D@2@@std@@_J@std@@PAX@std@@@std@@QAEXPAPAU?$_Tree_node@U?$pair@$$CBV?$basic_string@DU?$char_traits@D@std@@V?$allocator@D@2@@std@@_J@std@@PAX@1@@Z 00421fc0 f i datarecorder.obj
 0001:00020fd0       ??$destroy@PAU?$_Tree_node@U?$pair@$$CBV?$basic_string@DU?$char_traits@D@std@@V?$allocator@D@2@@std@@_J@std@@PAX@std@@@?$allocator_traits@V?$allocator@U?$_Tree_node@U?$pair@$$CBV?$basic_string@DU?$char_traits@D@std@@V?$allocator@D@2@@std@@_J@std@@PAX@std@@@std@@@std@@SAXAAV?$allocator@U?$_Tree_node@U?$pair@$$CBV?$basic_string@DU?$char_traits@D@std@@V?$allocator@D@2@@std@@_J@std@@PAX@std@@@1@PAPAU?$_Tree_node@U?$pair@$$CBV?$basic_string@DU?$char_traits@D@std@@V?$allocator@D@2@@std@@_J@std@@PAX@1@@Z 00421fd0 f i datarecorder.obj
 0001:00020fe0       ??$destroy@U?$pair@$$CBV?$basic_string@DU?$char_traits@D@std@@V?$allocator@D@2@@std@@H@std@@@?$_Wrap_alloc@V?$allocator@U?$_Tree_node@U?$pair@$$CBV?$basic_string@DU?$char_traits@D@std@@V?$allocator@D@2@@std@@H@std@@PAX@std@@@std@@@std@@QAEXPAU?$pair@$$CBV?$basic_string@DU?$char_traits@D@std@@V?$allocator@D@2@@std@@H@1@@Z 00421fe0 f i datarecorder.obj
 0001:00021010       ??$destroy@U?$pair@$$CBV?$basic_string@DU?$char_traits@D@std@@V?$allocator@D@2@@std@@H@std@@@?$allocator@U?$_Tree_node@U?$pair@$$CBV?$basic_string@DU?$char_traits@D@std@@V?$allocator@D@2@@std@@H@std@@PAX@std@@@std@@QAEXPAU?$pair@$$CBV?$basic_string@DU?$char_traits@D@std@@V?$allocator@D@2@@std@@H@1@@Z 00422010 f i datarecorder.obj
 0001:00021040       ??$destroy@U?$pair@$$CBV?$basic_string@DU?$char_traits@D@std@@V?$allocator@D@2@@std@@H@std@@@?$allocator_traits@V?$allocator@U?$_Tree_node@U?$pair@$$CBV?$basic_string@DU?$char_traits@D@std@@V?$allocator@D@2@@std@@H@std@@PAX@std@@@std@@@std@@SAXAAV?$allocator@U?$_Tree_node@U?$pair@$$CBV?$basic_string@DU?$char_traits@D@std@@V?$allocator@D@2@@std@@H@std@@PAX@std@@@1@PAU?$pair@$$CBV?$basic_string@DU?$char_traits@D@std@@V?$allocator@D@2@@std@@H@1@@Z 00422040 f i datarecorder.obj
 0001:00021070       ??$destroy@U?$pair@$$CBV?$basic_string@DU?$char_traits@D@std@@V?$allocator@D@2@@std@@V?$shared_ptr@VEvent_Tick@@@2@@std@@@?$_Wrap_alloc@V?$allocator@U?$_Tree_node@U?$pair@$$CBV?$basic_string@DU?$char_traits@D@std@@V?$allocator@D@2@@std@@V?$shared_ptr@VEvent_Tick@@@2@@std@@PAX@std@@@std@@@std@@QAEXPAU?$pair@$$CBV?$basic_string@DU?$char_traits@D@std@@V?$allocator@D@2@@std@@V?$shared_ptr@VEvent_Tick@@@2@@1@@Z 00422070 f i datarecorder.obj
 0001:000210d0       ??$destroy@U?$pair@$$CBV?$basic_string@DU?$char_traits@D@std@@V?$allocator@D@2@@std@@V?$shared_ptr@VEvent_Tick@@@2@@std@@@?$allocator@U?$_Tree_node@U?$pair@$$CBV?$basic_string@DU?$char_traits@D@std@@V?$allocator@D@2@@std@@V?$shared_ptr@VEvent_Tick@@@2@@std@@PAX@std@@@std@@QAEXPAU?$pair@$$CBV?$basic_string@DU?$char_traits@D@std@@V?$allocator@D@2@@std@@V?$shared_ptr@VEvent_Tick@@@2@@1@@Z 004220d0 f i datarecorder.obj
 0001:00021130       ??$destroy@U?$pair@$$CBV?$basic_string@DU?$char_traits@D@std@@V?$allocator@D@2@@std@@V?$shared_ptr@VEvent_Tick@@@2@@std@@@?$allocator_traits@V?$allocator@U?$_Tree_node@U?$pair@$$CBV?$basic_string@DU?$char_traits@D@std@@V?$allocator@D@2@@std@@V?$shared_ptr@VEvent_Tick@@@2@@std@@PAX@std@@@std@@@std@@SAXAAV?$allocator@U?$_Tree_node@U?$pair@$$CBV?$basic_string@DU?$char_traits@D@std@@V?$allocator@D@2@@std@@V?$shared_ptr@VEvent_Tick@@@2@@std@@PAX@std@@@1@PAU?$pair@$$CBV?$basic_string@DU?$char_traits@D@std@@V?$allocator@D@2@@std@@V?$shared_ptr@VEvent_Tick@@@2@@1@@Z 00422130 f i datarecorder.obj
 0001:00021190       ??$destroy@U?$pair@$$CBV?$basic_string@DU?$char_traits@D@std@@V?$allocator@D@2@@std@@V?$shared_ptr@Vlogger@spdlog@@@2@@std@@@?$_Wrap_alloc@V?$allocator@U?$_List_node@U?$pair@$$CBV?$basic_string@DU?$char_traits@D@std@@V?$allocator@D@2@@std@@V?$shared_ptr@Vlogger@spdlog@@@2@@std@@PAX@std@@@std@@@std@@QAEXPAU?$pair@$$CBV?$basic_string@DU?$char_traits@D@std@@V?$allocator@D@2@@std@@V?$shared_ptr@Vlogger@spdlog@@@2@@1@@Z 00422190 f i datarecorder.obj
 0001:000211f0       ??$destroy@U?$pair@$$CBV?$basic_string@DU?$char_traits@D@std@@V?$allocator@D@2@@std@@V?$shared_ptr@Vlogger@spdlog@@@2@@std@@@?$allocator@U?$_List_node@U?$pair@$$CBV?$basic_string@DU?$char_traits@D@std@@V?$allocator@D@2@@std@@V?$shared_ptr@Vlogger@spdlog@@@2@@std@@PAX@std@@@std@@QAEXPAU?$pair@$$CBV?$basic_string@DU?$char_traits@D@std@@V?$allocator@D@2@@std@@V?$shared_ptr@Vlogger@spdlog@@@2@@1@@Z 004221f0 f i datarecorder.obj
 0001:00021250       ??$destroy@U?$pair@$$CBV?$basic_string@DU?$char_traits@D@std@@V?$allocator@D@2@@std@@V?$shared_ptr@Vlogger@spdlog@@@2@@std@@@?$allocator_traits@V?$allocator@U?$_List_node@U?$pair@$$CBV?$basic_string@DU?$char_traits@D@std@@V?$allocator@D@2@@std@@V?$shared_ptr@Vlogger@spdlog@@@2@@std@@PAX@std@@@std@@@std@@SAXAAV?$allocator@U?$_List_node@U?$pair@$$CBV?$basic_string@DU?$char_traits@D@std@@V?$allocator@D@2@@std@@V?$shared_ptr@Vlogger@spdlog@@@2@@std@@PAX@std@@@1@PAU?$pair@$$CBV?$basic_string@DU?$char_traits@D@std@@V?$allocator@D@2@@std@@V?$shared_ptr@Vlogger@spdlog@@@2@@1@@Z 00422250 f i datarecorder.obj
 0001:000212b0       ??$destroy@U?$pair@$$CBV?$basic_string@DU?$char_traits@D@std@@V?$allocator@D@2@@std@@VBarData@jsstructs@@@std@@@?$_Wrap_alloc@V?$allocator@U?$_Tree_node@U?$pair@$$CBV?$basic_string@DU?$char_traits@D@std@@V?$allocator@D@2@@std@@VBarData@jsstructs@@@std@@PAX@std@@@std@@@std@@QAEXPAU?$pair@$$CBV?$basic_string@DU?$char_traits@D@std@@V?$allocator@D@2@@std@@VBarData@jsstructs@@@1@@Z 004222b0 f i datarecorder.obj
 0001:000212f0       ??$destroy@U?$pair@$$CBV?$basic_string@DU?$char_traits@D@std@@V?$allocator@D@2@@std@@VBarData@jsstructs@@@std@@@?$allocator@U?$_Tree_node@U?$pair@$$CBV?$basic_string@DU?$char_traits@D@std@@V?$allocator@D@2@@std@@VBarData@jsstructs@@@std@@PAX@std@@@std@@QAEXPAU?$pair@$$CBV?$basic_string@DU?$char_traits@D@std@@V?$allocator@D@2@@std@@VBarData@jsstructs@@@1@@Z 004222f0 f i datarecorder.obj
 0001:00021330       ??$destroy@U?$pair@$$CBV?$basic_string@DU?$char_traits@D@std@@V?$allocator@D@2@@std@@VBarData@jsstructs@@@std@@@?$allocator_traits@V?$allocator@U?$_Tree_node@U?$pair@$$CBV?$basic_string@DU?$char_traits@D@std@@V?$allocator@D@2@@std@@VBarData@jsstructs@@@std@@PAX@std@@@std@@@std@@SAXAAV?$allocator@U?$_Tree_node@U?$pair@$$CBV?$basic_string@DU?$char_traits@D@std@@V?$allocator@D@2@@std@@VBarData@jsstructs@@@std@@PAX@std@@@1@PAU?$pair@$$CBV?$basic_string@DU?$char_traits@D@std@@V?$allocator@D@2@@std@@VBarData@jsstructs@@@1@@Z 00422330 f i datarecorder.obj
 0001:00021370       ??$destroy@U?$pair@$$CBV?$basic_string@DU?$char_traits@D@std@@V?$allocator@D@2@@std@@_J@std@@@?$_Wrap_alloc@V?$allocator@U?$_Tree_node@U?$pair@$$CBV?$basic_string@DU?$char_traits@D@std@@V?$allocator@D@2@@std@@_J@std@@PAX@std@@@std@@@std@@QAEXPAU?$pair@$$CBV?$basic_string@DU?$char_traits@D@std@@V?$allocator@D@2@@std@@_J@1@@Z 00422370 f i datarecorder.obj
 0001:000213a0       ??$destroy@U?$pair@$$CBV?$basic_string@DU?$char_traits@D@std@@V?$allocator@D@2@@std@@_J@std@@@?$allocator@U?$_Tree_node@U?$pair@$$CBV?$basic_string@DU?$char_traits@D@std@@V?$allocator@D@2@@std@@_J@std@@PAX@std@@@std@@QAEXPAU?$pair@$$CBV?$basic_string@DU?$char_traits@D@std@@V?$allocator@D@2@@std@@_J@1@@Z 004223a0 f i datarecorder.obj
 0001:000213d0       ??$destroy@U?$pair@$$CBV?$basic_string@DU?$char_traits@D@std@@V?$allocator@D@2@@std@@_J@std@@@?$allocator_traits@V?$allocator@U?$_Tree_node@U?$pair@$$CBV?$basic_string@DU?$char_traits@D@std@@V?$allocator@D@2@@std@@_J@std@@PAX@std@@@std@@@std@@SAXAAV?$allocator@U?$_Tree_node@U?$pair@$$CBV?$basic_string@DU?$char_traits@D@std@@V?$allocator@D@2@@std@@_J@std@@PAX@std@@@1@PAU?$pair@$$CBV?$basic_string@DU?$char_traits@D@std@@V?$allocator@D@2@@std@@_J@1@@Z 004223d0 f i datarecorder.obj
 0001:00021400       ??$destroy@U?$pair@V?$BasicStringRef@D@fmt@@UArg@internal@2@@std@@@?$_Wrap_alloc@V?$allocator@U?$pair@V?$BasicStringRef@D@fmt@@UArg@internal@2@@std@@@std@@@std@@QAEXPAU?$pair@V?$BasicStringRef@D@fmt@@UArg@internal@2@@1@@Z 00422400 f i datarecorder.obj
 0001:00021410       ??$destroy@U?$pair@V?$BasicStringRef@D@fmt@@UArg@internal@2@@std@@@?$allocator@U?$pair@V?$BasicStringRef@D@fmt@@UArg@internal@2@@std@@@std@@QAEXPAU?$pair@V?$BasicStringRef@D@fmt@@UArg@internal@2@@1@@Z 00422410 f i datarecorder.obj
 0001:00021420       ??$destroy@U?$pair@V?$BasicStringRef@D@fmt@@UArg@internal@2@@std@@@?$allocator_traits@V?$allocator@U?$pair@V?$BasicStringRef@D@fmt@@UArg@internal@2@@std@@@std@@@std@@SAXAAV?$allocator@U?$pair@V?$BasicStringRef@D@fmt@@UArg@internal@2@@std@@@1@PAU?$pair@V?$BasicStringRef@D@fmt@@UArg@internal@2@@1@@Z 00422420 f i datarecorder.obj
 0001:00021430       ??$destroy@V?$_Func_impl@U?$_Callable_obj@V<lambda_39bc3a8adb760765dcdc68c9b1844393>@@$0A@@std@@V?$allocator@V?$_Func_class@XABV?$basic_string@DU?$char_traits@D@std@@V?$allocator@D@2@@std@@@std@@@2@XABV?$basic_string@DU?$char_traits@D@std@@V?$allocator@D@2@@2@@std@@@?$allocator@V?$_Func_impl@U?$_Callable_obj@V<lambda_39bc3a8adb760765dcdc68c9b1844393>@@$0A@@std@@V?$allocator@V?$_Func_class@XABV?$basic_string@DU?$char_traits@D@std@@V?$allocator@D@2@@std@@@std@@@2@XABV?$basic_string@DU?$char_traits@D@std@@V?$allocator@D@2@@2@@std@@@std@@QAEXPAV?$_Func_impl@U?$_Callable_obj@V<lambda_39bc3a8adb760765dcdc68c9b1844393>@@$0A@@std@@V?$allocator@V?$_Func_class@XABV?$basic_string@DU?$char_traits@D@std@@V?$allocator@D@2@@std@@@std@@@2@XABV?$basic_string@DU?$char_traits@D@std@@V?$allocator@D@2@@2@@1@@Z 00422430 f i datarecorder.obj
 0001:00021450       ??$destroy@V?$_Func_impl@U?$_Callable_obj@V?$_Bind@$00XU?$_Pmf_wrap@P8Datarecorder@@AEXV?$shared_ptr@VEvent@@@std@@@ZXV1@V23@@std@@QAVDatarecorder@@AAV?$_Ph@$00@2@@std@@$0A@@std@@V?$allocator@V?$_Func_class@XV?$shared_ptr@VEvent@@@std@@@std@@@2@XV?$shared_ptr@VEvent@@@2@@std@@@?$allocator@V?$_Func_impl@U?$_Callable_obj@V?$_Bind@$00XU?$_Pmf_wrap@P8Datarecorder@@AEXV?$shared_ptr@VEvent@@@std@@@ZXV1@V23@@std@@QAVDatarecorder@@AAV?$_Ph@$00@2@@std@@$0A@@std@@V?$allocator@V?$_Func_class@XV?$shared_ptr@VEvent@@@std@@@std@@@2@XV?$shared_ptr@VEvent@@@2@@std@@@std@@QAEXPAV?$_Func_impl@U?$_Callable_obj@V?$_Bind@$00XU?$_Pmf_wrap@P8Datarecorder@@AEXV?$shared_ptr@VEvent@@@std@@@ZXV1@V23@@std@@QAVDatarecorder@@AAV?$_Ph@$00@2@@std@@$0A@@std@@V?$allocator@V?$_Func_class@XV?$shared_ptr@VEvent@@@std@@@std@@@2@XV?$shared_ptr@VEvent@@@2@@1@@Z 00422450 f i datarecorder.obj
 0001:00021470       ??$destroy@V?$_Func_impl@U?$_Callable_obj@V?$_Bind@$00XU?$_Pmf_wrap@P8Datarecorder@@AEXXZXV1@$$$V@std@@QAVDatarecorder@@@std@@$0A@@std@@V?$allocator@V?$_Func_class@XV?$shared_ptr@VEvent@@@std@@@std@@@2@XV?$shared_ptr@VEvent@@@2@@std@@@?$allocator@V?$_Func_impl@U?$_Callable_obj@V?$_Bind@$00XU?$_Pmf_wrap@P8Datarecorder@@AEXXZXV1@$$$V@std@@QAVDatarecorder@@@std@@$0A@@std@@V?$allocator@V?$_Func_class@XV?$shared_ptr@VEvent@@@std@@@std@@@2@XV?$shared_ptr@VEvent@@@2@@std@@@std@@QAEXPAV?$_Func_impl@U?$_Callable_obj@V?$_Bind@$00XU?$_Pmf_wrap@P8Datarecorder@@AEXXZXV1@$$$V@std@@QAVDatarecorder@@@std@@$0A@@std@@V?$allocator@V?$_Func_class@XV?$shared_ptr@VEvent@@@std@@@std@@@2@XV?$shared_ptr@VEvent@@@2@@1@@Z 00422470 f i datarecorder.obj
 0001:00021490       ??$destroy@V?$_List_unchecked_iterator@V?$_List_val@U?$_List_simple_types@U?$pair@$$CBV?$basic_string@DU?$char_traits@D@std@@V?$allocator@D@2@@std@@V?$shared_ptr@Vlogger@spdlog@@@2@@std@@@std@@@std@@@std@@@?$_Wrap_alloc@U?$_Wrap_alloc@V?$allocator@V?$_List_unchecked_iterator@V?$_List_val@U?$_List_simple_types@U?$pair@$$CBV?$basic_string@DU?$char_traits@D@std@@V?$allocator@D@2@@std@@V?$shared_ptr@Vlogger@spdlog@@@2@@std@@@std@@@std@@@std@@@std@@@std@@@std@@QAEXPAV?$_List_unchecked_iterator@V?$_List_val@U?$_List_simple_types@U?$pair@$$CBV?$basic_string@DU?$char_traits@D@std@@V?$allocator@D@2@@std@@V?$shared_ptr@Vlogger@spdlog@@@2@@std@@@std@@@std@@@1@@Z 00422490 f i datarecorder.obj
 0001:000214a0       ??$destroy@V?$_List_unchecked_iterator@V?$_List_val@U?$_List_simple_types@U?$pair@$$CBV?$basic_string@DU?$char_traits@D@std@@V?$allocator@D@2@@std@@V?$shared_ptr@Vlogger@spdlog@@@2@@std@@@std@@@std@@@std@@@?$_Wrap_alloc@V?$allocator@V?$_List_unchecked_iterator@V?$_List_val@U?$_List_simple_types@U?$pair@$$CBV?$basic_string@DU?$char_traits@D@std@@V?$allocator@D@2@@std@@V?$shared_ptr@Vlogger@spdlog@@@2@@std@@@std@@@std@@@std@@@std@@@std@@QAEXPAV?$_List_unchecked_iterator@V?$_List_val@U?$_List_simple_types@U?$pair@$$CBV?$basic_string@DU?$char_traits@D@std@@V?$allocator@D@2@@std@@V?$shared_ptr@Vlogger@spdlog@@@2@@std@@@std@@@std@@@1@@Z 004224a0 f i datarecorder.obj
 0001:000214b0       ??$destroy@V?$_List_unchecked_iterator@V?$_List_val@U?$_List_simple_types@U?$pair@$$CBV?$basic_string@DU?$char_traits@D@std@@V?$allocator@D@2@@std@@V?$shared_ptr@Vlogger@spdlog@@@2@@std@@@std@@@std@@@std@@@?$allocator@V?$_List_unchecked_iterator@V?$_List_val@U?$_List_simple_types@U?$pair@$$CBV?$basic_string@DU?$char_traits@D@std@@V?$allocator@D@2@@std@@V?$shared_ptr@Vlogger@spdlog@@@2@@std@@@std@@@std@@@std@@@std@@QAEXPAV?$_List_unchecked_iterator@V?$_List_val@U?$_List_simple_types@U?$pair@$$CBV?$basic_string@DU?$char_traits@D@std@@V?$allocator@D@2@@std@@V?$shared_ptr@Vlogger@spdlog@@@2@@std@@@std@@@std@@@1@@Z 004224b0 f i datarecorder.obj
 0001:000214c0       ??$destroy@V?$_List_unchecked_iterator@V?$_List_val@U?$_List_simple_types@U?$pair@$$CBV?$basic_string@DU?$char_traits@D@std@@V?$allocator@D@2@@std@@V?$shared_ptr@Vlogger@spdlog@@@2@@std@@@std@@@std@@@std@@@?$allocator_traits@U?$_Wrap_alloc@V?$allocator@V?$_List_unchecked_iterator@V?$_List_val@U?$_List_simple_types@U?$pair@$$CBV?$basic_string@DU?$char_traits@D@std@@V?$allocator@D@2@@std@@V?$shared_ptr@Vlogger@spdlog@@@2@@std@@@std@@@std@@@std@@@std@@@std@@@std@@SAXAAU?$_Wrap_alloc@V?$allocator@V?$_List_unchecked_iterator@V?$_List_val@U?$_List_simple_types@U?$pair@$$CBV?$basic_string@DU?$char_traits@D@std@@V?$allocator@D@2@@std@@V?$shared_ptr@Vlogger@spdlog@@@2@@std@@@std@@@std@@@std@@@std@@@1@PAV?$_List_unchecked_iterator@V?$_List_val@U?$_List_simple_types@U?$pair@$$CBV?$basic_string@DU?$char_traits@D@std@@V?$allocator@D@2@@std@@V?$shared_ptr@Vlogger@spdlog@@@2@@std@@@std@@@std@@@1@@Z 004224c0 f i datarecorder.obj
 0001:000214d0       ??$destroy@V?$_List_unchecked_iterator@V?$_List_val@U?$_List_simple_types@U?$pair@$$CBV?$basic_string@DU?$char_traits@D@std@@V?$allocator@D@2@@std@@V?$shared_ptr@Vlogger@spdlog@@@2@@std@@@std@@@std@@@std@@@?$allocator_traits@V?$allocator@V?$_List_unchecked_iterator@V?$_List_val@U?$_List_simple_types@U?$pair@$$CBV?$basic_string@DU?$char_traits@D@std@@V?$allocator@D@2@@std@@V?$shared_ptr@Vlogger@spdlog@@@2@@std@@@std@@@std@@@std@@@std@@@std@@SAXAAV?$allocator@V?$_List_unchecked_iterator@V?$_List_val@U?$_List_simple_types@U?$pair@$$CBV?$basic_string@DU?$char_traits@D@std@@V?$allocator@D@2@@std@@V?$shared_ptr@Vlogger@spdlog@@@2@@std@@@std@@@std@@@std@@@1@PAV?$_List_unchecked_iterator@V?$_List_val@U?$_List_simple_types@U?$pair@$$CBV?$basic_string@DU?$char_traits@D@std@@V?$allocator@D@2@@std@@V?$shared_ptr@Vlogger@spdlog@@@2@@std@@@std@@@std@@@1@@Z 004224d0 f i datarecorder.obj
 0001:000214e0       ??$destroy@V?$shared_ptr@Vsink@sinks@spdlog@@@std@@@?$_Wrap_alloc@V?$allocator@V?$shared_ptr@Vsink@sinks@spdlog@@@std@@@std@@@std@@QAEXPAV?$shared_ptr@Vsink@sinks@spdlog@@@1@@Z 004224e0 f i datarecorder.obj
 0001:00021520       ??$destroy@V?$shared_ptr@Vsink@sinks@spdlog@@@std@@@?$allocator@V?$shared_ptr@Vsink@sinks@spdlog@@@std@@@std@@QAEXPAV?$shared_ptr@Vsink@sinks@spdlog@@@1@@Z 00422520 f i datarecorder.obj
 0001:00021560       ??$destroy@V?$shared_ptr@Vsink@sinks@spdlog@@@std@@@?$allocator_traits@V?$allocator@V?$shared_ptr@Vsink@sinks@spdlog@@@std@@@std@@@std@@SAXAAV?$allocator@V?$shared_ptr@Vsink@sinks@spdlog@@@std@@@1@PAV?$shared_ptr@Vsink@sinks@spdlog@@@1@@Z 00422560 f i datarecorder.obj
 0001:000215a0       ??$destroy@V?$unique_ptr@Vflag_formatter@details@spdlog@@U?$default_delete@Vflag_formatter@details@spdlog@@@std@@@std@@@?$_Wrap_alloc@V?$allocator@V?$unique_ptr@Vflag_formatter@details@spdlog@@U?$default_delete@Vflag_formatter@details@spdlog@@@std@@@std@@@std@@@std@@QAEXPAV?$unique_ptr@Vflag_formatter@details@spdlog@@U?$default_delete@Vflag_formatter@details@spdlog@@@std@@@1@@Z 004225a0 f i datarecorder.obj
 0001:000215c0       ??$destroy@V?$unique_ptr@Vflag_formatter@details@spdlog@@U?$default_delete@Vflag_formatter@details@spdlog@@@std@@@std@@@?$allocator@V?$unique_ptr@Vflag_formatter@details@spdlog@@U?$default_delete@Vflag_formatter@details@spdlog@@@std@@@std@@@std@@QAEXPAV?$unique_ptr@Vflag_formatter@details@spdlog@@U?$default_delete@Vflag_formatter@details@spdlog@@@std@@@1@@Z 004225c0 f i datarecorder.obj
 0001:000215e0       ??$destroy@V?$unique_ptr@Vflag_formatter@details@spdlog@@U?$default_delete@Vflag_formatter@details@spdlog@@@std@@@std@@@?$allocator_traits@V?$allocator@V?$unique_ptr@Vflag_formatter@details@spdlog@@U?$default_delete@Vflag_formatter@details@spdlog@@@std@@@std@@@std@@@std@@SAXAAV?$allocator@V?$unique_ptr@Vflag_formatter@details@spdlog@@U?$default_delete@Vflag_formatter@details@spdlog@@@std@@@std@@@1@PAV?$unique_ptr@Vflag_formatter@details@spdlog@@U?$default_delete@Vflag_formatter@details@spdlog@@@std@@@1@@Z 004225e0 f i datarecorder.obj
 0001:00021600       ??$distance@PBV?$shared_ptr@Vsink@sinks@spdlog@@@std@@@std@@YAHPBV?$shared_ptr@Vsink@sinks@spdlog@@@0@0@Z 00422600 f i datarecorder.obj
 0001:00021610       ??$distance@V?$move_iterator@V?$_Vector_iterator@V?$_Vector_val@U?$_Simple_types@V?$basic_string@DU?$char_traits@D@std@@V?$allocator@D@2@@std@@@std@@@std@@@std@@@std@@@std@@YAHV?$move_iterator@V?$_Vector_iterator@V?$_Vector_val@U?$_Simple_types@V?$basic_string@DU?$char_traits@D@std@@V?$allocator@D@2@@std@@@std@@@std@@@std@@@0@0@Z 00422610 f i datarecorder.obj
 0001:00021630       ??$duration_cast@V?$duration@_JU?$ratio@$00$00@std@@@chrono@std@@_JU?$ratio@$00$0DLJKMKAA@@3@@chrono@std@@YA?AV?$duration@_JU?$ratio@$00$00@std@@@01@ABV?$duration@_JU?$ratio@$00$0DLJKMKAA@@std@@@01@@Z 00422630 f i datarecorder.obj
 0001:00021660       ??$duration_cast@V?$duration@_JU?$ratio@$00$0DLJKMKAA@@std@@@chrono@std@@_JU?$ratio@$00$00@3@@chrono@std@@YA?AV?$duration@_JU?$ratio@$00$0DLJKMKAA@@std@@@01@ABV?$duration@_JU?$ratio@$00$00@std@@@01@@Z 00422660 f i datarecorder.obj
 0001:00021690       ??$duration_cast@V?$duration@_JU?$ratio@$00$0DLJKMKAA@@std@@@chrono@std@@_JU?$ratio@$00$0DOI@@3@@chrono@std@@YA?AV?$duration@_JU?$ratio@$00$0DLJKMKAA@@std@@@01@ABV?$duration@_JU?$ratio@$00$0DOI@@std@@@01@@Z 00422690 f i datarecorder.obj
 0001:000216c0       ??$duration_cast@V?$duration@_JU?$ratio@$00$0DLJKMKAA@@std@@@chrono@std@@_JU?$ratio@$00$0JIJGIA@@3@@chrono@std@@YA?AV?$duration@_JU?$ratio@$00$0DLJKMKAA@@std@@@01@ABV?$duration@_JU?$ratio@$00$0JIJGIA@@std@@@01@@Z 004226c0 f i datarecorder.obj
 0001:000216e0       ??$duration_cast@V?$duration@_JU?$ratio@$00$0JIJGIA@@std@@@chrono@std@@_JU?$ratio@$00$00@3@@chrono@std@@YA?AV?$duration@_JU?$ratio@$00$0JIJGIA@@std@@@01@ABV?$duration@_JU?$ratio@$00$00@std@@@01@@Z 004226e0 f i datarecorder.obj
 0001:00021710       ??$duration_cast@V?$duration@_JU?$ratio@$00$0JIJGIA@@std@@@chrono@std@@_JU?$ratio@$00$0DOI@@3@@chrono@std@@YA?AV?$duration@_JU?$ratio@$00$0JIJGIA@@std@@@01@ABV?$duration@_JU?$ratio@$00$0DOI@@std@@@01@@Z 00422710 f i datarecorder.obj
 0001:00021740       ??$duration_cast@V?$duration@_JU?$ratio@$00$0JIJGIA@@std@@@chrono@std@@_JU?$ratio@$00$0PECEA@@3@@chrono@std@@YA?AV?$duration@_JU?$ratio@$00$0JIJGIA@@std@@@01@ABV?$duration@_JU?$ratio@$00$0PECEA@@std@@@01@@Z 00422740 f i datarecorder.obj
 0001:00021770       ??$duration_cast@V?$duration@_JU?$ratio@$00$0PECEA@@std@@@chrono@std@@_JU?$ratio@$00$0JIJGIA@@3@@chrono@std@@YA?AV?$duration@_JU?$ratio@$00$0PECEA@@std@@@01@ABV?$duration@_JU?$ratio@$00$0JIJGIA@@std@@@01@@Z 00422770 f i datarecorder.obj
 0001:00021790       ??$emplace@ABUpiecewise_construct_t@std@@V?$tuple@ABV?$basic_string@DU?$char_traits@D@std@@V?$allocator@D@2@@std@@@2@V?$tuple@$$$V@2@@?$_Hash@V?$_Umap_traits@V?$basic_string@DU?$char_traits@D@std@@V?$allocator@D@2@@std@@V?$shared_ptr@Vlogger@spdlog@@@2@V?$_Uhash_compare@V?$basic_string@DU?$char_traits@D@std@@V?$allocator@D@2@@std@@U?$hash@V?$basic_string@DU?$char_traits@D@std@@V?$allocator@D@2@@std@@@2@U?$equal_to@V?$basic_string@DU?$char_traits@D@std@@V?$allocator@D@2@@std@@@2@@2@V?$allocator@U?$pair@$$CBV?$basic_string@DU?$char_traits@D@std@@V?$allocator@D@2@@std@@V?$shared_ptr@Vlogger@spdlog@@@2@@std@@@2@$0A@@std@@@std@@QAE?AU?$pair@V?$_List_iterator@V?$_List_val@U?$_List_simple_types@U?$pair@$$CBV?$basic_string@DU?$char_traits@D@std@@V?$allocator@D@2@@std@@V?$shared_ptr@Vlogger@spdlog@@@2@@std@@@std@@@std@@@std@@_N@1@ABUpiecewise_construct_t@1@$$QAV?$tuple@ABV?$basic_string@DU?$char_traits@D@std@@V?$allocator@D@2@@std@@@1@$$QAV?$tuple@$$$V@1@@Z 00422790 f i datarecorder.obj
 0001:00021800       ??$emplace_front@ABUpiecewise_construct_t@std@@V?$tuple@ABV?$basic_string@DU?$char_traits@D@std@@V?$allocator@D@2@@std@@@2@V?$tuple@$$$V@2@@?$list@U?$pair@$$CBV?$basic_string@DU?$char_traits@D@std@@V?$allocator@D@2@@std@@V?$shared_ptr@Vlogger@spdlog@@@2@@std@@V?$allocator@U?$pair@$$CBV?$basic_string@DU?$char_traits@D@std@@V?$allocator@D@2@@std@@V?$shared_ptr@Vlogger@spdlog@@@2@@std@@@2@@std@@QAEXABUpiecewise_construct_t@1@$$QAV?$tuple@ABV?$basic_string@DU?$char_traits@D@std@@V?$allocator@D@2@@std@@@1@$$QAV?$tuple@$$$V@1@@Z 00422800 f i datarecorder.obj
 0001:00021850       ??$emplace_hint@ABUpiecewise_construct_t@std@@V?$tuple@ABV?$basic_string@DU?$char_traits@D@std@@V?$allocator@D@2@@std@@@2@V?$tuple@$$$V@2@@?$_Tree@V?$_Tmap_traits@V?$basic_string@DU?$char_traits@D@std@@V?$allocator@D@2@@std@@HU?$less@V?$basic_string@DU?$char_traits@D@std@@V?$allocator@D@2@@std@@@2@V?$allocator@U?$pair@$$CBV?$basic_string@DU?$char_traits@D@std@@V?$allocator@D@2@@std@@H@std@@@2@$0A@@std@@@std@@QAE?AV?$_Tree_iterator@V?$_Tree_val@U?$_Tree_simple_types@U?$pair@$$CBV?$basic_string@DU?$char_traits@D@std@@V?$allocator@D@2@@std@@H@std@@@std@@@std@@@1@V?$_Tree_const_iterator@V?$_Tree_val@U?$_Tree_simple_types@U?$pair@$$CBV?$basic_string@DU?$char_traits@D@std@@V?$allocator@D@2@@std@@H@std@@@std@@@std@@@1@ABUpiecewise_construct_t@1@$$QAV?$tuple@ABV?$basic_string@DU?$char_traits@D@std@@V?$allocator@D@2@@std@@@1@$$QAV?$tuple@$$$V@1@@Z 00422850 f i datarecorder.obj
 0001:00021880       ??$emplace_hint@ABUpiecewise_construct_t@std@@V?$tuple@ABV?$basic_string@DU?$char_traits@D@std@@V?$allocator@D@2@@std@@@2@V?$tuple@$$$V@2@@?$_Tree@V?$_Tmap_traits@V?$basic_string@DU?$char_traits@D@std@@V?$allocator@D@2@@std@@V?$shared_ptr@VEvent_Tick@@@2@U?$less@V?$basic_string@DU?$char_traits@D@std@@V?$allocator@D@2@@std@@@2@V?$allocator@U?$pair@$$CBV?$basic_string@DU?$char_traits@D@std@@V?$allocator@D@2@@std@@V?$shared_ptr@VEvent_Tick@@@2@@std@@@2@$0A@@std@@@std@@QAE?AV?$_Tree_iterator@V?$_Tree_val@U?$_Tree_simple_types@U?$pair@$$CBV?$basic_string@DU?$char_traits@D@std@@V?$allocator@D@2@@std@@V?$shared_ptr@VEvent_Tick@@@2@@std@@@std@@@std@@@1@V?$_Tree_const_iterator@V?$_Tree_val@U?$_Tree_simple_types@U?$pair@$$CBV?$basic_string@DU?$char_traits@D@std@@V?$allocator@D@2@@std@@V?$shared_ptr@VEvent_Tick@@@2@@std@@@std@@@std@@@1@ABUpiecewise_construct_t@1@$$QAV?$tuple@ABV?$basic_string@DU?$char_traits@D@std@@V?$allocator@D@2@@std@@@1@$$QAV?$tuple@$$$V@1@@Z 00422880 f i datarecorder.obj
 0001:000218b0       ??$emplace_hint@ABUpiecewise_construct_t@std@@V?$tuple@ABV?$basic_string@DU?$char_traits@D@std@@V?$allocator@D@2@@std@@@2@V?$tuple@$$$V@2@@?$_Tree@V?$_Tmap_traits@V?$basic_string@DU?$char_traits@D@std@@V?$allocator@D@2@@std@@VBarData@jsstructs@@U?$less@V?$basic_string@DU?$char_traits@D@std@@V?$allocator@D@2@@std@@@2@V?$allocator@U?$pair@$$CBV?$basic_string@DU?$char_traits@D@std@@V?$allocator@D@2@@std@@VBarData@jsstructs@@@std@@@2@$0A@@std@@@std@@QAE?AV?$_Tree_iterator@V?$_Tree_val@U?$_Tree_simple_types@U?$pair@$$CBV?$basic_string@DU?$char_traits@D@std@@V?$allocator@D@2@@std@@VBarData@jsstructs@@@std@@@std@@@std@@@1@V?$_Tree_const_iterator@V?$_Tree_val@U?$_Tree_simple_types@U?$pair@$$CBV?$basic_string@DU?$char_traits@D@std@@V?$allocator@D@2@@std@@VBarData@jsstructs@@@std@@@std@@@std@@@1@ABUpiecewise_construct_t@1@$$QAV?$tuple@ABV?$basic_string@DU?$char_traits@D@std@@V?$allocator@D@2@@std@@@1@$$QAV?$tuple@$$$V@1@@Z 004228b0 f i datarecorder.obj
 0001:000218e0       ??$emplace_hint@ABUpiecewise_construct_t@std@@V?$tuple@ABV?$basic_string@DU?$char_traits@D@std@@V?$allocator@D@2@@std@@@2@V?$tuple@$$$V@2@@?$_Tree@V?$_Tmap_traits@V?$basic_string@DU?$char_traits@D@std@@V?$allocator@D@2@@std@@_JU?$less@V?$basic_string@DU?$char_traits@D@std@@V?$allocator@D@2@@std@@@2@V?$allocator@U?$pair@$$CBV?$basic_string@DU?$char_traits@D@std@@V?$allocator@D@2@@std@@_J@std@@@2@$0A@@std@@@std@@QAE?AV?$_Tree_iterator@V?$_Tree_val@U?$_Tree_simple_types@U?$pair@$$CBV?$basic_string@DU?$char_traits@D@std@@V?$allocator@D@2@@std@@_J@std@@@std@@@std@@@1@V?$_Tree_const_iterator@V?$_Tree_val@U?$_Tree_simple_types@U?$pair@$$CBV?$basic_string@DU?$char_traits@D@std@@V?$allocator@D@2@@std@@_J@std@@@std@@@std@@@1@ABUpiecewise_construct_t@1@$$QAV?$tuple@ABV?$basic_string@DU?$char_traits@D@std@@V?$allocator@D@2@@std@@@1@$$QAV?$tuple@$$$V@1@@Z 004228e0 f i datarecorder.obj
 0001:00021910       ??$endl@DU?$char_traits@D@std@@@std@@YAAAV?$basic_ostream@DU?$char_traits@D@std@@@0@AAV10@@Z 00422910 f i datarecorder.obj
 0001:00021940       ??$error@V?$basic_string@DU?$char_traits@D@std@@V?$allocator@D@2@@std@@V12@V12@@logger@spdlog@@QAEXPBDABV?$basic_string@DU?$char_traits@D@std@@V?$allocator@D@2@@std@@11@Z 00422940 f i datarecorder.obj
 0001:00021960       ??$fill@PADD@std@@YAXPAD0ABD@Z 00422960 f i datarecorder.obj
 0001:00021980       ??$fill@PAV?$_List_unchecked_iterator@V?$_List_val@U?$_List_simple_types@U?$pair@$$CBV?$basic_string@DU?$char_traits@D@std@@V?$allocator@D@2@@std@@V?$shared_ptr@Vlogger@spdlog@@@2@@std@@@std@@@std@@@std@@V12@@std@@YAXPAV?$_List_unchecked_iterator@V?$_List_val@U?$_List_simple_types@U?$pair@$$CBV?$basic_string@DU?$char_traits@D@std@@V?$allocator@D@2@@std@@V?$shared_ptr@Vlogger@spdlog@@@2@@std@@@std@@@std@@@0@0ABV10@@Z 00422980 f i datarecorder.obj
 0001:000219c0       ??$format@D@fmt@@YA?AV?$basic_string@DU?$char_traits@D@std@@V?$allocator@D@2@@std@@V?$BasicCStringRef@D@0@ABD@Z 004229c0 f i datarecorder.obj
 0001:00021a20       ??$format@DPBD@fmt@@YA?AV?$basic_string@DU?$char_traits@D@std@@V?$allocator@D@2@@std@@V?$BasicCStringRef@D@0@ABDABQBD@Z 00422a20 f i datarecorder.obj
 0001:00021a90       ??$format@IPBD@fmt@@YA?AV?$basic_string@DU?$char_traits@D@std@@V?$allocator@D@2@@std@@V?$BasicCStringRef@D@0@ABIABQBD@Z 00422a90 f i datarecorder.obj
 0001:00021af0       ??$format@PBD@fmt@@YA?AV?$basic_string@DU?$char_traits@D@std@@V?$allocator@D@2@@std@@V?$BasicCStringRef@D@0@ABQBD@Z 00422af0 f i datarecorder.obj
 0001:00021b50       ??$format_decimal@IDVThousandsSep@internal@fmt@@@internal@fmt@@YAXPADIIVThousandsSep@01@@Z 00422b50 f i datarecorder.obj
 0001:00021c40       ??$format_decimal@_KD@internal@fmt@@YAXPAD_KI@Z 00422c40 f i datarecorder.obj
 0001:00021c70       ??$format_decimal@_KDUNoThousandsSep@internal@fmt@@@internal@fmt@@YAXPAD_KIUNoThousandsSep@01@@Z 00422c70 f i datarecorder.obj
 0001:00021d00       ??$format_decimal@_KDVThousandsSep@internal@fmt@@@internal@fmt@@YAXPAD_KIVThousandsSep@01@@Z 00422d00 f i datarecorder.obj
 0001:00021e10       ??$format_float@N@?$CharTraits@D@internal@fmt@@SAHPADIPBDIHN@Z 00422e10 f i datarecorder.obj
 0001:00021e80       ??$format_float@O@?$CharTraits@D@internal@fmt@@SAHPADIPBDIHO@Z 00422e80 f i datarecorder.obj
 0001:00021ef0       ??$forward@AAI@std@@YAAAIAAI@Z 00422ef0 f i datarecorder.obj
 0001:00021f00       ??$forward@AAPAU?$_List_node@U?$pair@$$CBV?$basic_string@DU?$char_traits@D@std@@V?$allocator@D@2@@std@@V?$shared_ptr@Vlogger@spdlog@@@2@@std@@PAX@std@@@std@@YAAAPAU?$_List_node@U?$pair@$$CBV?$basic_string@DU?$char_traits@D@std@@V?$allocator@D@2@@std@@V?$shared_ptr@Vlogger@spdlog@@@2@@std@@PAX@0@AAPAU10@@Z 00422f00 f i datarecorder.obj
 0001:00021f10       ??$forward@AAPAU?$_Tree_node@U?$pair@$$CBV?$basic_string@DU?$char_traits@D@std@@V?$allocator@D@2@@std@@H@std@@PAX@std@@@std@@YAAAPAU?$_Tree_node@U?$pair@$$CBV?$basic_string@DU?$char_traits@D@std@@V?$allocator@D@2@@std@@H@std@@PAX@0@AAPAU10@@Z 00422f10 f i datarecorder.obj
 0001:00021f20       ??$forward@AAPAU?$_Tree_node@U?$pair@$$CBV?$basic_string@DU?$char_traits@D@std@@V?$allocator@D@2@@std@@V?$shared_ptr@VEvent_Tick@@@2@@std@@PAX@std@@@std@@YAAAPAU?$_Tree_node@U?$pair@$$CBV?$basic_string@DU?$char_traits@D@std@@V?$allocator@D@2@@std@@V?$shared_ptr@VEvent_Tick@@@2@@std@@PAX@0@AAPAU10@@Z 00422f20 f i datarecorder.obj
 0001:00021f30       ??$forward@AAPAU?$_Tree_node@U?$pair@$$CBV?$basic_string@DU?$char_traits@D@std@@V?$allocator@D@2@@std@@VBarData@jsstructs@@@std@@PAX@std@@@std@@YAAAPAU?$_Tree_node@U?$pair@$$CBV?$basic_string@DU?$char_traits@D@std@@V?$allocator@D@2@@std@@VBarData@jsstructs@@@std@@PAX@0@AAPAU10@@Z 00422f30 f i datarecorder.obj
 0001:00021f40       ??$forward@AAPAU?$_Tree_node@U?$pair@$$CBV?$basic_string@DU?$char_traits@D@std@@V?$allocator@D@2@@std@@_J@std@@PAX@std@@@std@@YAAAPAU?$_Tree_node@U?$pair@$$CBV?$basic_string@DU?$char_traits@D@std@@V?$allocator@D@2@@std@@_J@std@@PAX@0@AAPAU10@@Z 00422f40 f i datarecorder.obj
 0001:00021f50       ??$forward@AAU?$_Callable_obj@V<lambda_39bc3a8adb760765dcdc68c9b1844393>@@$0A@@std@@@std@@YAAAU?$_Callable_obj@V<lambda_39bc3a8adb760765dcdc68c9b1844393>@@$0A@@0@AAU10@@Z 00422f50 f i datarecorder.obj
 0001:00021f60       ??$forward@AAU?$_Callable_obj@V?$_Bind@$00XU?$_Pmf_wrap@P8Datarecorder@@AEXV?$shared_ptr@VEvent@@@std@@@ZXV1@V23@@std@@QAVDatarecorder@@AAV?$_Ph@$00@2@@std@@$0A@@std@@@std@@YAAAU?$_Callable_obj@V?$_Bind@$00XU?$_Pmf_wrap@P8Datarecorder@@AEXV?$shared_ptr@VEvent@@@std@@@ZXV1@V23@@std@@QAVDatarecorder@@AAV?$_Ph@$00@2@@std@@$0A@@0@AAU10@@Z 00422f60 f i datarecorder.obj
 0001:00021f70       ??$forward@AAU?$_Callable_obj@V?$_Bind@$00XU?$_Pmf_wrap@P8Datarecorder@@AEXXZXV1@$$$V@std@@QAVDatarecorder@@@std@@$0A@@std@@@std@@YAAAU?$_Callable_obj@V?$_Bind@$00XU?$_Pmf_wrap@P8Datarecorder@@AEXXZXV1@$$$V@std@@QAVDatarecorder@@@std@@$0A@@0@AAU10@@Z 00422f70 f i datarecorder.obj
 0001:00021f80       ??$forward@AAU?$pair@$$CBV?$basic_string@DU?$char_traits@D@std@@V?$allocator@D@2@@std@@H@std@@@std@@YAAAU?$pair@$$CBV?$basic_string@DU?$char_traits@D@std@@V?$allocator@D@2@@std@@H@0@AAU10@@Z 00422f80 f i datarecorder.obj
 0001:00021f90       ??$forward@AAU?$pair@$$CBV?$basic_string@DU?$char_traits@D@std@@V?$allocator@D@2@@std@@V?$shared_ptr@VEvent_Tick@@@2@@std@@@std@@YAAAU?$pair@$$CBV?$basic_string@DU?$char_traits@D@std@@V?$allocator@D@2@@std@@V?$shared_ptr@VEvent_Tick@@@2@@0@AAU10@@Z 00422f90 f i datarecorder.obj
 0001:00021fa0       ??$forward@AAU?$pair@$$CBV?$basic_string@DU?$char_traits@D@std@@V?$allocator@D@2@@std@@V?$shared_ptr@Vlogger@spdlog@@@2@@std@@@std@@YAAAU?$pair@$$CBV?$basic_string@DU?$char_traits@D@std@@V?$allocator@D@2@@std@@V?$shared_ptr@Vlogger@spdlog@@@2@@0@AAU10@@Z 00422fa0 f i datarecorder.obj
 0001:00021fb0       ??$forward@AAU?$pair@$$CBV?$basic_string@DU?$char_traits@D@std@@V?$allocator@D@2@@std@@VBarData@jsstructs@@@std@@@std@@YAAAU?$pair@$$CBV?$basic_string@DU?$char_traits@D@std@@V?$allocator@D@2@@std@@VBarData@jsstructs@@@0@AAU10@@Z 00422fb0 f i datarecorder.obj
 0001:00021fc0       ??$forward@AAU?$pair@$$CBV?$basic_string@DU?$char_traits@D@std@@V?$allocator@D@2@@std@@_J@std@@@std@@YAAAU?$pair@$$CBV?$basic_string@DU?$char_traits@D@std@@V?$allocator@D@2@@std@@_J@0@AAU10@@Z 00422fc0 f i datarecorder.obj
 0001:00021fd0       ??$forward@AAV?$_Ph@$00@std@@@std@@YAAAV?$_Ph@$00@0@AAV10@@Z 00422fd0 f i datarecorder.obj
 0001:00021fe0       ??$forward@AAV?$_Tree_iterator@V?$_Tree_val@U?$_Tree_simple_types@U?$pair@$$CBV?$basic_string@DU?$char_traits@D@std@@V?$allocator@D@2@@std@@H@std@@@std@@@std@@@std@@@std@@YAAAV?$_Tree_iterator@V?$_Tree_val@U?$_Tree_simple_types@U?$pair@$$CBV?$basic_string@DU?$char_traits@D@std@@V?$allocator@D@2@@std@@H@std@@@std@@@std@@@0@AAV10@@Z 00422fe0 f i datarecorder.obj
 0001:00021ff0       ??$forward@AAV?$_Tree_iterator@V?$_Tree_val@U?$_Tree_simple_types@U?$pair@$$CBV?$basic_string@DU?$char_traits@D@std@@V?$allocator@D@2@@std@@V?$shared_ptr@VEvent_Tick@@@2@@std@@@std@@@std@@@std@@@std@@YAAAV?$_Tree_iterator@V?$_Tree_val@U?$_Tree_simple_types@U?$pair@$$CBV?$basic_string@DU?$char_traits@D@std@@V?$allocator@D@2@@std@@V?$shared_ptr@VEvent_Tick@@@2@@std@@@std@@@std@@@0@AAV10@@Z 00422ff0 f i datarecorder.obj
 0001:00022000       ??$forward@AAV?$_Tree_iterator@V?$_Tree_val@U?$_Tree_simple_types@U?$pair@$$CBV?$basic_string@DU?$char_traits@D@std@@V?$allocator@D@2@@std@@VBarData@jsstructs@@@std@@@std@@@std@@@std@@@std@@YAAAV?$_Tree_iterator@V?$_Tree_val@U?$_Tree_simple_types@U?$pair@$$CBV?$basic_string@DU?$char_traits@D@std@@V?$allocator@D@2@@std@@VBarData@jsstructs@@@std@@@std@@@std@@@0@AAV10@@Z 00423000 f i datarecorder.obj
 0001:00022010       ??$forward@AAV?$_Tree_iterator@V?$_Tree_val@U?$_Tree_simple_types@U?$pair@$$CBV?$basic_string@DU?$char_traits@D@std@@V?$allocator@D@2@@std@@_J@std@@@std@@@std@@@std@@@std@@YAAAV?$_Tree_iterator@V?$_Tree_val@U?$_Tree_simple_types@U?$pair@$$CBV?$basic_string@DU?$char_traits@D@std@@V?$allocator@D@2@@std@@_J@std@@@std@@@std@@@0@AAV10@@Z 00423010 f i datarecorder.obj
 0001:00022020       ??$forward@AAV?$duration@_JU?$ratio@$00$0DOI@@std@@@chrono@std@@@std@@YAAAV?$duration@_JU?$ratio@$00$0DOI@@std@@@chrono@0@AAV120@@Z 00423020 f i datarecorder.obj
 0001:00022030       ??$forward@AAV?$function@$$A6AXXZ@std@@@std@@YAAAV?$function@$$A6AXXZ@0@AAV10@@Z 00423030 f i datarecorder.obj
 0001:00022040       ??$forward@AAV?$shared_ptr@VEvent@@@std@@@std@@YAAAV?$shared_ptr@VEvent@@@0@AAV10@@Z 00423040 f i datarecorder.obj
 0001:00022050       ??$forward@AAW4async_overflow_policy@spdlog@@@std@@YAAAW4async_overflow_policy@spdlog@@AAW412@@Z 00423050 f i datarecorder.obj
 0001:00022060       ??$forward@AAY02$$CBD@std@@YAAAY02$$CBDAAY02$$CBD@Z 00423060 f i datarecorder.obj
 0001:00022070       ??$forward@ABQBV?$shared_ptr@Vsink@sinks@spdlog@@@std@@@std@@YAABQBV?$shared_ptr@Vsink@sinks@spdlog@@@0@ABQBV10@@Z 00423070 f i datarecorder.obj
 0001:00022080       ??$forward@ABU?$NamedArg@D@internal@fmt@@@std@@YAABU?$NamedArg@D@internal@fmt@@ABU123@@Z 00423080 f i datarecorder.obj
 0001:00022090       ??$forward@ABV?$BasicStringRef@D@fmt@@@std@@YAABV?$BasicStringRef@D@fmt@@ABV12@@Z 00423090 f i datarecorder.obj
 0001:000220a0       ??$forward@ABV?$_List_unchecked_iterator@V?$_List_val@U?$_List_simple_types@U?$pair@$$CBV?$basic_string@DU?$char_traits@D@std@@V?$allocator@D@2@@std@@V?$shared_ptr@Vlogger@spdlog@@@2@@std@@@std@@@std@@@std@@@std@@YAABV?$_List_unchecked_iterator@V?$_List_val@U?$_List_simple_types@U?$pair@$$CBV?$basic_string@DU?$char_traits@D@std@@V?$allocator@D@2@@std@@V?$shared_ptr@Vlogger@spdlog@@@2@@std@@@std@@@std@@@0@ABV10@@Z 004230a0 f i datarecorder.obj
 0001:000220b0       ??$forward@ABV?$shared_ptr@Vsink@sinks@spdlog@@@std@@@std@@YAABV?$shared_ptr@Vsink@sinks@spdlog@@@0@ABV10@@Z 004230b0 f i datarecorder.obj
 0001:000220c0       ??$forward@P8async_log_helper@details@spdlog@@AEXXZ@std@@YA$$QAP8async_log_helper@details@spdlog@@AEXXZAAP8123@AEXXZ@Z 004230c0 f i datarecorder.obj
 0001:000220d0       ??$forward@PAVasync_log_helper@details@spdlog@@@std@@YA$$QAPAVasync_log_helper@details@spdlog@@AAPAV123@@Z 004230d0 f i datarecorder.obj
 0001:000220e0       ??$forward@QAVDatarecorder@@@std@@YA$$QBQAVDatarecorder@@ABQAV1@@Z 004230e0 f i datarecorder.obj
 0001:000220f0       ??$forward@QAVasync_log_helper@details@spdlog@@@std@@YA$$QBQAVasync_log_helper@details@spdlog@@ABQAV123@@Z 004230f0 f i datarecorder.obj
 0001:00022100       ??$forward@U?$_Callable_obj@V<lambda_39bc3a8adb760765dcdc68c9b1844393>@@$0A@@std@@@std@@YA$$QAU?$_Callable_obj@V<lambda_39bc3a8adb760765dcdc68c9b1844393>@@$0A@@0@AAU10@@Z 00423100 f i datarecorder.obj
 0001:00022110       ??$forward@U?$_Callable_obj@V?$_Bind@$00XU?$_Pmf_wrap@P8Datarecorder@@AEXV?$shared_ptr@VEvent@@@std@@@ZXV1@V23@@std@@QAVDatarecorder@@AAV?$_Ph@$00@2@@std@@$0A@@std@@@std@@YA$$QAU?$_Callable_obj@V?$_Bind@$00XU?$_Pmf_wrap@P8Datarecorder@@AEXV?$shared_ptr@VEvent@@@std@@@ZXV1@V23@@std@@QAVDatarecorder@@AAV?$_Ph@$00@2@@std@@$0A@@0@AAU10@@Z 00423110 f i datarecorder.obj
 0001:00022120       ??$forward@U?$_Callable_obj@V?$_Bind@$00XU?$_Pmf_wrap@P8Datarecorder@@AEXXZXV1@$$$V@std@@QAVDatarecorder@@@std@@$0A@@std@@@std@@YA$$QAU?$_Callable_obj@V?$_Bind@$00XU?$_Pmf_wrap@P8Datarecorder@@AEXXZXV1@$$$V@std@@QAVDatarecorder@@@std@@$0A@@0@AAU10@@Z 00423120 f i datarecorder.obj
 0001:00022130       ??$forward@U?$_Pmf_wrap@P8Datarecorder@@AEXV?$shared_ptr@VEvent@@@std@@@ZXV1@V23@@std@@@std@@YA$$QAU?$_Pmf_wrap@P8Datarecorder@@AEXV?$shared_ptr@VEvent@@@std@@@ZXV1@V23@@0@AAU10@@Z 00423130 f i datarecorder.obj
 0001:00022140       ??$forward@U?$_Pmf_wrap@P8Datarecorder@@AEXXZXV1@$$$V@std@@@std@@YA$$QAU?$_Pmf_wrap@P8Datarecorder@@AEXXZXV1@$$$V@0@AAU10@@Z 00423140 f i datarecorder.obj
 0001:00022150       ??$forward@U?$_Pmf_wrap@P8async_log_helper@details@spdlog@@AEXXZXV123@$$$V@std@@@std@@YA$$QAU?$_Pmf_wrap@P8async_log_helper@details@spdlog@@AEXXZXV123@$$$V@0@AAU10@@Z 00423150 f i datarecorder.obj
 0001:00022160       ??$forward@U?$default_delete@Vaggregate_formatter@details@spdlog@@@std@@@std@@YA$$QAU?$default_delete@Vaggregate_formatter@details@spdlog@@@0@AAU10@@Z 00423160 f i datarecorder.obj
 0001:00022170       ??$forward@U?$default_delete@Vflag_formatter@details@spdlog@@@std@@@std@@YA$$QAU?$default_delete@Vflag_formatter@details@spdlog@@@0@AAU10@@Z 00423170 f i datarecorder.obj
 0001:00022180       ??$forward@U?$pair@V?$BasicStringRef@D@fmt@@UArg@internal@2@@std@@@std@@YA$$QAU?$pair@V?$BasicStringRef@D@fmt@@UArg@internal@2@@0@AAU10@@Z 00423180 f i datarecorder.obj
 0001:00022190       ??$forward@UArg@internal@fmt@@@std@@YA$$QAUArg@internal@fmt@@AAU123@@Z 00423190 f i datarecorder.obj
 0001:000221a0       ??$forward@V<lambda_39bc3a8adb760765dcdc68c9b1844393>@@@std@@YA$$QAV<lambda_39bc3a8adb760765dcdc68c9b1844393>@@AAV1@@Z 004231a0 f i datarecorder.obj
 0001:000221b0       ??$forward@V?$BasicStringRef@D@fmt@@@std@@YA$$QAV?$BasicStringRef@D@fmt@@AAV12@@Z 004231b0 f i datarecorder.obj
 0001:000221c0       ??$forward@V?$_Bind@$00XU?$_Pmf_wrap@P8Datarecorder@@AEXV?$shared_ptr@VEvent@@@std@@@ZXV1@V23@@std@@QAVDatarecorder@@AAV?$_Ph@$00@2@@std@@@std@@YA$$QAV?$_Bind@$00XU?$_Pmf_wrap@P8Datarecorder@@AEXV?$shared_ptr@VEvent@@@std@@@ZXV1@V23@@std@@QAVDatarecorder@@AAV?$_Ph@$00@2@@0@AAV10@@Z 004231c0 f i datarecorder.obj
 0001:000221d0       ??$forward@V?$_Bind@$00XU?$_Pmf_wrap@P8Datarecorder@@AEXXZXV1@$$$V@std@@QAVDatarecorder@@@std@@@std@@YA$$QAV?$_Bind@$00XU?$_Pmf_wrap@P8Datarecorder@@AEXXZXV1@$$$V@std@@QAVDatarecorder@@@0@AAV10@@Z 004231d0 f i datarecorder.obj
 0001:000221e0       ??$forward@V?$_Bind@$00XU?$_Pmf_wrap@P8async_log_helper@details@spdlog@@AEXXZXV123@$$$V@std@@PAVasync_log_helper@details@spdlog@@@std@@@std@@YA$$QAV?$_Bind@$00XU?$_Pmf_wrap@P8async_log_helper@details@spdlog@@AEXXZXV123@$$$V@std@@PAVasync_log_helper@details@spdlog@@@0@AAV10@@Z 004231e0 f i datarecorder.obj
 0001:000221f0       ??$forward@V?$_List_iterator@V?$_List_val@U?$_List_simple_types@U?$pair@$$CBV?$basic_string@DU?$char_traits@D@std@@V?$allocator@D@2@@std@@V?$shared_ptr@Vlogger@spdlog@@@2@@std@@@std@@@std@@@std@@@std@@YA$$QAV?$_List_iterator@V?$_List_val@U?$_List_simple_types@U?$pair@$$CBV?$basic_string@DU?$char_traits@D@std@@V?$allocator@D@2@@std@@V?$shared_ptr@Vlogger@spdlog@@@2@@std@@@std@@@std@@@0@AAV10@@Z 004231f0 f i datarecorder.obj
 0001:00022200       ??$forward@V?$_List_unchecked_iterator@V?$_List_val@U?$_List_simple_types@U?$pair@$$CBV?$basic_string@DU?$char_traits@D@std@@V?$allocator@D@2@@std@@V?$shared_ptr@Vlogger@spdlog@@@2@@std@@@std@@@std@@@std@@@std@@YA$$QAV?$_List_unchecked_iterator@V?$_List_val@U?$_List_simple_types@U?$pair@$$CBV?$basic_string@DU?$char_traits@D@std@@V?$allocator@D@2@@std@@V?$shared_ptr@Vlogger@spdlog@@@2@@std@@@std@@@std@@@0@AAV10@@Z 00423200 f i datarecorder.obj
 0001:00022210       ??$forward@V?$_Ptr_base@V?$rotating_file_sink@Vmutex@std@@@sinks@spdlog@@@std@@@std@@YA$$QAV?$_Ptr_base@V?$rotating_file_sink@Vmutex@std@@@sinks@spdlog@@@0@AAV10@@Z 00423210 f i datarecorder.obj
 0001:00022220       ??$forward@V?$_Ptr_base@V?$stderr_sink@Vmutex@std@@@sinks@spdlog@@@std@@@std@@YA$$QAV?$_Ptr_base@V?$stderr_sink@Vmutex@std@@@sinks@spdlog@@@0@AAV10@@Z 00423220 f i datarecorder.obj
 0001:00022230       ??$forward@V?$_Ptr_base@VEvent@@@std@@@std@@YA$$QAV?$_Ptr_base@VEvent@@@0@AAV10@@Z 00423230 f i datarecorder.obj
 0001:00022240       ??$forward@V?$_Ptr_base@Vasync_logger@spdlog@@@std@@@std@@YA$$QAV?$_Ptr_base@Vasync_logger@spdlog@@@0@AAV10@@Z 00423240 f i datarecorder.obj
 0001:00022250       ??$forward@V?$_Ptr_base@Vlogger@spdlog@@@std@@@std@@YA$$QAV?$_Ptr_base@Vlogger@spdlog@@@0@AAV10@@Z 00423250 f i datarecorder.obj
 0001:00022260       ??$forward@V?$_Ptr_base@Vpattern_formatter@spdlog@@@std@@@std@@YA$$QAV?$_Ptr_base@Vpattern_formatter@spdlog@@@0@AAV10@@Z 00423260 f i datarecorder.obj
 0001:00022270       ??$forward@V?$_Tree_iterator@V?$_Tree_val@U?$_Tree_simple_types@U?$pair@$$CBV?$basic_string@DU?$char_traits@D@std@@V?$allocator@D@2@@std@@H@std@@@std@@@std@@@std@@@std@@YA$$QAV?$_Tree_iterator@V?$_Tree_val@U?$_Tree_simple_types@U?$pair@$$CBV?$basic_string@DU?$char_traits@D@std@@V?$allocator@D@2@@std@@H@std@@@std@@@std@@@0@AAV10@@Z 00423270 f i datarecorder.obj
 0001:00022280       ??$forward@V?$_Tree_iterator@V?$_Tree_val@U?$_Tree_simple_types@U?$pair@$$CBV?$basic_string@DU?$char_traits@D@std@@V?$allocator@D@2@@std@@V?$shared_ptr@VEvent_Tick@@@2@@std@@@std@@@std@@@std@@@std@@YA$$QAV?$_Tree_iterator@V?$_Tree_val@U?$_Tree_simple_types@U?$pair@$$CBV?$basic_string@DU?$char_traits@D@std@@V?$allocator@D@2@@std@@V?$shared_ptr@VEvent_Tick@@@2@@std@@@std@@@std@@@0@AAV10@@Z 00423280 f i datarecorder.obj
 0001:00022290       ??$forward@V?$_Tree_iterator@V?$_Tree_val@U?$_Tree_simple_types@U?$pair@$$CBV?$basic_string@DU?$char_traits@D@std@@V?$allocator@D@2@@std@@VBarData@jsstructs@@@std@@@std@@@std@@@std@@@std@@YA$$QAV?$_Tree_iterator@V?$_Tree_val@U?$_Tree_simple_types@U?$pair@$$CBV?$basic_string@DU?$char_traits@D@std@@V?$allocator@D@2@@std@@VBarData@jsstructs@@@std@@@std@@@std@@@0@AAV10@@Z 00423290 f i datarecorder.obj
 0001:000222a0       ??$forward@V?$_Tree_iterator@V?$_Tree_val@U?$_Tree_simple_types@U?$pair@$$CBV?$basic_string@DU?$char_traits@D@std@@V?$allocator@D@2@@std@@_J@std@@@std@@@std@@@std@@@std@@YA$$QAV?$_Tree_iterator@V?$_Tree_val@U?$_Tree_simple_types@U?$pair@$$CBV?$basic_string@DU?$char_traits@D@std@@V?$allocator@D@2@@std@@_J@std@@@std@@@std@@@0@AAV10@@Z 004232a0 f i datarecorder.obj
 0001:000222b0       ??$forward@V?$shared_ptr@V?$rotating_file_sink@Vmutex@std@@@sinks@spdlog@@@std@@@std@@YA$$QAV?$shared_ptr@V?$rotating_file_sink@Vmutex@std@@@sinks@spdlog@@@0@AAV10@@Z 004232b0 f i datarecorder.obj
 0001:000222c0       ??$forward@V?$shared_ptr@V?$stderr_sink@Vmutex@std@@@sinks@spdlog@@@std@@@std@@YA$$QAV?$shared_ptr@V?$stderr_sink@Vmutex@std@@@sinks@spdlog@@@0@AAV10@@Z 004232c0 f i datarecorder.obj
 0001:000222d0       ??$forward@V?$shared_ptr@VEvent@@@std@@@std@@YA$$QAV?$shared_ptr@VEvent@@@0@AAV10@@Z 004232d0 f i datarecorder.obj
 0001:000222e0       ??$forward@V?$shared_ptr@Vasync_logger@spdlog@@@std@@@std@@YA$$QAV?$shared_ptr@Vasync_logger@spdlog@@@0@AAV10@@Z 004232e0 f i datarecorder.obj
 0001:000222f0       ??$forward@V?$shared_ptr@Vlogger@spdlog@@@std@@@std@@YA$$QAV?$shared_ptr@Vlogger@spdlog@@@0@AAV10@@Z 004232f0 f i datarecorder.obj
 0001:00022300       ??$forward@V?$shared_ptr@Vpattern_formatter@spdlog@@@std@@@std@@YA$$QAV?$shared_ptr@Vpattern_formatter@spdlog@@@0@AAV10@@Z 00423300 f i datarecorder.obj
 0001:00022310       ??$forward@V?$tuple@ABV?$basic_string@DU?$char_traits@D@std@@V?$allocator@D@2@@std@@@std@@@std@@YA$$QAV?$tuple@ABV?$basic_string@DU?$char_traits@D@std@@V?$allocator@D@2@@std@@@0@AAV10@@Z 00423310 f i datarecorder.obj
 0001:00022320       ??$forward@V?$tuple@PAVasync_log_helper@details@spdlog@@@std@@@std@@YA$$QAV?$tuple@PAVasync_log_helper@details@spdlog@@@0@AAV10@@Z 00423320 f i datarecorder.obj
 0001:00022330       ??$forward@V?$unique_ptr@Vflag_formatter@details@spdlog@@U?$default_delete@Vflag_formatter@details@spdlog@@@std@@@std@@@std@@YA$$QAV?$unique_ptr@Vflag_formatter@details@spdlog@@U?$default_delete@Vflag_formatter@details@spdlog@@@std@@@0@AAV10@@Z 00423330 f i datarecorder.obj
 0001:00022340       ??$forward@V?$vector@V?$basic_string@DU?$char_traits@D@std@@V?$allocator@D@2@@std@@V?$allocator@V?$basic_string@DU?$char_traits@D@std@@V?$allocator@D@2@@std@@@2@@std@@@std@@YA$$QAV?$vector@V?$basic_string@DU?$char_traits@D@std@@V?$allocator@D@2@@std@@V?$allocator@V?$basic_string@DU?$char_traits@D@std@@V?$allocator@D@2@@std@@@2@@0@AAV10@@Z 00423340 f i datarecorder.obj
 0001:00022350       ??$forward_as_tuple@ABV?$basic_string@DU?$char_traits@D@std@@V?$allocator@D@2@@std@@@std@@YA?AV?$tuple@ABV?$basic_string@DU?$char_traits@D@std@@V?$allocator@D@2@@std@@@0@ABV?$basic_string@DU?$char_traits@D@std@@V?$allocator@D@2@@0@@Z 00423350 f i datarecorder.obj
 0001:00022360       ??$get@$00PAVDatarecorder@@V?$_Ph@$00@std@@@std@@YAAAV?$_Ph@$00@0@AAV?$tuple@PAVDatarecorder@@V?$_Ph@$00@std@@@0@@Z 00423360 f i datarecorder.obj
 0001:00022370       ??$get@$0A@AAV?$shared_ptr@VEvent@@@std@@@std@@YAAAV?$shared_ptr@VEvent@@@0@AAV?$tuple@AAV?$shared_ptr@VEvent@@@std@@@0@@Z 00423370 f i datarecorder.obj
 0001:00022380       ??$get@$0A@ABV?$basic_string@DU?$char_traits@D@std@@V?$allocator@D@2@@std@@@std@@YAABV?$basic_string@DU?$char_traits@D@std@@V?$allocator@D@2@@0@$$QAV?$tuple@ABV?$basic_string@DU?$char_traits@D@std@@V?$allocator@D@2@@std@@@0@@Z 00423380 f i datarecorder.obj
 0001:00022390       ??$get@$0A@PAVDatarecorder@@@std@@YAAAPAVDatarecorder@@AAV?$tuple@PAVDatarecorder@@@0@@Z 00423390 f i datarecorder.obj
 0001:000223a0       ??$get@$0A@PAVDatarecorder@@V?$_Ph@$00@std@@@std@@YAAAPAVDatarecorder@@AAV?$tuple@PAVDatarecorder@@V?$_Ph@$00@std@@@0@@Z 004233a0 f i datarecorder.obj
 0001:000223b0       ??$get@$0A@PAVasync_log_helper@details@spdlog@@@std@@YAAAPAVasync_log_helper@details@spdlog@@AAV?$tuple@PAVasync_log_helper@details@spdlog@@@0@@Z 004233b0 f i datarecorder.obj
 0001:000223c0       ??$is_name_start@D@internal@fmt@@YA_ND@Z 004233c0 f i datarecorder.obj
 0001:000223f0       ??$is_negative@I@?$SignChecker@$0A@@internal@fmt@@SA_NI@Z 004233f0 f i datarecorder.obj
 0001:00022400       ??$is_negative@I@internal@fmt@@YA_NI@Z 00423400 f i datarecorder.obj
 0001:00022410       ??$is_negative@_J@?$SignChecker@$00@internal@fmt@@SA_N_J@Z 00423410 f i datarecorder.obj
 0001:00022430       ??$is_negative@_J@internal@fmt@@YA_N_J@Z 00423430 f i datarecorder.obj
 0001:00022450       ??$is_negative@_K@?$SignChecker@$0A@@internal@fmt@@SA_N_K@Z 00423450 f i datarecorder.obj
 0001:00022460       ??$is_negative@_K@internal@fmt@@YA_N_K@Z 00423460 f i datarecorder.obj
 0001:00022470       ??$is_negative@_N@?$SignChecker@$0A@@internal@fmt@@SA_N_N@Z 00423470 f i datarecorder.obj
 0001:00022480       ??$is_negative@_N@internal@fmt@@YA_N_N@Z 00423480 f i datarecorder.obj
 0001:00022490       ??$isinf@N@@YA_NN@Z        00423490 f i datarecorder.obj
 0001:000224c0       ??$isinf@O@@YA_NO@Z        004234c0 f i datarecorder.obj
 0001:000224f0       ??$isinfinity@N@?$numeric_limits@UDummyInt@internal@fmt@@@std@@SA_NN@Z 004234f0 f i datarecorder.obj
 0001:00022520       ??$isinfinity@O@?$numeric_limits@UDummyInt@internal@fmt@@@std@@SA_NO@Z 00423520 f i datarecorder.obj
 0001:00022550       ??$isnan@N@@YA_NN@Z        00423550 f i datarecorder.obj
 0001:00022580       ??$isnan@O@@YA_NO@Z        00423580 f i datarecorder.obj
 0001:000225b0       ??$isnotanumber@N@?$numeric_limits@UDummyInt@internal@fmt@@@std@@SA_NN@Z 004235b0 f i datarecorder.obj
 0001:000225e0       ??$isnotanumber@O@?$numeric_limits@UDummyInt@internal@fmt@@@std@@SA_NO@Z 004235e0 f i datarecorder.obj
 0001:00022610       ??$log@V?$basic_string@DU?$char_traits@D@std@@V?$allocator@D@2@@std@@V12@V12@@logger@spdlog@@QAEXW4level_enum@level@1@PBDABV?$basic_string@DU?$char_traits@D@std@@V?$allocator@D@2@@std@@22@Z 00423610 f i datarecorder.obj
 0001:00022750       ??$make@V?$BasicFormatter@DV?$ArgFormatter@D@fmt@@@fmt@@$$BY0GE@$$CBD@?$ArgArray@$03$00@internal@fmt@@SA?AUValue@12@AAY0GE@$$CBD@Z 00423750 f i datarecorder.obj
 0001:00022760       ??$make@V?$BasicFormatter@DV?$ArgFormatter@D@fmt@@@fmt@@D@?$ArgArray@$00$00@internal@fmt@@SA?AUValue@12@ABD@Z 00423760 f i datarecorder.obj
 0001:00022780       ??$make@V?$BasicFormatter@DV?$ArgFormatter@D@fmt@@@fmt@@D@?$ArgArray@$01$00@internal@fmt@@SA?AUValue@12@ABD@Z 00423780 f i datarecorder.obj
 0001:000227a0       ??$make@V?$BasicFormatter@DV?$ArgFormatter@D@fmt@@@fmt@@H@?$ArgArray@$00$00@internal@fmt@@SA?AUValue@12@ABH@Z 004237a0 f i datarecorder.obj
 0001:000227c0       ??$make@V?$BasicFormatter@DV?$ArgFormatter@D@fmt@@@fmt@@I@?$ArgArray@$01$00@internal@fmt@@SA?AUValue@12@ABI@Z 004237c0 f i datarecorder.obj
 0001:000227e0       ??$make@V?$BasicFormatter@DV?$ArgFormatter@D@fmt@@@fmt@@PBD@?$ArgArray@$00$00@internal@fmt@@SA?AUValue@12@ABQBD@Z 004237e0 f i datarecorder.obj
 0001:00022800       ??$make@V?$BasicFormatter@DV?$ArgFormatter@D@fmt@@@fmt@@PBD@?$ArgArray@$01$00@internal@fmt@@SA?AUValue@12@ABQBD@Z 00423800 f i datarecorder.obj
 0001:00022820       ??$make@V?$BasicFormatter@DV?$ArgFormatter@D@fmt@@@fmt@@PBD@?$ArgArray@$03$00@internal@fmt@@SA?AUValue@12@ABQBD@Z 00423820 f i datarecorder.obj
 0001:00022840       ??$make@V?$BasicFormatter@DV?$ArgFormatter@D@fmt@@@fmt@@V?$basic_string@DU?$char_traits@D@std@@V?$allocator@D@2@@std@@@?$ArgArray@$00$00@internal@fmt@@SA?AUValue@12@ABV?$basic_string@DU?$char_traits@D@std@@V?$allocator@D@2@@std@@@Z 00423840 f i datarecorder.obj
 0001:00022860       ??$make@V?$BasicFormatter@DV?$ArgFormatter@D@fmt@@@fmt@@V?$basic_string@DU?$char_traits@D@std@@V?$allocator@D@2@@std@@@?$ArgArray@$01$00@internal@fmt@@SA?AUValue@12@ABV?$basic_string@DU?$char_traits@D@std@@V?$allocator@D@2@@std@@@Z 00423860 f i datarecorder.obj
 0001:00022880       ??$make@V?$BasicFormatter@DV?$ArgFormatter@D@fmt@@@fmt@@V?$basic_string@DU?$char_traits@D@std@@V?$allocator@D@2@@std@@@?$ArgArray@$02$00@internal@fmt@@SA?AUValue@12@ABV?$basic_string@DU?$char_traits@D@std@@V?$allocator@D@2@@std@@@Z 00423880 f i datarecorder.obj
 0001:000228a0       ??$make@V?$BasicFormatter@DV?$ArgFormatter@D@fmt@@@fmt@@V?$basic_string@DU?$char_traits@D@std@@V?$allocator@D@2@@std@@@?$ArgArray@$03$00@internal@fmt@@SA?AUValue@12@ABV?$basic_string@DU?$char_traits@D@std@@V?$allocator@D@2@@std@@@Z 004238a0 f i datarecorder.obj
 0001:000228c0       ??$make_move_iterator@V?$_Vector_iterator@V?$_Vector_val@U?$_Simple_types@V?$basic_string@DU?$char_traits@D@std@@V?$allocator@D@2@@std@@@std@@@std@@@std@@@std@@YA?AV?$move_iterator@V?$_Vector_iterator@V?$_Vector_val@U?$_Simple_types@V?$basic_string@DU?$char_traits@D@std@@V?$allocator@D@2@@std@@@std@@@std@@@std@@@0@V?$_Vector_iterator@V?$_Vector_val@U?$_Simple_types@V?$basic_string@DU?$char_traits@D@std@@V?$allocator@D@2@@std@@@std@@@std@@@0@@Z 004238c0 f i datarecorder.obj
 0001:000228d0       ??$make_shared@V?$rotating_file_sink@Vmutex@std@@@sinks@spdlog@@AAV?$basic_string@DU?$char_traits@D@std@@V?$allocator@D@2@@std@@AAIAAI@std@@YA?AV?$shared_ptr@V?$rotating_file_sink@Vmutex@std@@@sinks@spdlog@@@0@AAV?$basic_string@DU?$char_traits@D@std@@V?$allocator@D@2@@0@AAI1@Z 004238d0 f i datarecorder.obj
 0001:00022980       ??$make_shared@V?$stderr_sink@Vmutex@std@@@sinks@spdlog@@$$$V@std@@YA?AV?$shared_ptr@V?$stderr_sink@Vmutex@std@@@sinks@spdlog@@@0@XZ 00423980 f i datarecorder.obj
 0001:00022a00       ??$make_shared@Vasync_logger@spdlog@@ABV?$basic_string@DU?$char_traits@D@std@@V?$allocator@D@2@@std@@ABQBV?$shared_ptr@Vsink@sinks@spdlog@@@4@ABQBV54@AAIAAW4async_overflow_policy@2@AAV?$function@$$A6AXXZ@4@AAV?$duration@_JU?$ratio@$00$0DOI@@std@@@chrono@4@AAV74@@std@@YA?AV?$shared_ptr@Vasync_logger@spdlog@@@0@ABV?$basic_string@DU?$char_traits@D@std@@V?$allocator@D@2@@0@ABQBV?$shared_ptr@Vsink@sinks@spdlog@@@0@1AAIAAW4async_overflow_policy@spdlog@@AAV?$function@$$A6AXXZ@0@AAV?$duration@_JU?$ratio@$00$0DOI@@std@@@chrono@0@4@Z 00423a00 f i datarecorder.obj
 0001:00022ac0       ??$make_shared@Vlogger@spdlog@@ABV?$basic_string@DU?$char_traits@D@std@@V?$allocator@D@2@@std@@ABQBV?$shared_ptr@Vsink@sinks@spdlog@@@4@ABQBV54@@std@@YA?AV?$shared_ptr@Vlogger@spdlog@@@0@ABV?$basic_string@DU?$char_traits@D@std@@V?$allocator@D@2@@0@ABQBV?$shared_ptr@Vsink@sinks@spdlog@@@0@1@Z 00423ac0 f i datarecorder.obj
 0001:00022b60       ??$make_shared@Vpattern_formatter@spdlog@@AAY02$$CBD@std@@YA?AV?$shared_ptr@Vpattern_formatter@spdlog@@@0@AAY02$$CBD@Z 00423b60 f i datarecorder.obj
 0001:00022be0       ??$make_shared@Vpattern_formatter@spdlog@@ABV?$basic_string@DU?$char_traits@D@std@@V?$allocator@D@2@@std@@@std@@YA?AV?$shared_ptr@Vpattern_formatter@spdlog@@@0@ABV?$basic_string@DU?$char_traits@D@std@@V?$allocator@D@2@@0@@Z 00423be0 f i datarecorder.obj
 0001:00022c60       ??$make_type@$$BY0GE@$$CBD@internal@fmt@@YA_KAAY0GE@$$CBD@Z 00423c60 f i datarecorder.obj
 0001:00022c70       ??$make_type@$$BY0GE@$$CBDPBD@internal@fmt@@YA_KAAY0GE@$$CBDABQBD@Z 00423c70 f i datarecorder.obj
 0001:00022c80       ??$make_type@D@internal@fmt@@YA_KABD@Z 00423c80 f i datarecorder.obj
 0001:00022c90       ??$make_type@DPBD@internal@fmt@@YA_KABDABQBD@Z 00423c90 f i datarecorder.obj
 0001:00022ca0       ??$make_type@H@internal@fmt@@YA_KABH@Z 00423ca0 f i datarecorder.obj
 0001:00022cb0       ??$make_type@I@internal@fmt@@YA_KABI@Z 00423cb0 f i datarecorder.obj
 0001:00022cc0       ??$make_type@IPBD@internal@fmt@@YA_KABIABQBD@Z 00423cc0 f i datarecorder.obj
 0001:00022cd0       ??$make_type@PBD@internal@fmt@@YA_KABQBD@Z 00423cd0 f i datarecorder.obj
 0001:00022ce0       ??$make_type@V?$basic_string@DU?$char_traits@D@std@@V?$allocator@D@2@@std@@$$BY0GE@$$CBDPBD@internal@fmt@@YA_KABV?$basic_string@DU?$char_traits@D@std@@V?$allocator@D@2@@std@@AAY0GE@$$CBDABQBD@Z 00423ce0 f i datarecorder.obj
 0001:00022cf0       ??$make_type@V?$basic_string@DU?$char_traits@D@std@@V?$allocator@D@2@@std@@@internal@fmt@@YA_KABV?$basic_string@DU?$char_traits@D@std@@V?$allocator@D@2@@std@@@Z 00423cf0 f i datarecorder.obj
 0001:00022d00       ??$make_type@V?$basic_string@DU?$char_traits@D@std@@V?$allocator@D@2@@std@@I@internal@fmt@@YA_KABV?$basic_string@DU?$char_traits@D@std@@V?$allocator@D@2@@std@@ABI@Z 00423d00 f i datarecorder.obj
 0001:00022d10       ??$make_type@V?$basic_string@DU?$char_traits@D@std@@V?$allocator@D@2@@std@@V12@$$BY0GE@$$CBDPBD@internal@fmt@@YA_KABV?$basic_string@DU?$char_traits@D@std@@V?$allocator@D@2@@std@@0AAY0GE@$$CBDABQBD@Z 00423d10 f i datarecorder.obj
 0001:00022d20       ??$make_type@V?$basic_string@DU?$char_traits@D@std@@V?$allocator@D@2@@std@@V12@@internal@fmt@@YA_KABV?$basic_string@DU?$char_traits@D@std@@V?$allocator@D@2@@std@@0@Z 00423d20 f i datarecorder.obj
 0001:00022d30       ??$make_type@V?$basic_string@DU?$char_traits@D@std@@V?$allocator@D@2@@std@@V12@V12@@internal@fmt@@YA_KABV?$basic_string@DU?$char_traits@D@std@@V?$allocator@D@2@@std@@00@Z 00423d30 f i datarecorder.obj
 0001:00022d40       ??$max@N@std@@YAABNABN0@Z  00423d40 f i datarecorder.obj
 0001:00022d60       ??$min@N@std@@YAABNABN0@Z  00423d60 f i datarecorder.obj
 0001:00022d80       ??$move@AAUasync_msg@async_log_helper@details@spdlog@@@std@@YA$$QAUasync_msg@async_log_helper@details@spdlog@@AAU1234@@Z 00423d80 f i datarecorder.obj
 0001:00022d90       ??$move@AAV?$_Func_impl@U?$_Callable_obj@V<lambda_39bc3a8adb760765dcdc68c9b1844393>@@$0A@@std@@V?$allocator@V?$_Func_class@XABV?$basic_string@DU?$char_traits@D@std@@V?$allocator@D@2@@std@@@std@@@2@XABV?$basic_string@DU?$char_traits@D@std@@V?$allocator@D@2@@2@@std@@@std@@YA$$QAV?$_Func_impl@U?$_Callable_obj@V<lambda_39bc3a8adb760765dcdc68c9b1844393>@@$0A@@std@@V?$allocator@V?$_Func_class@XABV?$basic_string@DU?$char_traits@D@std@@V?$allocator@D@2@@std@@@std@@@2@XABV?$basic_string@DU?$char_traits@D@std@@V?$allocator@D@2@@2@@0@AAV10@@Z 00423d90 f i datarecorder.obj
 0001:00022da0       ??$move@AAV?$_Func_impl@U?$_Callable_obj@V?$_Bind@$00XU?$_Pmf_wrap@P8Datarecorder@@AEXV?$shared_ptr@VEvent@@@std@@@ZXV1@V23@@std@@QAVDatarecorder@@AAV?$_Ph@$00@2@@std@@$0A@@std@@V?$allocator@V?$_Func_class@XV?$shared_ptr@VEvent@@@std@@@std@@@2@XV?$shared_ptr@VEvent@@@2@@std@@@std@@YA$$QAV?$_Func_impl@U?$_Callable_obj@V?$_Bind@$00XU?$_Pmf_wrap@P8Datarecorder@@AEXV?$shared_ptr@VEvent@@@std@@@ZXV1@V23@@std@@QAVDatarecorder@@AAV?$_Ph@$00@2@@std@@$0A@@std@@V?$allocator@V?$_Func_class@XV?$shared_ptr@VEvent@@@std@@@std@@@2@XV?$shared_ptr@VEvent@@@2@@0@AAV10@@Z 00423da0 f i datarecorder.obj
